
RoDog.elf:     file format elf32-littlearm

Sections:
Idx Name          Size      VMA       LMA       File off  Algn
  0 .isr_vector   00000188  08000000  08000000  00010000  2**0
                  CONTENTS, ALLOC, LOAD, READONLY, DATA
  1 .text         0000b294  08000190  08000190  00010190  2**4
                  CONTENTS, ALLOC, LOAD, READONLY, CODE
  2 .rodata       00000438  0800b428  0800b428  0001b428  2**3
                  CONTENTS, ALLOC, LOAD, READONLY, DATA
  3 .ARM.extab    00000000  0800b860  0800b860  00020134  2**0
                  CONTENTS
  4 .ARM          00000008  0800b860  0800b860  0001b860  2**2
                  CONTENTS, ALLOC, LOAD, READONLY, DATA
  5 .preinit_array 00000000  0800b868  0800b868  00020134  2**0
                  CONTENTS, ALLOC, LOAD, DATA
  6 .init_array   00000004  0800b868  0800b868  0001b868  2**2
                  CONTENTS, ALLOC, LOAD, DATA
  7 .fini_array   00000004  0800b86c  0800b86c  0001b86c  2**2
                  CONTENTS, ALLOC, LOAD, DATA
  8 .data         00000134  20000000  0800b870  00020000  2**2
                  CONTENTS, ALLOC, LOAD, DATA
  9 .ccmram       00000000  10000000  10000000  00020134  2**0
                  CONTENTS
 10 .bss          00001710  20000134  20000134  00020134  2**2
                  ALLOC
 11 ._user_heap_stack 00000604  20001844  20001844  00020134  2**0
                  ALLOC
 12 .ARM.attributes 00000030  00000000  00000000  00020134  2**0
                  CONTENTS, READONLY
 13 .comment      000000c0  00000000  00000000  00020164  2**0
                  CONTENTS, READONLY
 14 .debug_info   00000d85  00000000  00000000  00020224  2**0
                  CONTENTS, READONLY, DEBUGGING, OCTETS
 15 .debug_abbrev 000004dd  00000000  00000000  00020fa9  2**0
                  CONTENTS, READONLY, DEBUGGING, OCTETS
 16 .debug_aranges 000000c0  00000000  00000000  00021486  2**0
                  CONTENTS, READONLY, DEBUGGING, OCTETS
 17 .debug_ranges 00000060  00000000  00000000  00021546  2**0
                  CONTENTS, READONLY, DEBUGGING, OCTETS
 18 .debug_line   00000958  00000000  00000000  000215a6  2**0
                  CONTENTS, READONLY, DEBUGGING, OCTETS
 19 .debug_str    000004d7  00000000  00000000  00021efe  2**0
                  CONTENTS, READONLY, DEBUGGING, OCTETS
 20 .debug_frame  000010cc  00000000  00000000  000223d8  2**2
                  CONTENTS, READONLY, DEBUGGING, OCTETS
 21 .debug_loc    0000121b  00000000  00000000  000234a4  2**0
                  CONTENTS, READONLY, DEBUGGING, OCTETS

Disassembly of section .text:

08000190 <__do_global_dtors_aux>:
 8000190:	b510      	push	{r4, lr}
 8000192:	4c05      	ldr	r4, [pc, #20]	; (80001a8 <__do_global_dtors_aux+0x18>)
 8000194:	7823      	ldrb	r3, [r4, #0]
 8000196:	b933      	cbnz	r3, 80001a6 <__do_global_dtors_aux+0x16>
 8000198:	4b04      	ldr	r3, [pc, #16]	; (80001ac <__do_global_dtors_aux+0x1c>)
 800019a:	b113      	cbz	r3, 80001a2 <__do_global_dtors_aux+0x12>
 800019c:	4804      	ldr	r0, [pc, #16]	; (80001b0 <__do_global_dtors_aux+0x20>)
 800019e:	f3af 8000 	nop.w
 80001a2:	2301      	movs	r3, #1
 80001a4:	7023      	strb	r3, [r4, #0]
 80001a6:	bd10      	pop	{r4, pc}
 80001a8:	20000134 	.word	0x20000134
 80001ac:	00000000 	.word	0x00000000
 80001b0:	0800b40c 	.word	0x0800b40c

080001b4 <frame_dummy>:
 80001b4:	b508      	push	{r3, lr}
 80001b6:	4b03      	ldr	r3, [pc, #12]	; (80001c4 <frame_dummy+0x10>)
 80001b8:	b11b      	cbz	r3, 80001c2 <frame_dummy+0xe>
 80001ba:	4903      	ldr	r1, [pc, #12]	; (80001c8 <frame_dummy+0x14>)
 80001bc:	4803      	ldr	r0, [pc, #12]	; (80001cc <frame_dummy+0x18>)
 80001be:	f3af 8000 	nop.w
 80001c2:	bd08      	pop	{r3, pc}
 80001c4:	00000000 	.word	0x00000000
 80001c8:	20000138 	.word	0x20000138
 80001cc:	0800b40c 	.word	0x0800b40c

080001d0 <memchr>:
 80001d0:	f001 01ff 	and.w	r1, r1, #255	; 0xff
 80001d4:	2a10      	cmp	r2, #16
 80001d6:	db2b      	blt.n	8000230 <memchr+0x60>
 80001d8:	f010 0f07 	tst.w	r0, #7
 80001dc:	d008      	beq.n	80001f0 <memchr+0x20>
 80001de:	f810 3b01 	ldrb.w	r3, [r0], #1
 80001e2:	3a01      	subs	r2, #1
 80001e4:	428b      	cmp	r3, r1
 80001e6:	d02d      	beq.n	8000244 <memchr+0x74>
 80001e8:	f010 0f07 	tst.w	r0, #7
 80001ec:	b342      	cbz	r2, 8000240 <memchr+0x70>
 80001ee:	d1f6      	bne.n	80001de <memchr+0xe>
 80001f0:	b4f0      	push	{r4, r5, r6, r7}
 80001f2:	ea41 2101 	orr.w	r1, r1, r1, lsl #8
 80001f6:	ea41 4101 	orr.w	r1, r1, r1, lsl #16
 80001fa:	f022 0407 	bic.w	r4, r2, #7
 80001fe:	f07f 0700 	mvns.w	r7, #0
 8000202:	2300      	movs	r3, #0
 8000204:	e8f0 5602 	ldrd	r5, r6, [r0], #8
 8000208:	3c08      	subs	r4, #8
 800020a:	ea85 0501 	eor.w	r5, r5, r1
 800020e:	ea86 0601 	eor.w	r6, r6, r1
 8000212:	fa85 f547 	uadd8	r5, r5, r7
 8000216:	faa3 f587 	sel	r5, r3, r7
 800021a:	fa86 f647 	uadd8	r6, r6, r7
 800021e:	faa5 f687 	sel	r6, r5, r7
 8000222:	b98e      	cbnz	r6, 8000248 <memchr+0x78>
 8000224:	d1ee      	bne.n	8000204 <memchr+0x34>
 8000226:	bcf0      	pop	{r4, r5, r6, r7}
 8000228:	f001 01ff 	and.w	r1, r1, #255	; 0xff
 800022c:	f002 0207 	and.w	r2, r2, #7
 8000230:	b132      	cbz	r2, 8000240 <memchr+0x70>
 8000232:	f810 3b01 	ldrb.w	r3, [r0], #1
 8000236:	3a01      	subs	r2, #1
 8000238:	ea83 0301 	eor.w	r3, r3, r1
 800023c:	b113      	cbz	r3, 8000244 <memchr+0x74>
 800023e:	d1f8      	bne.n	8000232 <memchr+0x62>
 8000240:	2000      	movs	r0, #0
 8000242:	4770      	bx	lr
 8000244:	3801      	subs	r0, #1
 8000246:	4770      	bx	lr
 8000248:	2d00      	cmp	r5, #0
 800024a:	bf06      	itte	eq
 800024c:	4635      	moveq	r5, r6
 800024e:	3803      	subeq	r0, #3
 8000250:	3807      	subne	r0, #7
 8000252:	f015 0f01 	tst.w	r5, #1
 8000256:	d107      	bne.n	8000268 <memchr+0x98>
 8000258:	3001      	adds	r0, #1
 800025a:	f415 7f80 	tst.w	r5, #256	; 0x100
 800025e:	bf02      	ittt	eq
 8000260:	3001      	addeq	r0, #1
 8000262:	f415 3fc0 	tsteq.w	r5, #98304	; 0x18000
 8000266:	3001      	addeq	r0, #1
 8000268:	bcf0      	pop	{r4, r5, r6, r7}
 800026a:	3801      	subs	r0, #1
 800026c:	4770      	bx	lr
 800026e:	bf00      	nop

08000270 <__aeabi_drsub>:
 8000270:	f081 4100 	eor.w	r1, r1, #2147483648	; 0x80000000
 8000274:	e002      	b.n	800027c <__adddf3>
 8000276:	bf00      	nop

08000278 <__aeabi_dsub>:
 8000278:	f083 4300 	eor.w	r3, r3, #2147483648	; 0x80000000

0800027c <__adddf3>:
 800027c:	b530      	push	{r4, r5, lr}
 800027e:	ea4f 0441 	mov.w	r4, r1, lsl #1
 8000282:	ea4f 0543 	mov.w	r5, r3, lsl #1
 8000286:	ea94 0f05 	teq	r4, r5
 800028a:	bf08      	it	eq
 800028c:	ea90 0f02 	teqeq	r0, r2
 8000290:	bf1f      	itttt	ne
 8000292:	ea54 0c00 	orrsne.w	ip, r4, r0
 8000296:	ea55 0c02 	orrsne.w	ip, r5, r2
 800029a:	ea7f 5c64 	mvnsne.w	ip, r4, asr #21
 800029e:	ea7f 5c65 	mvnsne.w	ip, r5, asr #21
 80002a2:	f000 80e2 	beq.w	800046a <__adddf3+0x1ee>
 80002a6:	ea4f 5454 	mov.w	r4, r4, lsr #21
 80002aa:	ebd4 5555 	rsbs	r5, r4, r5, lsr #21
 80002ae:	bfb8      	it	lt
 80002b0:	426d      	neglt	r5, r5
 80002b2:	dd0c      	ble.n	80002ce <__adddf3+0x52>
 80002b4:	442c      	add	r4, r5
 80002b6:	ea80 0202 	eor.w	r2, r0, r2
 80002ba:	ea81 0303 	eor.w	r3, r1, r3
 80002be:	ea82 0000 	eor.w	r0, r2, r0
 80002c2:	ea83 0101 	eor.w	r1, r3, r1
 80002c6:	ea80 0202 	eor.w	r2, r0, r2
 80002ca:	ea81 0303 	eor.w	r3, r1, r3
 80002ce:	2d36      	cmp	r5, #54	; 0x36
 80002d0:	bf88      	it	hi
 80002d2:	bd30      	pophi	{r4, r5, pc}
 80002d4:	f011 4f00 	tst.w	r1, #2147483648	; 0x80000000
 80002d8:	ea4f 3101 	mov.w	r1, r1, lsl #12
 80002dc:	f44f 1c80 	mov.w	ip, #1048576	; 0x100000
 80002e0:	ea4c 3111 	orr.w	r1, ip, r1, lsr #12
 80002e4:	d002      	beq.n	80002ec <__adddf3+0x70>
 80002e6:	4240      	negs	r0, r0
 80002e8:	eb61 0141 	sbc.w	r1, r1, r1, lsl #1
 80002ec:	f013 4f00 	tst.w	r3, #2147483648	; 0x80000000
 80002f0:	ea4f 3303 	mov.w	r3, r3, lsl #12
 80002f4:	ea4c 3313 	orr.w	r3, ip, r3, lsr #12
 80002f8:	d002      	beq.n	8000300 <__adddf3+0x84>
 80002fa:	4252      	negs	r2, r2
 80002fc:	eb63 0343 	sbc.w	r3, r3, r3, lsl #1
 8000300:	ea94 0f05 	teq	r4, r5
 8000304:	f000 80a7 	beq.w	8000456 <__adddf3+0x1da>
 8000308:	f1a4 0401 	sub.w	r4, r4, #1
 800030c:	f1d5 0e20 	rsbs	lr, r5, #32
 8000310:	db0d      	blt.n	800032e <__adddf3+0xb2>
 8000312:	fa02 fc0e 	lsl.w	ip, r2, lr
 8000316:	fa22 f205 	lsr.w	r2, r2, r5
 800031a:	1880      	adds	r0, r0, r2
 800031c:	f141 0100 	adc.w	r1, r1, #0
 8000320:	fa03 f20e 	lsl.w	r2, r3, lr
 8000324:	1880      	adds	r0, r0, r2
 8000326:	fa43 f305 	asr.w	r3, r3, r5
 800032a:	4159      	adcs	r1, r3
 800032c:	e00e      	b.n	800034c <__adddf3+0xd0>
 800032e:	f1a5 0520 	sub.w	r5, r5, #32
 8000332:	f10e 0e20 	add.w	lr, lr, #32
 8000336:	2a01      	cmp	r2, #1
 8000338:	fa03 fc0e 	lsl.w	ip, r3, lr
 800033c:	bf28      	it	cs
 800033e:	f04c 0c02 	orrcs.w	ip, ip, #2
 8000342:	fa43 f305 	asr.w	r3, r3, r5
 8000346:	18c0      	adds	r0, r0, r3
 8000348:	eb51 71e3 	adcs.w	r1, r1, r3, asr #31
 800034c:	f001 4500 	and.w	r5, r1, #2147483648	; 0x80000000
 8000350:	d507      	bpl.n	8000362 <__adddf3+0xe6>
 8000352:	f04f 0e00 	mov.w	lr, #0
 8000356:	f1dc 0c00 	rsbs	ip, ip, #0
 800035a:	eb7e 0000 	sbcs.w	r0, lr, r0
 800035e:	eb6e 0101 	sbc.w	r1, lr, r1
 8000362:	f5b1 1f80 	cmp.w	r1, #1048576	; 0x100000
 8000366:	d31b      	bcc.n	80003a0 <__adddf3+0x124>
 8000368:	f5b1 1f00 	cmp.w	r1, #2097152	; 0x200000
 800036c:	d30c      	bcc.n	8000388 <__adddf3+0x10c>
 800036e:	0849      	lsrs	r1, r1, #1
 8000370:	ea5f 0030 	movs.w	r0, r0, rrx
 8000374:	ea4f 0c3c 	mov.w	ip, ip, rrx
 8000378:	f104 0401 	add.w	r4, r4, #1
 800037c:	ea4f 5244 	mov.w	r2, r4, lsl #21
 8000380:	f512 0f80 	cmn.w	r2, #4194304	; 0x400000
 8000384:	f080 809a 	bcs.w	80004bc <__adddf3+0x240>
 8000388:	f1bc 4f00 	cmp.w	ip, #2147483648	; 0x80000000
 800038c:	bf08      	it	eq
 800038e:	ea5f 0c50 	movseq.w	ip, r0, lsr #1
 8000392:	f150 0000 	adcs.w	r0, r0, #0
 8000396:	eb41 5104 	adc.w	r1, r1, r4, lsl #20
 800039a:	ea41 0105 	orr.w	r1, r1, r5
 800039e:	bd30      	pop	{r4, r5, pc}
 80003a0:	ea5f 0c4c 	movs.w	ip, ip, lsl #1
 80003a4:	4140      	adcs	r0, r0
 80003a6:	eb41 0101 	adc.w	r1, r1, r1
 80003aa:	3c01      	subs	r4, #1
 80003ac:	bf28      	it	cs
 80003ae:	f5b1 1f80 	cmpcs.w	r1, #1048576	; 0x100000
 80003b2:	d2e9      	bcs.n	8000388 <__adddf3+0x10c>
 80003b4:	f091 0f00 	teq	r1, #0
 80003b8:	bf04      	itt	eq
 80003ba:	4601      	moveq	r1, r0
 80003bc:	2000      	moveq	r0, #0
 80003be:	fab1 f381 	clz	r3, r1
 80003c2:	bf08      	it	eq
 80003c4:	3320      	addeq	r3, #32
 80003c6:	f1a3 030b 	sub.w	r3, r3, #11
 80003ca:	f1b3 0220 	subs.w	r2, r3, #32
 80003ce:	da0c      	bge.n	80003ea <__adddf3+0x16e>
 80003d0:	320c      	adds	r2, #12
 80003d2:	dd08      	ble.n	80003e6 <__adddf3+0x16a>
 80003d4:	f102 0c14 	add.w	ip, r2, #20
 80003d8:	f1c2 020c 	rsb	r2, r2, #12
 80003dc:	fa01 f00c 	lsl.w	r0, r1, ip
 80003e0:	fa21 f102 	lsr.w	r1, r1, r2
 80003e4:	e00c      	b.n	8000400 <__adddf3+0x184>
 80003e6:	f102 0214 	add.w	r2, r2, #20
 80003ea:	bfd8      	it	le
 80003ec:	f1c2 0c20 	rsble	ip, r2, #32
 80003f0:	fa01 f102 	lsl.w	r1, r1, r2
 80003f4:	fa20 fc0c 	lsr.w	ip, r0, ip
 80003f8:	bfdc      	itt	le
 80003fa:	ea41 010c 	orrle.w	r1, r1, ip
 80003fe:	4090      	lslle	r0, r2
 8000400:	1ae4      	subs	r4, r4, r3
 8000402:	bfa2      	ittt	ge
 8000404:	eb01 5104 	addge.w	r1, r1, r4, lsl #20
 8000408:	4329      	orrge	r1, r5
 800040a:	bd30      	popge	{r4, r5, pc}
 800040c:	ea6f 0404 	mvn.w	r4, r4
 8000410:	3c1f      	subs	r4, #31
 8000412:	da1c      	bge.n	800044e <__adddf3+0x1d2>
 8000414:	340c      	adds	r4, #12
 8000416:	dc0e      	bgt.n	8000436 <__adddf3+0x1ba>
 8000418:	f104 0414 	add.w	r4, r4, #20
 800041c:	f1c4 0220 	rsb	r2, r4, #32
 8000420:	fa20 f004 	lsr.w	r0, r0, r4
 8000424:	fa01 f302 	lsl.w	r3, r1, r2
 8000428:	ea40 0003 	orr.w	r0, r0, r3
 800042c:	fa21 f304 	lsr.w	r3, r1, r4
 8000430:	ea45 0103 	orr.w	r1, r5, r3
 8000434:	bd30      	pop	{r4, r5, pc}
 8000436:	f1c4 040c 	rsb	r4, r4, #12
 800043a:	f1c4 0220 	rsb	r2, r4, #32
 800043e:	fa20 f002 	lsr.w	r0, r0, r2
 8000442:	fa01 f304 	lsl.w	r3, r1, r4
 8000446:	ea40 0003 	orr.w	r0, r0, r3
 800044a:	4629      	mov	r1, r5
 800044c:	bd30      	pop	{r4, r5, pc}
 800044e:	fa21 f004 	lsr.w	r0, r1, r4
 8000452:	4629      	mov	r1, r5
 8000454:	bd30      	pop	{r4, r5, pc}
 8000456:	f094 0f00 	teq	r4, #0
 800045a:	f483 1380 	eor.w	r3, r3, #1048576	; 0x100000
 800045e:	bf06      	itte	eq
 8000460:	f481 1180 	eoreq.w	r1, r1, #1048576	; 0x100000
 8000464:	3401      	addeq	r4, #1
 8000466:	3d01      	subne	r5, #1
 8000468:	e74e      	b.n	8000308 <__adddf3+0x8c>
 800046a:	ea7f 5c64 	mvns.w	ip, r4, asr #21
 800046e:	bf18      	it	ne
 8000470:	ea7f 5c65 	mvnsne.w	ip, r5, asr #21
 8000474:	d029      	beq.n	80004ca <__adddf3+0x24e>
 8000476:	ea94 0f05 	teq	r4, r5
 800047a:	bf08      	it	eq
 800047c:	ea90 0f02 	teqeq	r0, r2
 8000480:	d005      	beq.n	800048e <__adddf3+0x212>
 8000482:	ea54 0c00 	orrs.w	ip, r4, r0
 8000486:	bf04      	itt	eq
 8000488:	4619      	moveq	r1, r3
 800048a:	4610      	moveq	r0, r2
 800048c:	bd30      	pop	{r4, r5, pc}
 800048e:	ea91 0f03 	teq	r1, r3
 8000492:	bf1e      	ittt	ne
 8000494:	2100      	movne	r1, #0
 8000496:	2000      	movne	r0, #0
 8000498:	bd30      	popne	{r4, r5, pc}
 800049a:	ea5f 5c54 	movs.w	ip, r4, lsr #21
 800049e:	d105      	bne.n	80004ac <__adddf3+0x230>
 80004a0:	0040      	lsls	r0, r0, #1
 80004a2:	4149      	adcs	r1, r1
 80004a4:	bf28      	it	cs
 80004a6:	f041 4100 	orrcs.w	r1, r1, #2147483648	; 0x80000000
 80004aa:	bd30      	pop	{r4, r5, pc}
 80004ac:	f514 0480 	adds.w	r4, r4, #4194304	; 0x400000
 80004b0:	bf3c      	itt	cc
 80004b2:	f501 1180 	addcc.w	r1, r1, #1048576	; 0x100000
 80004b6:	bd30      	popcc	{r4, r5, pc}
 80004b8:	f001 4500 	and.w	r5, r1, #2147483648	; 0x80000000
 80004bc:	f045 41fe 	orr.w	r1, r5, #2130706432	; 0x7f000000
 80004c0:	f441 0170 	orr.w	r1, r1, #15728640	; 0xf00000
 80004c4:	f04f 0000 	mov.w	r0, #0
 80004c8:	bd30      	pop	{r4, r5, pc}
 80004ca:	ea7f 5c64 	mvns.w	ip, r4, asr #21
 80004ce:	bf1a      	itte	ne
 80004d0:	4619      	movne	r1, r3
 80004d2:	4610      	movne	r0, r2
 80004d4:	ea7f 5c65 	mvnseq.w	ip, r5, asr #21
 80004d8:	bf1c      	itt	ne
 80004da:	460b      	movne	r3, r1
 80004dc:	4602      	movne	r2, r0
 80004de:	ea50 3401 	orrs.w	r4, r0, r1, lsl #12
 80004e2:	bf06      	itte	eq
 80004e4:	ea52 3503 	orrseq.w	r5, r2, r3, lsl #12
 80004e8:	ea91 0f03 	teqeq	r1, r3
 80004ec:	f441 2100 	orrne.w	r1, r1, #524288	; 0x80000
 80004f0:	bd30      	pop	{r4, r5, pc}
 80004f2:	bf00      	nop

080004f4 <__aeabi_ui2d>:
 80004f4:	f090 0f00 	teq	r0, #0
 80004f8:	bf04      	itt	eq
 80004fa:	2100      	moveq	r1, #0
 80004fc:	4770      	bxeq	lr
 80004fe:	b530      	push	{r4, r5, lr}
 8000500:	f44f 6480 	mov.w	r4, #1024	; 0x400
 8000504:	f104 0432 	add.w	r4, r4, #50	; 0x32
 8000508:	f04f 0500 	mov.w	r5, #0
 800050c:	f04f 0100 	mov.w	r1, #0
 8000510:	e750      	b.n	80003b4 <__adddf3+0x138>
 8000512:	bf00      	nop

08000514 <__aeabi_i2d>:
 8000514:	f090 0f00 	teq	r0, #0
 8000518:	bf04      	itt	eq
 800051a:	2100      	moveq	r1, #0
 800051c:	4770      	bxeq	lr
 800051e:	b530      	push	{r4, r5, lr}
 8000520:	f44f 6480 	mov.w	r4, #1024	; 0x400
 8000524:	f104 0432 	add.w	r4, r4, #50	; 0x32
 8000528:	f010 4500 	ands.w	r5, r0, #2147483648	; 0x80000000
 800052c:	bf48      	it	mi
 800052e:	4240      	negmi	r0, r0
 8000530:	f04f 0100 	mov.w	r1, #0
 8000534:	e73e      	b.n	80003b4 <__adddf3+0x138>
 8000536:	bf00      	nop

08000538 <__aeabi_f2d>:
 8000538:	0042      	lsls	r2, r0, #1
 800053a:	ea4f 01e2 	mov.w	r1, r2, asr #3
 800053e:	ea4f 0131 	mov.w	r1, r1, rrx
 8000542:	ea4f 7002 	mov.w	r0, r2, lsl #28
 8000546:	bf1f      	itttt	ne
 8000548:	f012 437f 	andsne.w	r3, r2, #4278190080	; 0xff000000
 800054c:	f093 4f7f 	teqne	r3, #4278190080	; 0xff000000
 8000550:	f081 5160 	eorne.w	r1, r1, #939524096	; 0x38000000
 8000554:	4770      	bxne	lr
 8000556:	f032 427f 	bics.w	r2, r2, #4278190080	; 0xff000000
 800055a:	bf08      	it	eq
 800055c:	4770      	bxeq	lr
 800055e:	f093 4f7f 	teq	r3, #4278190080	; 0xff000000
 8000562:	bf04      	itt	eq
 8000564:	f441 2100 	orreq.w	r1, r1, #524288	; 0x80000
 8000568:	4770      	bxeq	lr
 800056a:	b530      	push	{r4, r5, lr}
 800056c:	f44f 7460 	mov.w	r4, #896	; 0x380
 8000570:	f001 4500 	and.w	r5, r1, #2147483648	; 0x80000000
 8000574:	f021 4100 	bic.w	r1, r1, #2147483648	; 0x80000000
 8000578:	e71c      	b.n	80003b4 <__adddf3+0x138>
 800057a:	bf00      	nop

0800057c <__aeabi_ul2d>:
 800057c:	ea50 0201 	orrs.w	r2, r0, r1
 8000580:	bf08      	it	eq
 8000582:	4770      	bxeq	lr
 8000584:	b530      	push	{r4, r5, lr}
 8000586:	f04f 0500 	mov.w	r5, #0
 800058a:	e00a      	b.n	80005a2 <__aeabi_l2d+0x16>

0800058c <__aeabi_l2d>:
 800058c:	ea50 0201 	orrs.w	r2, r0, r1
 8000590:	bf08      	it	eq
 8000592:	4770      	bxeq	lr
 8000594:	b530      	push	{r4, r5, lr}
 8000596:	f011 4500 	ands.w	r5, r1, #2147483648	; 0x80000000
 800059a:	d502      	bpl.n	80005a2 <__aeabi_l2d+0x16>
 800059c:	4240      	negs	r0, r0
 800059e:	eb61 0141 	sbc.w	r1, r1, r1, lsl #1
 80005a2:	f44f 6480 	mov.w	r4, #1024	; 0x400
 80005a6:	f104 0432 	add.w	r4, r4, #50	; 0x32
 80005aa:	ea5f 5c91 	movs.w	ip, r1, lsr #22
 80005ae:	f43f aed8 	beq.w	8000362 <__adddf3+0xe6>
 80005b2:	f04f 0203 	mov.w	r2, #3
 80005b6:	ea5f 0cdc 	movs.w	ip, ip, lsr #3
 80005ba:	bf18      	it	ne
 80005bc:	3203      	addne	r2, #3
 80005be:	ea5f 0cdc 	movs.w	ip, ip, lsr #3
 80005c2:	bf18      	it	ne
 80005c4:	3203      	addne	r2, #3
 80005c6:	eb02 02dc 	add.w	r2, r2, ip, lsr #3
 80005ca:	f1c2 0320 	rsb	r3, r2, #32
 80005ce:	fa00 fc03 	lsl.w	ip, r0, r3
 80005d2:	fa20 f002 	lsr.w	r0, r0, r2
 80005d6:	fa01 fe03 	lsl.w	lr, r1, r3
 80005da:	ea40 000e 	orr.w	r0, r0, lr
 80005de:	fa21 f102 	lsr.w	r1, r1, r2
 80005e2:	4414      	add	r4, r2
 80005e4:	e6bd      	b.n	8000362 <__adddf3+0xe6>
 80005e6:	bf00      	nop

080005e8 <__aeabi_dmul>:
 80005e8:	b570      	push	{r4, r5, r6, lr}
 80005ea:	f04f 0cff 	mov.w	ip, #255	; 0xff
 80005ee:	f44c 6ce0 	orr.w	ip, ip, #1792	; 0x700
 80005f2:	ea1c 5411 	ands.w	r4, ip, r1, lsr #20
 80005f6:	bf1d      	ittte	ne
 80005f8:	ea1c 5513 	andsne.w	r5, ip, r3, lsr #20
 80005fc:	ea94 0f0c 	teqne	r4, ip
 8000600:	ea95 0f0c 	teqne	r5, ip
 8000604:	f000 f8de 	bleq	80007c4 <__aeabi_dmul+0x1dc>
 8000608:	442c      	add	r4, r5
 800060a:	ea81 0603 	eor.w	r6, r1, r3
 800060e:	ea21 514c 	bic.w	r1, r1, ip, lsl #21
 8000612:	ea23 534c 	bic.w	r3, r3, ip, lsl #21
 8000616:	ea50 3501 	orrs.w	r5, r0, r1, lsl #12
 800061a:	bf18      	it	ne
 800061c:	ea52 3503 	orrsne.w	r5, r2, r3, lsl #12
 8000620:	f441 1180 	orr.w	r1, r1, #1048576	; 0x100000
 8000624:	f443 1380 	orr.w	r3, r3, #1048576	; 0x100000
 8000628:	d038      	beq.n	800069c <__aeabi_dmul+0xb4>
 800062a:	fba0 ce02 	umull	ip, lr, r0, r2
 800062e:	f04f 0500 	mov.w	r5, #0
 8000632:	fbe1 e502 	umlal	lr, r5, r1, r2
 8000636:	f006 4200 	and.w	r2, r6, #2147483648	; 0x80000000
 800063a:	fbe0 e503 	umlal	lr, r5, r0, r3
 800063e:	f04f 0600 	mov.w	r6, #0
 8000642:	fbe1 5603 	umlal	r5, r6, r1, r3
 8000646:	f09c 0f00 	teq	ip, #0
 800064a:	bf18      	it	ne
 800064c:	f04e 0e01 	orrne.w	lr, lr, #1
 8000650:	f1a4 04ff 	sub.w	r4, r4, #255	; 0xff
 8000654:	f5b6 7f00 	cmp.w	r6, #512	; 0x200
 8000658:	f564 7440 	sbc.w	r4, r4, #768	; 0x300
 800065c:	d204      	bcs.n	8000668 <__aeabi_dmul+0x80>
 800065e:	ea5f 0e4e 	movs.w	lr, lr, lsl #1
 8000662:	416d      	adcs	r5, r5
 8000664:	eb46 0606 	adc.w	r6, r6, r6
 8000668:	ea42 21c6 	orr.w	r1, r2, r6, lsl #11
 800066c:	ea41 5155 	orr.w	r1, r1, r5, lsr #21
 8000670:	ea4f 20c5 	mov.w	r0, r5, lsl #11
 8000674:	ea40 505e 	orr.w	r0, r0, lr, lsr #21
 8000678:	ea4f 2ece 	mov.w	lr, lr, lsl #11
 800067c:	f1b4 0cfd 	subs.w	ip, r4, #253	; 0xfd
 8000680:	bf88      	it	hi
 8000682:	f5bc 6fe0 	cmphi.w	ip, #1792	; 0x700
 8000686:	d81e      	bhi.n	80006c6 <__aeabi_dmul+0xde>
 8000688:	f1be 4f00 	cmp.w	lr, #2147483648	; 0x80000000
 800068c:	bf08      	it	eq
 800068e:	ea5f 0e50 	movseq.w	lr, r0, lsr #1
 8000692:	f150 0000 	adcs.w	r0, r0, #0
 8000696:	eb41 5104 	adc.w	r1, r1, r4, lsl #20
 800069a:	bd70      	pop	{r4, r5, r6, pc}
 800069c:	f006 4600 	and.w	r6, r6, #2147483648	; 0x80000000
 80006a0:	ea46 0101 	orr.w	r1, r6, r1
 80006a4:	ea40 0002 	orr.w	r0, r0, r2
 80006a8:	ea81 0103 	eor.w	r1, r1, r3
 80006ac:	ebb4 045c 	subs.w	r4, r4, ip, lsr #1
 80006b0:	bfc2      	ittt	gt
 80006b2:	ebd4 050c 	rsbsgt	r5, r4, ip
 80006b6:	ea41 5104 	orrgt.w	r1, r1, r4, lsl #20
 80006ba:	bd70      	popgt	{r4, r5, r6, pc}
 80006bc:	f441 1180 	orr.w	r1, r1, #1048576	; 0x100000
 80006c0:	f04f 0e00 	mov.w	lr, #0
 80006c4:	3c01      	subs	r4, #1
 80006c6:	f300 80ab 	bgt.w	8000820 <__aeabi_dmul+0x238>
 80006ca:	f114 0f36 	cmn.w	r4, #54	; 0x36
 80006ce:	bfde      	ittt	le
 80006d0:	2000      	movle	r0, #0
 80006d2:	f001 4100 	andle.w	r1, r1, #2147483648	; 0x80000000
 80006d6:	bd70      	pople	{r4, r5, r6, pc}
 80006d8:	f1c4 0400 	rsb	r4, r4, #0
 80006dc:	3c20      	subs	r4, #32
 80006de:	da35      	bge.n	800074c <__aeabi_dmul+0x164>
 80006e0:	340c      	adds	r4, #12
 80006e2:	dc1b      	bgt.n	800071c <__aeabi_dmul+0x134>
 80006e4:	f104 0414 	add.w	r4, r4, #20
 80006e8:	f1c4 0520 	rsb	r5, r4, #32
 80006ec:	fa00 f305 	lsl.w	r3, r0, r5
 80006f0:	fa20 f004 	lsr.w	r0, r0, r4
 80006f4:	fa01 f205 	lsl.w	r2, r1, r5
 80006f8:	ea40 0002 	orr.w	r0, r0, r2
 80006fc:	f001 4200 	and.w	r2, r1, #2147483648	; 0x80000000
 8000700:	f021 4100 	bic.w	r1, r1, #2147483648	; 0x80000000
 8000704:	eb10 70d3 	adds.w	r0, r0, r3, lsr #31
 8000708:	fa21 f604 	lsr.w	r6, r1, r4
 800070c:	eb42 0106 	adc.w	r1, r2, r6
 8000710:	ea5e 0e43 	orrs.w	lr, lr, r3, lsl #1
 8000714:	bf08      	it	eq
 8000716:	ea20 70d3 	biceq.w	r0, r0, r3, lsr #31
 800071a:	bd70      	pop	{r4, r5, r6, pc}
 800071c:	f1c4 040c 	rsb	r4, r4, #12
 8000720:	f1c4 0520 	rsb	r5, r4, #32
 8000724:	fa00 f304 	lsl.w	r3, r0, r4
 8000728:	fa20 f005 	lsr.w	r0, r0, r5
 800072c:	fa01 f204 	lsl.w	r2, r1, r4
 8000730:	ea40 0002 	orr.w	r0, r0, r2
 8000734:	f001 4100 	and.w	r1, r1, #2147483648	; 0x80000000
 8000738:	eb10 70d3 	adds.w	r0, r0, r3, lsr #31
 800073c:	f141 0100 	adc.w	r1, r1, #0
 8000740:	ea5e 0e43 	orrs.w	lr, lr, r3, lsl #1
 8000744:	bf08      	it	eq
 8000746:	ea20 70d3 	biceq.w	r0, r0, r3, lsr #31
 800074a:	bd70      	pop	{r4, r5, r6, pc}
 800074c:	f1c4 0520 	rsb	r5, r4, #32
 8000750:	fa00 f205 	lsl.w	r2, r0, r5
 8000754:	ea4e 0e02 	orr.w	lr, lr, r2
 8000758:	fa20 f304 	lsr.w	r3, r0, r4
 800075c:	fa01 f205 	lsl.w	r2, r1, r5
 8000760:	ea43 0302 	orr.w	r3, r3, r2
 8000764:	fa21 f004 	lsr.w	r0, r1, r4
 8000768:	f001 4100 	and.w	r1, r1, #2147483648	; 0x80000000
 800076c:	fa21 f204 	lsr.w	r2, r1, r4
 8000770:	ea20 0002 	bic.w	r0, r0, r2
 8000774:	eb00 70d3 	add.w	r0, r0, r3, lsr #31
 8000778:	ea5e 0e43 	orrs.w	lr, lr, r3, lsl #1
 800077c:	bf08      	it	eq
 800077e:	ea20 70d3 	biceq.w	r0, r0, r3, lsr #31
 8000782:	bd70      	pop	{r4, r5, r6, pc}
 8000784:	f094 0f00 	teq	r4, #0
 8000788:	d10f      	bne.n	80007aa <__aeabi_dmul+0x1c2>
 800078a:	f001 4600 	and.w	r6, r1, #2147483648	; 0x80000000
 800078e:	0040      	lsls	r0, r0, #1
 8000790:	eb41 0101 	adc.w	r1, r1, r1
 8000794:	f411 1f80 	tst.w	r1, #1048576	; 0x100000
 8000798:	bf08      	it	eq
 800079a:	3c01      	subeq	r4, #1
 800079c:	d0f7      	beq.n	800078e <__aeabi_dmul+0x1a6>
 800079e:	ea41 0106 	orr.w	r1, r1, r6
 80007a2:	f095 0f00 	teq	r5, #0
 80007a6:	bf18      	it	ne
 80007a8:	4770      	bxne	lr
 80007aa:	f003 4600 	and.w	r6, r3, #2147483648	; 0x80000000
 80007ae:	0052      	lsls	r2, r2, #1
 80007b0:	eb43 0303 	adc.w	r3, r3, r3
 80007b4:	f413 1f80 	tst.w	r3, #1048576	; 0x100000
 80007b8:	bf08      	it	eq
 80007ba:	3d01      	subeq	r5, #1
 80007bc:	d0f7      	beq.n	80007ae <__aeabi_dmul+0x1c6>
 80007be:	ea43 0306 	orr.w	r3, r3, r6
 80007c2:	4770      	bx	lr
 80007c4:	ea94 0f0c 	teq	r4, ip
 80007c8:	ea0c 5513 	and.w	r5, ip, r3, lsr #20
 80007cc:	bf18      	it	ne
 80007ce:	ea95 0f0c 	teqne	r5, ip
 80007d2:	d00c      	beq.n	80007ee <__aeabi_dmul+0x206>
 80007d4:	ea50 0641 	orrs.w	r6, r0, r1, lsl #1
 80007d8:	bf18      	it	ne
 80007da:	ea52 0643 	orrsne.w	r6, r2, r3, lsl #1
 80007de:	d1d1      	bne.n	8000784 <__aeabi_dmul+0x19c>
 80007e0:	ea81 0103 	eor.w	r1, r1, r3
 80007e4:	f001 4100 	and.w	r1, r1, #2147483648	; 0x80000000
 80007e8:	f04f 0000 	mov.w	r0, #0
 80007ec:	bd70      	pop	{r4, r5, r6, pc}
 80007ee:	ea50 0641 	orrs.w	r6, r0, r1, lsl #1
 80007f2:	bf06      	itte	eq
 80007f4:	4610      	moveq	r0, r2
 80007f6:	4619      	moveq	r1, r3
 80007f8:	ea52 0643 	orrsne.w	r6, r2, r3, lsl #1
 80007fc:	d019      	beq.n	8000832 <__aeabi_dmul+0x24a>
 80007fe:	ea94 0f0c 	teq	r4, ip
 8000802:	d102      	bne.n	800080a <__aeabi_dmul+0x222>
 8000804:	ea50 3601 	orrs.w	r6, r0, r1, lsl #12
 8000808:	d113      	bne.n	8000832 <__aeabi_dmul+0x24a>
 800080a:	ea95 0f0c 	teq	r5, ip
 800080e:	d105      	bne.n	800081c <__aeabi_dmul+0x234>
 8000810:	ea52 3603 	orrs.w	r6, r2, r3, lsl #12
 8000814:	bf1c      	itt	ne
 8000816:	4610      	movne	r0, r2
 8000818:	4619      	movne	r1, r3
 800081a:	d10a      	bne.n	8000832 <__aeabi_dmul+0x24a>
 800081c:	ea81 0103 	eor.w	r1, r1, r3
 8000820:	f001 4100 	and.w	r1, r1, #2147483648	; 0x80000000
 8000824:	f041 41fe 	orr.w	r1, r1, #2130706432	; 0x7f000000
 8000828:	f441 0170 	orr.w	r1, r1, #15728640	; 0xf00000
 800082c:	f04f 0000 	mov.w	r0, #0
 8000830:	bd70      	pop	{r4, r5, r6, pc}
 8000832:	f041 41fe 	orr.w	r1, r1, #2130706432	; 0x7f000000
 8000836:	f441 0178 	orr.w	r1, r1, #16252928	; 0xf80000
 800083a:	bd70      	pop	{r4, r5, r6, pc}

0800083c <__aeabi_ddiv>:
 800083c:	b570      	push	{r4, r5, r6, lr}
 800083e:	f04f 0cff 	mov.w	ip, #255	; 0xff
 8000842:	f44c 6ce0 	orr.w	ip, ip, #1792	; 0x700
 8000846:	ea1c 5411 	ands.w	r4, ip, r1, lsr #20
 800084a:	bf1d      	ittte	ne
 800084c:	ea1c 5513 	andsne.w	r5, ip, r3, lsr #20
 8000850:	ea94 0f0c 	teqne	r4, ip
 8000854:	ea95 0f0c 	teqne	r5, ip
 8000858:	f000 f8a7 	bleq	80009aa <__aeabi_ddiv+0x16e>
 800085c:	eba4 0405 	sub.w	r4, r4, r5
 8000860:	ea81 0e03 	eor.w	lr, r1, r3
 8000864:	ea52 3503 	orrs.w	r5, r2, r3, lsl #12
 8000868:	ea4f 3101 	mov.w	r1, r1, lsl #12
 800086c:	f000 8088 	beq.w	8000980 <__aeabi_ddiv+0x144>
 8000870:	ea4f 3303 	mov.w	r3, r3, lsl #12
 8000874:	f04f 5580 	mov.w	r5, #268435456	; 0x10000000
 8000878:	ea45 1313 	orr.w	r3, r5, r3, lsr #4
 800087c:	ea43 6312 	orr.w	r3, r3, r2, lsr #24
 8000880:	ea4f 2202 	mov.w	r2, r2, lsl #8
 8000884:	ea45 1511 	orr.w	r5, r5, r1, lsr #4
 8000888:	ea45 6510 	orr.w	r5, r5, r0, lsr #24
 800088c:	ea4f 2600 	mov.w	r6, r0, lsl #8
 8000890:	f00e 4100 	and.w	r1, lr, #2147483648	; 0x80000000
 8000894:	429d      	cmp	r5, r3
 8000896:	bf08      	it	eq
 8000898:	4296      	cmpeq	r6, r2
 800089a:	f144 04fd 	adc.w	r4, r4, #253	; 0xfd
 800089e:	f504 7440 	add.w	r4, r4, #768	; 0x300
 80008a2:	d202      	bcs.n	80008aa <__aeabi_ddiv+0x6e>
 80008a4:	085b      	lsrs	r3, r3, #1
 80008a6:	ea4f 0232 	mov.w	r2, r2, rrx
 80008aa:	1ab6      	subs	r6, r6, r2
 80008ac:	eb65 0503 	sbc.w	r5, r5, r3
 80008b0:	085b      	lsrs	r3, r3, #1
 80008b2:	ea4f 0232 	mov.w	r2, r2, rrx
 80008b6:	f44f 1080 	mov.w	r0, #1048576	; 0x100000
 80008ba:	f44f 2c00 	mov.w	ip, #524288	; 0x80000
 80008be:	ebb6 0e02 	subs.w	lr, r6, r2
 80008c2:	eb75 0e03 	sbcs.w	lr, r5, r3
 80008c6:	bf22      	ittt	cs
 80008c8:	1ab6      	subcs	r6, r6, r2
 80008ca:	4675      	movcs	r5, lr
 80008cc:	ea40 000c 	orrcs.w	r0, r0, ip
 80008d0:	085b      	lsrs	r3, r3, #1
 80008d2:	ea4f 0232 	mov.w	r2, r2, rrx
 80008d6:	ebb6 0e02 	subs.w	lr, r6, r2
 80008da:	eb75 0e03 	sbcs.w	lr, r5, r3
 80008de:	bf22      	ittt	cs
 80008e0:	1ab6      	subcs	r6, r6, r2
 80008e2:	4675      	movcs	r5, lr
 80008e4:	ea40 005c 	orrcs.w	r0, r0, ip, lsr #1
 80008e8:	085b      	lsrs	r3, r3, #1
 80008ea:	ea4f 0232 	mov.w	r2, r2, rrx
 80008ee:	ebb6 0e02 	subs.w	lr, r6, r2
 80008f2:	eb75 0e03 	sbcs.w	lr, r5, r3
 80008f6:	bf22      	ittt	cs
 80008f8:	1ab6      	subcs	r6, r6, r2
 80008fa:	4675      	movcs	r5, lr
 80008fc:	ea40 009c 	orrcs.w	r0, r0, ip, lsr #2
 8000900:	085b      	lsrs	r3, r3, #1
 8000902:	ea4f 0232 	mov.w	r2, r2, rrx
 8000906:	ebb6 0e02 	subs.w	lr, r6, r2
 800090a:	eb75 0e03 	sbcs.w	lr, r5, r3
 800090e:	bf22      	ittt	cs
 8000910:	1ab6      	subcs	r6, r6, r2
 8000912:	4675      	movcs	r5, lr
 8000914:	ea40 00dc 	orrcs.w	r0, r0, ip, lsr #3
 8000918:	ea55 0e06 	orrs.w	lr, r5, r6
 800091c:	d018      	beq.n	8000950 <__aeabi_ddiv+0x114>
 800091e:	ea4f 1505 	mov.w	r5, r5, lsl #4
 8000922:	ea45 7516 	orr.w	r5, r5, r6, lsr #28
 8000926:	ea4f 1606 	mov.w	r6, r6, lsl #4
 800092a:	ea4f 03c3 	mov.w	r3, r3, lsl #3
 800092e:	ea43 7352 	orr.w	r3, r3, r2, lsr #29
 8000932:	ea4f 02c2 	mov.w	r2, r2, lsl #3
 8000936:	ea5f 1c1c 	movs.w	ip, ip, lsr #4
 800093a:	d1c0      	bne.n	80008be <__aeabi_ddiv+0x82>
 800093c:	f411 1f80 	tst.w	r1, #1048576	; 0x100000
 8000940:	d10b      	bne.n	800095a <__aeabi_ddiv+0x11e>
 8000942:	ea41 0100 	orr.w	r1, r1, r0
 8000946:	f04f 0000 	mov.w	r0, #0
 800094a:	f04f 4c00 	mov.w	ip, #2147483648	; 0x80000000
 800094e:	e7b6      	b.n	80008be <__aeabi_ddiv+0x82>
 8000950:	f411 1f80 	tst.w	r1, #1048576	; 0x100000
 8000954:	bf04      	itt	eq
 8000956:	4301      	orreq	r1, r0
 8000958:	2000      	moveq	r0, #0
 800095a:	f1b4 0cfd 	subs.w	ip, r4, #253	; 0xfd
 800095e:	bf88      	it	hi
 8000960:	f5bc 6fe0 	cmphi.w	ip, #1792	; 0x700
 8000964:	f63f aeaf 	bhi.w	80006c6 <__aeabi_dmul+0xde>
 8000968:	ebb5 0c03 	subs.w	ip, r5, r3
 800096c:	bf04      	itt	eq
 800096e:	ebb6 0c02 	subseq.w	ip, r6, r2
 8000972:	ea5f 0c50 	movseq.w	ip, r0, lsr #1
 8000976:	f150 0000 	adcs.w	r0, r0, #0
 800097a:	eb41 5104 	adc.w	r1, r1, r4, lsl #20
 800097e:	bd70      	pop	{r4, r5, r6, pc}
 8000980:	f00e 4e00 	and.w	lr, lr, #2147483648	; 0x80000000
 8000984:	ea4e 3111 	orr.w	r1, lr, r1, lsr #12
 8000988:	eb14 045c 	adds.w	r4, r4, ip, lsr #1
 800098c:	bfc2      	ittt	gt
 800098e:	ebd4 050c 	rsbsgt	r5, r4, ip
 8000992:	ea41 5104 	orrgt.w	r1, r1, r4, lsl #20
 8000996:	bd70      	popgt	{r4, r5, r6, pc}
 8000998:	f441 1180 	orr.w	r1, r1, #1048576	; 0x100000
 800099c:	f04f 0e00 	mov.w	lr, #0
 80009a0:	3c01      	subs	r4, #1
 80009a2:	e690      	b.n	80006c6 <__aeabi_dmul+0xde>
 80009a4:	ea45 0e06 	orr.w	lr, r5, r6
 80009a8:	e68d      	b.n	80006c6 <__aeabi_dmul+0xde>
 80009aa:	ea0c 5513 	and.w	r5, ip, r3, lsr #20
 80009ae:	ea94 0f0c 	teq	r4, ip
 80009b2:	bf08      	it	eq
 80009b4:	ea95 0f0c 	teqeq	r5, ip
 80009b8:	f43f af3b 	beq.w	8000832 <__aeabi_dmul+0x24a>
 80009bc:	ea94 0f0c 	teq	r4, ip
 80009c0:	d10a      	bne.n	80009d8 <__aeabi_ddiv+0x19c>
 80009c2:	ea50 3401 	orrs.w	r4, r0, r1, lsl #12
 80009c6:	f47f af34 	bne.w	8000832 <__aeabi_dmul+0x24a>
 80009ca:	ea95 0f0c 	teq	r5, ip
 80009ce:	f47f af25 	bne.w	800081c <__aeabi_dmul+0x234>
 80009d2:	4610      	mov	r0, r2
 80009d4:	4619      	mov	r1, r3
 80009d6:	e72c      	b.n	8000832 <__aeabi_dmul+0x24a>
 80009d8:	ea95 0f0c 	teq	r5, ip
 80009dc:	d106      	bne.n	80009ec <__aeabi_ddiv+0x1b0>
 80009de:	ea52 3503 	orrs.w	r5, r2, r3, lsl #12
 80009e2:	f43f aefd 	beq.w	80007e0 <__aeabi_dmul+0x1f8>
 80009e6:	4610      	mov	r0, r2
 80009e8:	4619      	mov	r1, r3
 80009ea:	e722      	b.n	8000832 <__aeabi_dmul+0x24a>
 80009ec:	ea50 0641 	orrs.w	r6, r0, r1, lsl #1
 80009f0:	bf18      	it	ne
 80009f2:	ea52 0643 	orrsne.w	r6, r2, r3, lsl #1
 80009f6:	f47f aec5 	bne.w	8000784 <__aeabi_dmul+0x19c>
 80009fa:	ea50 0441 	orrs.w	r4, r0, r1, lsl #1
 80009fe:	f47f af0d 	bne.w	800081c <__aeabi_dmul+0x234>
 8000a02:	ea52 0543 	orrs.w	r5, r2, r3, lsl #1
 8000a06:	f47f aeeb 	bne.w	80007e0 <__aeabi_dmul+0x1f8>
 8000a0a:	e712      	b.n	8000832 <__aeabi_dmul+0x24a>

08000a0c <__gedf2>:
 8000a0c:	f04f 3cff 	mov.w	ip, #4294967295	; 0xffffffff
 8000a10:	e006      	b.n	8000a20 <__cmpdf2+0x4>
 8000a12:	bf00      	nop

08000a14 <__ledf2>:
 8000a14:	f04f 0c01 	mov.w	ip, #1
 8000a18:	e002      	b.n	8000a20 <__cmpdf2+0x4>
 8000a1a:	bf00      	nop

08000a1c <__cmpdf2>:
 8000a1c:	f04f 0c01 	mov.w	ip, #1
 8000a20:	f84d cd04 	str.w	ip, [sp, #-4]!
 8000a24:	ea4f 0c41 	mov.w	ip, r1, lsl #1
 8000a28:	ea7f 5c6c 	mvns.w	ip, ip, asr #21
 8000a2c:	ea4f 0c43 	mov.w	ip, r3, lsl #1
 8000a30:	bf18      	it	ne
 8000a32:	ea7f 5c6c 	mvnsne.w	ip, ip, asr #21
 8000a36:	d01b      	beq.n	8000a70 <__cmpdf2+0x54>
 8000a38:	b001      	add	sp, #4
 8000a3a:	ea50 0c41 	orrs.w	ip, r0, r1, lsl #1
 8000a3e:	bf0c      	ite	eq
 8000a40:	ea52 0c43 	orrseq.w	ip, r2, r3, lsl #1
 8000a44:	ea91 0f03 	teqne	r1, r3
 8000a48:	bf02      	ittt	eq
 8000a4a:	ea90 0f02 	teqeq	r0, r2
 8000a4e:	2000      	moveq	r0, #0
 8000a50:	4770      	bxeq	lr
 8000a52:	f110 0f00 	cmn.w	r0, #0
 8000a56:	ea91 0f03 	teq	r1, r3
 8000a5a:	bf58      	it	pl
 8000a5c:	4299      	cmppl	r1, r3
 8000a5e:	bf08      	it	eq
 8000a60:	4290      	cmpeq	r0, r2
 8000a62:	bf2c      	ite	cs
 8000a64:	17d8      	asrcs	r0, r3, #31
 8000a66:	ea6f 70e3 	mvncc.w	r0, r3, asr #31
 8000a6a:	f040 0001 	orr.w	r0, r0, #1
 8000a6e:	4770      	bx	lr
 8000a70:	ea4f 0c41 	mov.w	ip, r1, lsl #1
 8000a74:	ea7f 5c6c 	mvns.w	ip, ip, asr #21
 8000a78:	d102      	bne.n	8000a80 <__cmpdf2+0x64>
 8000a7a:	ea50 3c01 	orrs.w	ip, r0, r1, lsl #12
 8000a7e:	d107      	bne.n	8000a90 <__cmpdf2+0x74>
 8000a80:	ea4f 0c43 	mov.w	ip, r3, lsl #1
 8000a84:	ea7f 5c6c 	mvns.w	ip, ip, asr #21
 8000a88:	d1d6      	bne.n	8000a38 <__cmpdf2+0x1c>
 8000a8a:	ea52 3c03 	orrs.w	ip, r2, r3, lsl #12
 8000a8e:	d0d3      	beq.n	8000a38 <__cmpdf2+0x1c>
 8000a90:	f85d 0b04 	ldr.w	r0, [sp], #4
 8000a94:	4770      	bx	lr
 8000a96:	bf00      	nop

08000a98 <__aeabi_cdrcmple>:
 8000a98:	4684      	mov	ip, r0
 8000a9a:	4610      	mov	r0, r2
 8000a9c:	4662      	mov	r2, ip
 8000a9e:	468c      	mov	ip, r1
 8000aa0:	4619      	mov	r1, r3
 8000aa2:	4663      	mov	r3, ip
 8000aa4:	e000      	b.n	8000aa8 <__aeabi_cdcmpeq>
 8000aa6:	bf00      	nop

08000aa8 <__aeabi_cdcmpeq>:
 8000aa8:	b501      	push	{r0, lr}
 8000aaa:	f7ff ffb7 	bl	8000a1c <__cmpdf2>
 8000aae:	2800      	cmp	r0, #0
 8000ab0:	bf48      	it	mi
 8000ab2:	f110 0f00 	cmnmi.w	r0, #0
 8000ab6:	bd01      	pop	{r0, pc}

08000ab8 <__aeabi_dcmpeq>:
 8000ab8:	f84d ed08 	str.w	lr, [sp, #-8]!
 8000abc:	f7ff fff4 	bl	8000aa8 <__aeabi_cdcmpeq>
 8000ac0:	bf0c      	ite	eq
 8000ac2:	2001      	moveq	r0, #1
 8000ac4:	2000      	movne	r0, #0
 8000ac6:	f85d fb08 	ldr.w	pc, [sp], #8
 8000aca:	bf00      	nop

08000acc <__aeabi_dcmplt>:
 8000acc:	f84d ed08 	str.w	lr, [sp, #-8]!
 8000ad0:	f7ff ffea 	bl	8000aa8 <__aeabi_cdcmpeq>
 8000ad4:	bf34      	ite	cc
 8000ad6:	2001      	movcc	r0, #1
 8000ad8:	2000      	movcs	r0, #0
 8000ada:	f85d fb08 	ldr.w	pc, [sp], #8
 8000ade:	bf00      	nop

08000ae0 <__aeabi_dcmple>:
 8000ae0:	f84d ed08 	str.w	lr, [sp, #-8]!
 8000ae4:	f7ff ffe0 	bl	8000aa8 <__aeabi_cdcmpeq>
 8000ae8:	bf94      	ite	ls
 8000aea:	2001      	movls	r0, #1
 8000aec:	2000      	movhi	r0, #0
 8000aee:	f85d fb08 	ldr.w	pc, [sp], #8
 8000af2:	bf00      	nop

08000af4 <__aeabi_dcmpge>:
 8000af4:	f84d ed08 	str.w	lr, [sp, #-8]!
 8000af8:	f7ff ffce 	bl	8000a98 <__aeabi_cdrcmple>
 8000afc:	bf94      	ite	ls
 8000afe:	2001      	movls	r0, #1
 8000b00:	2000      	movhi	r0, #0
 8000b02:	f85d fb08 	ldr.w	pc, [sp], #8
 8000b06:	bf00      	nop

08000b08 <__aeabi_dcmpgt>:
 8000b08:	f84d ed08 	str.w	lr, [sp, #-8]!
 8000b0c:	f7ff ffc4 	bl	8000a98 <__aeabi_cdrcmple>
 8000b10:	bf34      	ite	cc
 8000b12:	2001      	movcc	r0, #1
 8000b14:	2000      	movcs	r0, #0
 8000b16:	f85d fb08 	ldr.w	pc, [sp], #8
 8000b1a:	bf00      	nop

08000b1c <__aeabi_dcmpun>:
 8000b1c:	ea4f 0c41 	mov.w	ip, r1, lsl #1
 8000b20:	ea7f 5c6c 	mvns.w	ip, ip, asr #21
 8000b24:	d102      	bne.n	8000b2c <__aeabi_dcmpun+0x10>
 8000b26:	ea50 3c01 	orrs.w	ip, r0, r1, lsl #12
 8000b2a:	d10a      	bne.n	8000b42 <__aeabi_dcmpun+0x26>
 8000b2c:	ea4f 0c43 	mov.w	ip, r3, lsl #1
 8000b30:	ea7f 5c6c 	mvns.w	ip, ip, asr #21
 8000b34:	d102      	bne.n	8000b3c <__aeabi_dcmpun+0x20>
 8000b36:	ea52 3c03 	orrs.w	ip, r2, r3, lsl #12
 8000b3a:	d102      	bne.n	8000b42 <__aeabi_dcmpun+0x26>
 8000b3c:	f04f 0000 	mov.w	r0, #0
 8000b40:	4770      	bx	lr
 8000b42:	f04f 0001 	mov.w	r0, #1
 8000b46:	4770      	bx	lr

08000b48 <__aeabi_d2iz>:
 8000b48:	ea4f 0241 	mov.w	r2, r1, lsl #1
 8000b4c:	f512 1200 	adds.w	r2, r2, #2097152	; 0x200000
 8000b50:	d215      	bcs.n	8000b7e <__aeabi_d2iz+0x36>
 8000b52:	d511      	bpl.n	8000b78 <__aeabi_d2iz+0x30>
 8000b54:	f46f 7378 	mvn.w	r3, #992	; 0x3e0
 8000b58:	ebb3 5262 	subs.w	r2, r3, r2, asr #21
 8000b5c:	d912      	bls.n	8000b84 <__aeabi_d2iz+0x3c>
 8000b5e:	ea4f 23c1 	mov.w	r3, r1, lsl #11
 8000b62:	f043 4300 	orr.w	r3, r3, #2147483648	; 0x80000000
 8000b66:	ea43 5350 	orr.w	r3, r3, r0, lsr #21
 8000b6a:	f011 4f00 	tst.w	r1, #2147483648	; 0x80000000
 8000b6e:	fa23 f002 	lsr.w	r0, r3, r2
 8000b72:	bf18      	it	ne
 8000b74:	4240      	negne	r0, r0
 8000b76:	4770      	bx	lr
 8000b78:	f04f 0000 	mov.w	r0, #0
 8000b7c:	4770      	bx	lr
 8000b7e:	ea50 3001 	orrs.w	r0, r0, r1, lsl #12
 8000b82:	d105      	bne.n	8000b90 <__aeabi_d2iz+0x48>
 8000b84:	f011 4000 	ands.w	r0, r1, #2147483648	; 0x80000000
 8000b88:	bf08      	it	eq
 8000b8a:	f06f 4000 	mvneq.w	r0, #2147483648	; 0x80000000
 8000b8e:	4770      	bx	lr
 8000b90:	f04f 0000 	mov.w	r0, #0
 8000b94:	4770      	bx	lr
 8000b96:	bf00      	nop

08000b98 <__aeabi_d2uiz>:
 8000b98:	004a      	lsls	r2, r1, #1
 8000b9a:	d211      	bcs.n	8000bc0 <__aeabi_d2uiz+0x28>
 8000b9c:	f512 1200 	adds.w	r2, r2, #2097152	; 0x200000
 8000ba0:	d211      	bcs.n	8000bc6 <__aeabi_d2uiz+0x2e>
 8000ba2:	d50d      	bpl.n	8000bc0 <__aeabi_d2uiz+0x28>
 8000ba4:	f46f 7378 	mvn.w	r3, #992	; 0x3e0
 8000ba8:	ebb3 5262 	subs.w	r2, r3, r2, asr #21
 8000bac:	d40e      	bmi.n	8000bcc <__aeabi_d2uiz+0x34>
 8000bae:	ea4f 23c1 	mov.w	r3, r1, lsl #11
 8000bb2:	f043 4300 	orr.w	r3, r3, #2147483648	; 0x80000000
 8000bb6:	ea43 5350 	orr.w	r3, r3, r0, lsr #21
 8000bba:	fa23 f002 	lsr.w	r0, r3, r2
 8000bbe:	4770      	bx	lr
 8000bc0:	f04f 0000 	mov.w	r0, #0
 8000bc4:	4770      	bx	lr
 8000bc6:	ea50 3001 	orrs.w	r0, r0, r1, lsl #12
 8000bca:	d102      	bne.n	8000bd2 <__aeabi_d2uiz+0x3a>
 8000bcc:	f04f 30ff 	mov.w	r0, #4294967295	; 0xffffffff
 8000bd0:	4770      	bx	lr
 8000bd2:	f04f 0000 	mov.w	r0, #0
 8000bd6:	4770      	bx	lr

08000bd8 <__aeabi_d2f>:
 8000bd8:	ea4f 0241 	mov.w	r2, r1, lsl #1
 8000bdc:	f1b2 43e0 	subs.w	r3, r2, #1879048192	; 0x70000000
 8000be0:	bf24      	itt	cs
 8000be2:	f5b3 1c00 	subscs.w	ip, r3, #2097152	; 0x200000
 8000be6:	f1dc 5cfe 	rsbscs	ip, ip, #532676608	; 0x1fc00000
 8000bea:	d90d      	bls.n	8000c08 <__aeabi_d2f+0x30>
 8000bec:	f001 4c00 	and.w	ip, r1, #2147483648	; 0x80000000
 8000bf0:	ea4f 02c0 	mov.w	r2, r0, lsl #3
 8000bf4:	ea4c 7050 	orr.w	r0, ip, r0, lsr #29
 8000bf8:	f1b2 4f00 	cmp.w	r2, #2147483648	; 0x80000000
 8000bfc:	eb40 0083 	adc.w	r0, r0, r3, lsl #2
 8000c00:	bf08      	it	eq
 8000c02:	f020 0001 	biceq.w	r0, r0, #1
 8000c06:	4770      	bx	lr
 8000c08:	f011 4f80 	tst.w	r1, #1073741824	; 0x40000000
 8000c0c:	d121      	bne.n	8000c52 <__aeabi_d2f+0x7a>
 8000c0e:	f113 7238 	adds.w	r2, r3, #48234496	; 0x2e00000
 8000c12:	bfbc      	itt	lt
 8000c14:	f001 4000 	andlt.w	r0, r1, #2147483648	; 0x80000000
 8000c18:	4770      	bxlt	lr
 8000c1a:	f441 1180 	orr.w	r1, r1, #1048576	; 0x100000
 8000c1e:	ea4f 5252 	mov.w	r2, r2, lsr #21
 8000c22:	f1c2 0218 	rsb	r2, r2, #24
 8000c26:	f1c2 0c20 	rsb	ip, r2, #32
 8000c2a:	fa10 f30c 	lsls.w	r3, r0, ip
 8000c2e:	fa20 f002 	lsr.w	r0, r0, r2
 8000c32:	bf18      	it	ne
 8000c34:	f040 0001 	orrne.w	r0, r0, #1
 8000c38:	ea4f 23c1 	mov.w	r3, r1, lsl #11
 8000c3c:	ea4f 23d3 	mov.w	r3, r3, lsr #11
 8000c40:	fa03 fc0c 	lsl.w	ip, r3, ip
 8000c44:	ea40 000c 	orr.w	r0, r0, ip
 8000c48:	fa23 f302 	lsr.w	r3, r3, r2
 8000c4c:	ea4f 0343 	mov.w	r3, r3, lsl #1
 8000c50:	e7cc      	b.n	8000bec <__aeabi_d2f+0x14>
 8000c52:	ea7f 5362 	mvns.w	r3, r2, asr #21
 8000c56:	d107      	bne.n	8000c68 <__aeabi_d2f+0x90>
 8000c58:	ea50 3301 	orrs.w	r3, r0, r1, lsl #12
 8000c5c:	bf1e      	ittt	ne
 8000c5e:	f04f 40fe 	movne.w	r0, #2130706432	; 0x7f000000
 8000c62:	f440 0040 	orrne.w	r0, r0, #12582912	; 0xc00000
 8000c66:	4770      	bxne	lr
 8000c68:	f001 4000 	and.w	r0, r1, #2147483648	; 0x80000000
 8000c6c:	f040 40fe 	orr.w	r0, r0, #2130706432	; 0x7f000000
 8000c70:	f440 0000 	orr.w	r0, r0, #8388608	; 0x800000
 8000c74:	4770      	bx	lr
 8000c76:	bf00      	nop

08000c78 <__aeabi_uldivmod>:
 8000c78:	b953      	cbnz	r3, 8000c90 <__aeabi_uldivmod+0x18>
 8000c7a:	b94a      	cbnz	r2, 8000c90 <__aeabi_uldivmod+0x18>
 8000c7c:	2900      	cmp	r1, #0
 8000c7e:	bf08      	it	eq
 8000c80:	2800      	cmpeq	r0, #0
 8000c82:	bf1c      	itt	ne
 8000c84:	f04f 31ff 	movne.w	r1, #4294967295	; 0xffffffff
 8000c88:	f04f 30ff 	movne.w	r0, #4294967295	; 0xffffffff
 8000c8c:	f000 b974 	b.w	8000f78 <__aeabi_idiv0>
 8000c90:	f1ad 0c08 	sub.w	ip, sp, #8
 8000c94:	e96d ce04 	strd	ip, lr, [sp, #-16]!
 8000c98:	f000 f806 	bl	8000ca8 <__udivmoddi4>
 8000c9c:	f8dd e004 	ldr.w	lr, [sp, #4]
 8000ca0:	e9dd 2302 	ldrd	r2, r3, [sp, #8]
 8000ca4:	b004      	add	sp, #16
 8000ca6:	4770      	bx	lr

08000ca8 <__udivmoddi4>:
 8000ca8:	e92d 47f0 	stmdb	sp!, {r4, r5, r6, r7, r8, r9, sl, lr}
 8000cac:	9d08      	ldr	r5, [sp, #32]
 8000cae:	4604      	mov	r4, r0
 8000cb0:	468e      	mov	lr, r1
 8000cb2:	2b00      	cmp	r3, #0
 8000cb4:	d14d      	bne.n	8000d52 <__udivmoddi4+0xaa>
 8000cb6:	428a      	cmp	r2, r1
 8000cb8:	4694      	mov	ip, r2
 8000cba:	d969      	bls.n	8000d90 <__udivmoddi4+0xe8>
 8000cbc:	fab2 f282 	clz	r2, r2
 8000cc0:	b152      	cbz	r2, 8000cd8 <__udivmoddi4+0x30>
 8000cc2:	fa01 f302 	lsl.w	r3, r1, r2
 8000cc6:	f1c2 0120 	rsb	r1, r2, #32
 8000cca:	fa20 f101 	lsr.w	r1, r0, r1
 8000cce:	fa0c fc02 	lsl.w	ip, ip, r2
 8000cd2:	ea41 0e03 	orr.w	lr, r1, r3
 8000cd6:	4094      	lsls	r4, r2
 8000cd8:	ea4f 481c 	mov.w	r8, ip, lsr #16
 8000cdc:	0c21      	lsrs	r1, r4, #16
 8000cde:	fbbe f6f8 	udiv	r6, lr, r8
 8000ce2:	fa1f f78c 	uxth.w	r7, ip
 8000ce6:	fb08 e316 	mls	r3, r8, r6, lr
 8000cea:	ea41 4303 	orr.w	r3, r1, r3, lsl #16
 8000cee:	fb06 f107 	mul.w	r1, r6, r7
 8000cf2:	4299      	cmp	r1, r3
 8000cf4:	d90a      	bls.n	8000d0c <__udivmoddi4+0x64>
 8000cf6:	eb1c 0303 	adds.w	r3, ip, r3
 8000cfa:	f106 30ff 	add.w	r0, r6, #4294967295	; 0xffffffff
 8000cfe:	f080 811f 	bcs.w	8000f40 <__udivmoddi4+0x298>
 8000d02:	4299      	cmp	r1, r3
 8000d04:	f240 811c 	bls.w	8000f40 <__udivmoddi4+0x298>
 8000d08:	3e02      	subs	r6, #2
 8000d0a:	4463      	add	r3, ip
 8000d0c:	1a5b      	subs	r3, r3, r1
 8000d0e:	b2a4      	uxth	r4, r4
 8000d10:	fbb3 f0f8 	udiv	r0, r3, r8
 8000d14:	fb08 3310 	mls	r3, r8, r0, r3
 8000d18:	ea44 4403 	orr.w	r4, r4, r3, lsl #16
 8000d1c:	fb00 f707 	mul.w	r7, r0, r7
 8000d20:	42a7      	cmp	r7, r4
 8000d22:	d90a      	bls.n	8000d3a <__udivmoddi4+0x92>
 8000d24:	eb1c 0404 	adds.w	r4, ip, r4
 8000d28:	f100 33ff 	add.w	r3, r0, #4294967295	; 0xffffffff
 8000d2c:	f080 810a 	bcs.w	8000f44 <__udivmoddi4+0x29c>
 8000d30:	42a7      	cmp	r7, r4
 8000d32:	f240 8107 	bls.w	8000f44 <__udivmoddi4+0x29c>
 8000d36:	4464      	add	r4, ip
 8000d38:	3802      	subs	r0, #2
 8000d3a:	ea40 4006 	orr.w	r0, r0, r6, lsl #16
 8000d3e:	1be4      	subs	r4, r4, r7
 8000d40:	2600      	movs	r6, #0
 8000d42:	b11d      	cbz	r5, 8000d4c <__udivmoddi4+0xa4>
 8000d44:	40d4      	lsrs	r4, r2
 8000d46:	2300      	movs	r3, #0
 8000d48:	e9c5 4300 	strd	r4, r3, [r5]
 8000d4c:	4631      	mov	r1, r6
 8000d4e:	e8bd 87f0 	ldmia.w	sp!, {r4, r5, r6, r7, r8, r9, sl, pc}
 8000d52:	428b      	cmp	r3, r1
 8000d54:	d909      	bls.n	8000d6a <__udivmoddi4+0xc2>
 8000d56:	2d00      	cmp	r5, #0
 8000d58:	f000 80ef 	beq.w	8000f3a <__udivmoddi4+0x292>
 8000d5c:	2600      	movs	r6, #0
 8000d5e:	e9c5 0100 	strd	r0, r1, [r5]
 8000d62:	4630      	mov	r0, r6
 8000d64:	4631      	mov	r1, r6
 8000d66:	e8bd 87f0 	ldmia.w	sp!, {r4, r5, r6, r7, r8, r9, sl, pc}
 8000d6a:	fab3 f683 	clz	r6, r3
 8000d6e:	2e00      	cmp	r6, #0
 8000d70:	d14a      	bne.n	8000e08 <__udivmoddi4+0x160>
 8000d72:	428b      	cmp	r3, r1
 8000d74:	d302      	bcc.n	8000d7c <__udivmoddi4+0xd4>
 8000d76:	4282      	cmp	r2, r0
 8000d78:	f200 80f9 	bhi.w	8000f6e <__udivmoddi4+0x2c6>
 8000d7c:	1a84      	subs	r4, r0, r2
 8000d7e:	eb61 0303 	sbc.w	r3, r1, r3
 8000d82:	2001      	movs	r0, #1
 8000d84:	469e      	mov	lr, r3
 8000d86:	2d00      	cmp	r5, #0
 8000d88:	d0e0      	beq.n	8000d4c <__udivmoddi4+0xa4>
 8000d8a:	e9c5 4e00 	strd	r4, lr, [r5]
 8000d8e:	e7dd      	b.n	8000d4c <__udivmoddi4+0xa4>
 8000d90:	b902      	cbnz	r2, 8000d94 <__udivmoddi4+0xec>
 8000d92:	deff      	udf	#255	; 0xff
 8000d94:	fab2 f282 	clz	r2, r2
 8000d98:	2a00      	cmp	r2, #0
 8000d9a:	f040 8092 	bne.w	8000ec2 <__udivmoddi4+0x21a>
 8000d9e:	eba1 010c 	sub.w	r1, r1, ip
 8000da2:	ea4f 471c 	mov.w	r7, ip, lsr #16
 8000da6:	fa1f fe8c 	uxth.w	lr, ip
 8000daa:	2601      	movs	r6, #1
 8000dac:	0c20      	lsrs	r0, r4, #16
 8000dae:	fbb1 f3f7 	udiv	r3, r1, r7
 8000db2:	fb07 1113 	mls	r1, r7, r3, r1
 8000db6:	ea40 4101 	orr.w	r1, r0, r1, lsl #16
 8000dba:	fb0e f003 	mul.w	r0, lr, r3
 8000dbe:	4288      	cmp	r0, r1
 8000dc0:	d908      	bls.n	8000dd4 <__udivmoddi4+0x12c>
 8000dc2:	eb1c 0101 	adds.w	r1, ip, r1
 8000dc6:	f103 38ff 	add.w	r8, r3, #4294967295	; 0xffffffff
 8000dca:	d202      	bcs.n	8000dd2 <__udivmoddi4+0x12a>
 8000dcc:	4288      	cmp	r0, r1
 8000dce:	f200 80cb 	bhi.w	8000f68 <__udivmoddi4+0x2c0>
 8000dd2:	4643      	mov	r3, r8
 8000dd4:	1a09      	subs	r1, r1, r0
 8000dd6:	b2a4      	uxth	r4, r4
 8000dd8:	fbb1 f0f7 	udiv	r0, r1, r7
 8000ddc:	fb07 1110 	mls	r1, r7, r0, r1
 8000de0:	ea44 4401 	orr.w	r4, r4, r1, lsl #16
 8000de4:	fb0e fe00 	mul.w	lr, lr, r0
 8000de8:	45a6      	cmp	lr, r4
 8000dea:	d908      	bls.n	8000dfe <__udivmoddi4+0x156>
 8000dec:	eb1c 0404 	adds.w	r4, ip, r4
 8000df0:	f100 31ff 	add.w	r1, r0, #4294967295	; 0xffffffff
 8000df4:	d202      	bcs.n	8000dfc <__udivmoddi4+0x154>
 8000df6:	45a6      	cmp	lr, r4
 8000df8:	f200 80bb 	bhi.w	8000f72 <__udivmoddi4+0x2ca>
 8000dfc:	4608      	mov	r0, r1
 8000dfe:	eba4 040e 	sub.w	r4, r4, lr
 8000e02:	ea40 4003 	orr.w	r0, r0, r3, lsl #16
 8000e06:	e79c      	b.n	8000d42 <__udivmoddi4+0x9a>
 8000e08:	f1c6 0720 	rsb	r7, r6, #32
 8000e0c:	40b3      	lsls	r3, r6
 8000e0e:	fa22 fc07 	lsr.w	ip, r2, r7
 8000e12:	ea4c 0c03 	orr.w	ip, ip, r3
 8000e16:	fa20 f407 	lsr.w	r4, r0, r7
 8000e1a:	fa01 f306 	lsl.w	r3, r1, r6
 8000e1e:	431c      	orrs	r4, r3
 8000e20:	40f9      	lsrs	r1, r7
 8000e22:	ea4f 491c 	mov.w	r9, ip, lsr #16
 8000e26:	fa00 f306 	lsl.w	r3, r0, r6
 8000e2a:	fbb1 f8f9 	udiv	r8, r1, r9
 8000e2e:	0c20      	lsrs	r0, r4, #16
 8000e30:	fa1f fe8c 	uxth.w	lr, ip
 8000e34:	fb09 1118 	mls	r1, r9, r8, r1
 8000e38:	ea40 4101 	orr.w	r1, r0, r1, lsl #16
 8000e3c:	fb08 f00e 	mul.w	r0, r8, lr
 8000e40:	4288      	cmp	r0, r1
 8000e42:	fa02 f206 	lsl.w	r2, r2, r6
 8000e46:	d90b      	bls.n	8000e60 <__udivmoddi4+0x1b8>
 8000e48:	eb1c 0101 	adds.w	r1, ip, r1
 8000e4c:	f108 3aff 	add.w	sl, r8, #4294967295	; 0xffffffff
 8000e50:	f080 8088 	bcs.w	8000f64 <__udivmoddi4+0x2bc>
 8000e54:	4288      	cmp	r0, r1
 8000e56:	f240 8085 	bls.w	8000f64 <__udivmoddi4+0x2bc>
 8000e5a:	f1a8 0802 	sub.w	r8, r8, #2
 8000e5e:	4461      	add	r1, ip
 8000e60:	1a09      	subs	r1, r1, r0
 8000e62:	b2a4      	uxth	r4, r4
 8000e64:	fbb1 f0f9 	udiv	r0, r1, r9
 8000e68:	fb09 1110 	mls	r1, r9, r0, r1
 8000e6c:	ea44 4101 	orr.w	r1, r4, r1, lsl #16
 8000e70:	fb00 fe0e 	mul.w	lr, r0, lr
 8000e74:	458e      	cmp	lr, r1
 8000e76:	d908      	bls.n	8000e8a <__udivmoddi4+0x1e2>
 8000e78:	eb1c 0101 	adds.w	r1, ip, r1
 8000e7c:	f100 34ff 	add.w	r4, r0, #4294967295	; 0xffffffff
 8000e80:	d26c      	bcs.n	8000f5c <__udivmoddi4+0x2b4>
 8000e82:	458e      	cmp	lr, r1
 8000e84:	d96a      	bls.n	8000f5c <__udivmoddi4+0x2b4>
 8000e86:	3802      	subs	r0, #2
 8000e88:	4461      	add	r1, ip
 8000e8a:	ea40 4008 	orr.w	r0, r0, r8, lsl #16
 8000e8e:	fba0 9402 	umull	r9, r4, r0, r2
 8000e92:	eba1 010e 	sub.w	r1, r1, lr
 8000e96:	42a1      	cmp	r1, r4
 8000e98:	46c8      	mov	r8, r9
 8000e9a:	46a6      	mov	lr, r4
 8000e9c:	d356      	bcc.n	8000f4c <__udivmoddi4+0x2a4>
 8000e9e:	d053      	beq.n	8000f48 <__udivmoddi4+0x2a0>
 8000ea0:	b15d      	cbz	r5, 8000eba <__udivmoddi4+0x212>
 8000ea2:	ebb3 0208 	subs.w	r2, r3, r8
 8000ea6:	eb61 010e 	sbc.w	r1, r1, lr
 8000eaa:	fa01 f707 	lsl.w	r7, r1, r7
 8000eae:	fa22 f306 	lsr.w	r3, r2, r6
 8000eb2:	40f1      	lsrs	r1, r6
 8000eb4:	431f      	orrs	r7, r3
 8000eb6:	e9c5 7100 	strd	r7, r1, [r5]
 8000eba:	2600      	movs	r6, #0
 8000ebc:	4631      	mov	r1, r6
 8000ebe:	e8bd 87f0 	ldmia.w	sp!, {r4, r5, r6, r7, r8, r9, sl, pc}
 8000ec2:	f1c2 0320 	rsb	r3, r2, #32
 8000ec6:	40d8      	lsrs	r0, r3
 8000ec8:	fa0c fc02 	lsl.w	ip, ip, r2
 8000ecc:	fa21 f303 	lsr.w	r3, r1, r3
 8000ed0:	4091      	lsls	r1, r2
 8000ed2:	4301      	orrs	r1, r0
 8000ed4:	ea4f 471c 	mov.w	r7, ip, lsr #16
 8000ed8:	fa1f fe8c 	uxth.w	lr, ip
 8000edc:	fbb3 f0f7 	udiv	r0, r3, r7
 8000ee0:	fb07 3610 	mls	r6, r7, r0, r3
 8000ee4:	0c0b      	lsrs	r3, r1, #16
 8000ee6:	ea43 4306 	orr.w	r3, r3, r6, lsl #16
 8000eea:	fb00 f60e 	mul.w	r6, r0, lr
 8000eee:	429e      	cmp	r6, r3
 8000ef0:	fa04 f402 	lsl.w	r4, r4, r2
 8000ef4:	d908      	bls.n	8000f08 <__udivmoddi4+0x260>
 8000ef6:	eb1c 0303 	adds.w	r3, ip, r3
 8000efa:	f100 38ff 	add.w	r8, r0, #4294967295	; 0xffffffff
 8000efe:	d22f      	bcs.n	8000f60 <__udivmoddi4+0x2b8>
 8000f00:	429e      	cmp	r6, r3
 8000f02:	d92d      	bls.n	8000f60 <__udivmoddi4+0x2b8>
 8000f04:	3802      	subs	r0, #2
 8000f06:	4463      	add	r3, ip
 8000f08:	1b9b      	subs	r3, r3, r6
 8000f0a:	b289      	uxth	r1, r1
 8000f0c:	fbb3 f6f7 	udiv	r6, r3, r7
 8000f10:	fb07 3316 	mls	r3, r7, r6, r3
 8000f14:	ea41 4103 	orr.w	r1, r1, r3, lsl #16
 8000f18:	fb06 f30e 	mul.w	r3, r6, lr
 8000f1c:	428b      	cmp	r3, r1
 8000f1e:	d908      	bls.n	8000f32 <__udivmoddi4+0x28a>
 8000f20:	eb1c 0101 	adds.w	r1, ip, r1
 8000f24:	f106 38ff 	add.w	r8, r6, #4294967295	; 0xffffffff
 8000f28:	d216      	bcs.n	8000f58 <__udivmoddi4+0x2b0>
 8000f2a:	428b      	cmp	r3, r1
 8000f2c:	d914      	bls.n	8000f58 <__udivmoddi4+0x2b0>
 8000f2e:	3e02      	subs	r6, #2
 8000f30:	4461      	add	r1, ip
 8000f32:	1ac9      	subs	r1, r1, r3
 8000f34:	ea46 4600 	orr.w	r6, r6, r0, lsl #16
 8000f38:	e738      	b.n	8000dac <__udivmoddi4+0x104>
 8000f3a:	462e      	mov	r6, r5
 8000f3c:	4628      	mov	r0, r5
 8000f3e:	e705      	b.n	8000d4c <__udivmoddi4+0xa4>
 8000f40:	4606      	mov	r6, r0
 8000f42:	e6e3      	b.n	8000d0c <__udivmoddi4+0x64>
 8000f44:	4618      	mov	r0, r3
 8000f46:	e6f8      	b.n	8000d3a <__udivmoddi4+0x92>
 8000f48:	454b      	cmp	r3, r9
 8000f4a:	d2a9      	bcs.n	8000ea0 <__udivmoddi4+0x1f8>
 8000f4c:	ebb9 0802 	subs.w	r8, r9, r2
 8000f50:	eb64 0e0c 	sbc.w	lr, r4, ip
 8000f54:	3801      	subs	r0, #1
 8000f56:	e7a3      	b.n	8000ea0 <__udivmoddi4+0x1f8>
 8000f58:	4646      	mov	r6, r8
 8000f5a:	e7ea      	b.n	8000f32 <__udivmoddi4+0x28a>
 8000f5c:	4620      	mov	r0, r4
 8000f5e:	e794      	b.n	8000e8a <__udivmoddi4+0x1e2>
 8000f60:	4640      	mov	r0, r8
 8000f62:	e7d1      	b.n	8000f08 <__udivmoddi4+0x260>
 8000f64:	46d0      	mov	r8, sl
 8000f66:	e77b      	b.n	8000e60 <__udivmoddi4+0x1b8>
 8000f68:	3b02      	subs	r3, #2
 8000f6a:	4461      	add	r1, ip
 8000f6c:	e732      	b.n	8000dd4 <__udivmoddi4+0x12c>
 8000f6e:	4630      	mov	r0, r6
 8000f70:	e709      	b.n	8000d86 <__udivmoddi4+0xde>
 8000f72:	4464      	add	r4, ip
 8000f74:	3802      	subs	r0, #2
 8000f76:	e742      	b.n	8000dfe <__udivmoddi4+0x156>

08000f78 <__aeabi_idiv0>:
 8000f78:	4770      	bx	lr
 8000f7a:	bf00      	nop

08000f7c <Tpoints>:
 8000f7c:	b530      	push	{r4, r5, lr}
 8000f7e:	ed2d 8b02 	vpush	{d8}
 8000f82:	4605      	mov	r5, r0
 8000f84:	b093      	sub	sp, #76	; 0x4c
 8000f86:	ee10 0a10 	vmov	r0, s0
 8000f8a:	f7ff fad5 	bl	8000538 <__aeabi_f2d>
 8000f8e:	ec41 0b10 	vmov	d0, r0, r1
 8000f92:	ec41 0b18 	vmov	d8, r0, r1
 8000f96:	f008 f923 	bl	80091e0 <cos>
 8000f9a:	ec51 0b10 	vmov	r0, r1, d0
 8000f9e:	f7ff fe1b 	bl	8000bd8 <__aeabi_d2f>
 8000fa2:	eeb0 0a48 	vmov.f32	s0, s16
 8000fa6:	eef0 0a68 	vmov.f32	s1, s17
 8000faa:	4604      	mov	r4, r0
 8000fac:	f008 f96c 	bl	8009288 <sin>
 8000fb0:	ec51 0b10 	vmov	r0, r1, d0
 8000fb4:	f7ff fe10 	bl	8000bd8 <__aeabi_d2f>
 8000fb8:	f04f 527e 	mov.w	r2, #1065353216	; 0x3f800000
 8000fbc:	ee07 0a90 	vmov	s15, r0
 8000fc0:	2300      	movs	r3, #0
 8000fc2:	9207      	str	r2, [sp, #28]
 8000fc4:	9211      	str	r2, [sp, #68]	; 0x44
 8000fc6:	2204      	movs	r2, #4
 8000fc8:	eef1 7a67 	vneg.f32	s15, s15
 8000fcc:	9303      	str	r3, [sp, #12]
 8000fce:	9004      	str	r0, [sp, #16]
 8000fd0:	9305      	str	r3, [sp, #20]
 8000fd2:	9306      	str	r3, [sp, #24]
 8000fd4:	9308      	str	r3, [sp, #32]
 8000fd6:	9309      	str	r3, [sp, #36]	; 0x24
 8000fd8:	930b      	str	r3, [sp, #44]	; 0x2c
 8000fda:	930d      	str	r3, [sp, #52]	; 0x34
 8000fdc:	930e      	str	r3, [sp, #56]	; 0x38
 8000fde:	930f      	str	r3, [sp, #60]	; 0x3c
 8000fe0:	9310      	str	r3, [sp, #64]	; 0x40
 8000fe2:	4611      	mov	r1, r2
 8000fe4:	ab02      	add	r3, sp, #8
 8000fe6:	4668      	mov	r0, sp
 8000fe8:	edcd 7a0a 	vstr	s15, [sp, #40]	; 0x28
 8000fec:	9402      	str	r4, [sp, #8]
 8000fee:	940c      	str	r4, [sp, #48]	; 0x30
 8000ff0:	f007 f860 	bl	80080b4 <arm_mat_init_f32>
 8000ff4:	462a      	mov	r2, r5
 8000ff6:	4629      	mov	r1, r5
 8000ff8:	4668      	mov	r0, sp
 8000ffa:	f006 fe79 	bl	8007cf0 <arm_mat_mult_f32>
 8000ffe:	b013      	add	sp, #76	; 0x4c
 8001000:	ecbd 8b02 	vpop	{d8}
 8001004:	bd30      	pop	{r4, r5, pc}
	...

08001008 <CurvePoints>:
 8001008:	e92d 4ff0 	stmdb	sp!, {r4, r5, r6, r7, r8, r9, sl, fp, lr}
 800100c:	ed2d 8b06 	vpush	{d8-d10}
 8001010:	edd0 7a0e 	vldr	s15, [r0, #56]	; 0x38
 8001014:	ed9f 8aac 	vldr	s16, [pc, #688]	; 80012c8 <CurvePoints+0x2c0>
 8001018:	f890 3034 	ldrb.w	r3, [r0, #52]	; 0x34
 800101c:	ee67 7a88 	vmul.f32	s15, s15, s16
 8001020:	b099      	sub	sp, #100	; 0x64
 8001022:	eec8 9a27 	vdiv.f32	s19, s16, s15
 8001026:	4604      	mov	r4, r0
 8001028:	468a      	mov	sl, r1
 800102a:	f100 0724 	add.w	r7, r0, #36	; 0x24
 800102e:	2b05      	cmp	r3, #5
 8001030:	d809      	bhi.n	8001046 <CurvePoints+0x3e>
 8001032:	e8df f003 	tbb	[pc, r3]
 8001036:	5f48      	.short	0x5f48
 8001038:	6a700355 	.word	0x6a700355
 800103c:	2300      	movs	r3, #0
 800103e:	e9c0 3309 	strd	r3, r3, [r0, #36]	; 0x24
 8001042:	e9c0 330b 	strd	r3, r3, [r0, #44]	; 0x2c
 8001046:	ed9f aaa1 	vldr	s20, [pc, #644]	; 80012cc <CurvePoints+0x2c4>
 800104a:	ed9f 9aa1 	vldr	s18, [pc, #644]	; 80012d0 <CurvePoints+0x2c8>
 800104e:	f04f 0820 	mov.w	r8, #32
 8001052:	eef3 aa09 	vmov.f32	s21, #57	; 0x41c80000  25.0
 8001056:	eef7 8a00 	vmov.f32	s17, #112	; 0x3f800000  1.0
 800105a:	f857 3b04 	ldr.w	r3, [r7], #4
 800105e:	f8da 9004 	ldr.w	r9, [sl, #4]
 8001062:	2b23      	cmp	r3, #35	; 0x23
 8001064:	bf84      	itt	hi
 8001066:	3b23      	subhi	r3, #35	; 0x23
 8001068:	f847 3c04 	strhi.w	r3, [r7, #-4]
 800106c:	f857 cc04 	ldr.w	ip, [r7, #-4]
 8001070:	f1a8 0e20 	sub.w	lr, r8, #32
 8001074:	f1a8 0b10 	sub.w	fp, r8, #16
 8001078:	f1bc 0f0a 	cmp.w	ip, #10
 800107c:	44ce      	add	lr, r9
 800107e:	44cb      	add	fp, r9
 8001080:	f200 80e8 	bhi.w	8001254 <CurvePoints+0x24c>
 8001084:	4e93      	ldr	r6, [pc, #588]	; (80012d4 <CurvePoints+0x2cc>)
 8001086:	ce0f      	ldmia	r6!, {r0, r1, r2, r3}
 8001088:	466d      	mov	r5, sp
 800108a:	c50f      	stmia	r5!, {r0, r1, r2, r3}
 800108c:	ce0f      	ldmia	r6!, {r0, r1, r2, r3}
 800108e:	c50f      	stmia	r5!, {r0, r1, r2, r3}
 8001090:	e896 000f 	ldmia.w	r6, {r0, r1, r2, r3}
 8001094:	ee07 ca90 	vmov	s15, ip
 8001098:	4e8f      	ldr	r6, [pc, #572]	; (80012d8 <CurvePoints+0x2d0>)
 800109a:	eeb8 7ae7 	vcvt.f32.s32	s14, s15
 800109e:	e885 000f 	stmia.w	r5, {r0, r1, r2, r3}
 80010a2:	eef2 7a04 	vmov.f32	s15, #36	; 0x41200000  10.0
 80010a6:	ce0f      	ldmia	r6!, {r0, r1, r2, r3}
 80010a8:	eec7 6a27 	vdiv.f32	s13, s14, s15
 80010ac:	ad0c      	add	r5, sp, #48	; 0x30
 80010ae:	c50f      	stmia	r5!, {r0, r1, r2, r3}
 80010b0:	ce0f      	ldmia	r6!, {r0, r1, r2, r3}
 80010b2:	c50f      	stmia	r5!, {r0, r1, r2, r3}
 80010b4:	e896 000f 	ldmia.w	r6, {r0, r1, r2, r3}
 80010b8:	e885 000f 	stmia.w	r5, {r0, r1, r2, r3}
 80010bc:	210b      	movs	r1, #11
 80010be:	466a      	mov	r2, sp
 80010c0:	ab0c      	add	r3, sp, #48	; 0x30
 80010c2:	2000      	movs	r0, #0
 80010c4:	e06f      	b.n	80011a6 <CurvePoints+0x19e>
 80010c6:	6a43      	ldr	r3, [r0, #36]	; 0x24
 80010c8:	f103 0211 	add.w	r2, r3, #17
 80010cc:	e9c0 230a 	strd	r2, r3, [r0, #40]	; 0x28
 80010d0:	3301      	adds	r3, #1
 80010d2:	6302      	str	r2, [r0, #48]	; 0x30
 80010d4:	6243      	str	r3, [r0, #36]	; 0x24
 80010d6:	2b22      	cmp	r3, #34	; 0x22
 80010d8:	d9b5      	bls.n	8001046 <CurvePoints+0x3e>
 80010da:	2300      	movs	r3, #0
 80010dc:	6263      	str	r3, [r4, #36]	; 0x24
 80010de:	e7b2      	b.n	8001046 <CurvePoints+0x3e>
 80010e0:	6a43      	ldr	r3, [r0, #36]	; 0x24
 80010e2:	6303      	str	r3, [r0, #48]	; 0x30
 80010e4:	f103 0211 	add.w	r2, r3, #17
 80010e8:	e9c0 220a 	strd	r2, r2, [r0, #40]	; 0x28
 80010ec:	3301      	adds	r3, #1
 80010ee:	6263      	str	r3, [r4, #36]	; 0x24
 80010f0:	2b23      	cmp	r3, #35	; 0x23
 80010f2:	e7f1      	b.n	80010d8 <CurvePoints+0xd0>
 80010f4:	6a43      	ldr	r3, [r0, #36]	; 0x24
 80010f6:	f103 0208 	add.w	r2, r3, #8
 80010fa:	6282      	str	r2, [r0, #40]	; 0x28
 80010fc:	f103 0210 	add.w	r2, r3, #16
 8001100:	62c2      	str	r2, [r0, #44]	; 0x2c
 8001102:	f103 0218 	add.w	r2, r3, #24
 8001106:	6322      	str	r2, [r4, #48]	; 0x30
 8001108:	e7f0      	b.n	80010ec <CurvePoints+0xe4>
 800110a:	6a43      	ldr	r3, [r0, #36]	; 0x24
 800110c:	6283      	str	r3, [r0, #40]	; 0x28
 800110e:	f103 0211 	add.w	r2, r3, #17
 8001112:	62c2      	str	r2, [r0, #44]	; 0x2c
 8001114:	e7f7      	b.n	8001106 <CurvePoints+0xfe>
 8001116:	6a03      	ldr	r3, [r0, #32]
 8001118:	2b0a      	cmp	r3, #10
 800111a:	d927      	bls.n	800116c <CurvePoints+0x164>
 800111c:	2b14      	cmp	r3, #20
 800111e:	d921      	bls.n	8001164 <CurvePoints+0x15c>
 8001120:	2b1e      	cmp	r3, #30
 8001122:	d91b      	bls.n	800115c <CurvePoints+0x154>
 8001124:	2b28      	cmp	r3, #40	; 0x28
 8001126:	d915      	bls.n	8001154 <CurvePoints+0x14c>
 8001128:	2b41      	cmp	r3, #65	; 0x41
 800112a:	d909      	bls.n	8001140 <CurvePoints+0x138>
 800112c:	2300      	movs	r3, #0
 800112e:	e9c0 3309 	strd	r3, r3, [r0, #36]	; 0x24
 8001132:	e9c0 330b 	strd	r3, r3, [r0, #44]	; 0x2c
 8001136:	6203      	str	r3, [r0, #32]
 8001138:	6a23      	ldr	r3, [r4, #32]
 800113a:	3301      	adds	r3, #1
 800113c:	6223      	str	r3, [r4, #32]
 800113e:	e782      	b.n	8001046 <CurvePoints+0x3e>
 8001140:	463b      	mov	r3, r7
 8001142:	f100 0134 	add.w	r1, r0, #52	; 0x34
 8001146:	681a      	ldr	r2, [r3, #0]
 8001148:	3201      	adds	r2, #1
 800114a:	f843 2b04 	str.w	r2, [r3], #4
 800114e:	4299      	cmp	r1, r3
 8001150:	d1f9      	bne.n	8001146 <CurvePoints+0x13e>
 8001152:	e7f1      	b.n	8001138 <CurvePoints+0x130>
 8001154:	6ac3      	ldr	r3, [r0, #44]	; 0x2c
 8001156:	3301      	adds	r3, #1
 8001158:	62c3      	str	r3, [r0, #44]	; 0x2c
 800115a:	e7ed      	b.n	8001138 <CurvePoints+0x130>
 800115c:	6a83      	ldr	r3, [r0, #40]	; 0x28
 800115e:	3301      	adds	r3, #1
 8001160:	6283      	str	r3, [r0, #40]	; 0x28
 8001162:	e7e9      	b.n	8001138 <CurvePoints+0x130>
 8001164:	6b03      	ldr	r3, [r0, #48]	; 0x30
 8001166:	3301      	adds	r3, #1
 8001168:	6303      	str	r3, [r0, #48]	; 0x30
 800116a:	e7e5      	b.n	8001138 <CurvePoints+0x130>
 800116c:	6a43      	ldr	r3, [r0, #36]	; 0x24
 800116e:	3301      	adds	r3, #1
 8001170:	6243      	str	r3, [r0, #36]	; 0x24
 8001172:	e7e1      	b.n	8001138 <CurvePoints+0x130>
 8001174:	ed92 6a00 	vldr	s12, [r2]
 8001178:	edd2 7a01 	vldr	s15, [r2, #4]
 800117c:	ee38 7ae6 	vsub.f32	s14, s17, s13
 8001180:	ee66 7aa7 	vmul.f32	s15, s13, s15
 8001184:	3304      	adds	r3, #4
 8001186:	eee7 7a06 	vfma.f32	s15, s14, s12
 800118a:	3204      	adds	r2, #4
 800118c:	3001      	adds	r0, #1
 800118e:	ed13 6a01 	vldr	s12, [r3, #-4]
 8001192:	ed42 7a01 	vstr	s15, [r2, #-4]
 8001196:	edd3 7a00 	vldr	s15, [r3]
 800119a:	ee66 7aa7 	vmul.f32	s15, s13, s15
 800119e:	eee7 7a06 	vfma.f32	s15, s14, s12
 80011a2:	ed43 7a01 	vstr	s15, [r3, #-4]
 80011a6:	4281      	cmp	r1, r0
 80011a8:	dce4      	bgt.n	8001174 <CurvePoints+0x16c>
 80011aa:	3901      	subs	r1, #1
 80011ac:	d187      	bne.n	80010be <CurvePoints+0xb6>
 80011ae:	9b00      	ldr	r3, [sp, #0]
 80011b0:	f8ce 3000 	str.w	r3, [lr]
 80011b4:	9b0c      	ldr	r3, [sp, #48]	; 0x30
 80011b6:	f8cb 3000 	str.w	r3, [fp]
 80011ba:	44c1      	add	r9, r8
 80011bc:	f108 0804 	add.w	r8, r8, #4
 80011c0:	4b46      	ldr	r3, [pc, #280]	; (80012dc <CurvePoints+0x2d4>)
 80011c2:	f8c9 3000 	str.w	r3, [r9]
 80011c6:	f1b8 0f30 	cmp.w	r8, #48	; 0x30
 80011ca:	edc9 8a04 	vstr	s17, [r9, #16]
 80011ce:	f47f af44 	bne.w	800105a <CurvePoints+0x52>
 80011d2:	ed94 0a06 	vldr	s0, [r4, #24]
 80011d6:	4650      	mov	r0, sl
 80011d8:	f7ff fed0 	bl	8000f7c <Tpoints>
 80011dc:	2220      	movs	r2, #32
 80011de:	2100      	movs	r1, #0
 80011e0:	a810      	add	r0, sp, #64	; 0x40
 80011e2:	f006 fff4 	bl	80081ce <memset>
 80011e6:	f04f 4300 	mov.w	r3, #2147483648	; 0x80000000
 80011ea:	930c      	str	r3, [sp, #48]	; 0x30
 80011ec:	930f      	str	r3, [sp, #60]	; 0x3c
 80011ee:	f8da 3004 	ldr.w	r3, [sl, #4]
 80011f2:	4a3b      	ldr	r2, [pc, #236]	; (80012e0 <CurvePoints+0x2d8>)
 80011f4:	eddf 5a3b 	vldr	s11, [pc, #236]	; 80012e4 <CurvePoints+0x2dc>
 80011f8:	920d      	str	r2, [sp, #52]	; 0x34
 80011fa:	920e      	str	r2, [sp, #56]	; 0x38
 80011fc:	f103 0110 	add.w	r1, r3, #16
 8001200:	aa0c      	add	r2, sp, #48	; 0x30
 8001202:	eeb3 7a0d 	vmov.f32	s14, #61	; 0x41e80000  29.0
 8001206:	2000      	movs	r0, #0
 8001208:	ed94 6a07 	vldr	s12, [r4, #28]
 800120c:	edd3 6a00 	vldr	s13, [r3]
 8001210:	ecf2 7a01 	vldmia	r2!, {s15}
 8001214:	eee6 7a26 	vfma.f32	s15, s12, s13
 8001218:	ece3 7a01 	vstmia	r3!, {s15}
 800121c:	ed94 6a07 	vldr	s12, [r4, #28]
 8001220:	edd3 6a03 	vldr	s13, [r3, #12]
 8001224:	eef0 7a65 	vmov.f32	s15, s11
 8001228:	eee6 7a66 	vfms.f32	s15, s12, s13
 800122c:	428b      	cmp	r3, r1
 800122e:	edd3 6a07 	vldr	s13, [r3, #28]
 8001232:	edc3 7a03 	vstr	s15, [r3, #12]
 8001236:	ed94 6a07 	vldr	s12, [r4, #28]
 800123a:	62d8      	str	r0, [r3, #44]	; 0x2c
 800123c:	eef0 7a47 	vmov.f32	s15, s14
 8001240:	eee6 7a66 	vfms.f32	s15, s12, s13
 8001244:	edc3 7a07 	vstr	s15, [r3, #28]
 8001248:	d1de      	bne.n	8001208 <CurvePoints+0x200>
 800124a:	b019      	add	sp, #100	; 0x64
 800124c:	ecbd 8b06 	vpop	{d8-d10}
 8001250:	e8bd 8ff0 	ldmia.w	sp!, {r4, r5, r6, r7, r8, r9, sl, fp, pc}
 8001254:	f1ac 0c0a 	sub.w	ip, ip, #10
 8001258:	ee07 ca90 	vmov	s15, ip
 800125c:	eef8 7a67 	vcvt.f32.u32	s15, s15
 8001260:	ee67 6a88 	vmul.f32	s13, s15, s16
 8001264:	ee86 7aaa 	vdiv.f32	s14, s13, s21
 8001268:	ee37 7a4a 	vsub.f32	s14, s14, s20
 800126c:	ed8e 7a00 	vstr	s14, [lr]
 8001270:	ed94 7a0e 	vldr	s14, [r4, #56]	; 0x38
 8001274:	ee67 7a87 	vmul.f32	s15, s15, s14
 8001278:	ee67 7aa9 	vmul.f32	s15, s15, s19
 800127c:	eec7 7a89 	vdiv.f32	s15, s15, s18
 8001280:	ee17 0a90 	vmov	r0, s15
 8001284:	f7ff f958 	bl	8000538 <__aeabi_f2d>
 8001288:	4602      	mov	r2, r0
 800128a:	460b      	mov	r3, r1
 800128c:	2000      	movs	r0, #0
 800128e:	4916      	ldr	r1, [pc, #88]	; (80012e8 <CurvePoints+0x2e0>)
 8001290:	f7fe fff2 	bl	8000278 <__aeabi_dsub>
 8001294:	a30a      	add	r3, pc, #40	; (adr r3, 80012c0 <CurvePoints+0x2b8>)
 8001296:	e9d3 2300 	ldrd	r2, r3, [r3]
 800129a:	f7ff f9a5 	bl	80005e8 <__aeabi_dmul>
 800129e:	ec41 0b10 	vmov	d0, r0, r1
 80012a2:	f007 ff9d 	bl	80091e0 <cos>
 80012a6:	4b11      	ldr	r3, [pc, #68]	; (80012ec <CurvePoints+0x2e4>)
 80012a8:	ec51 0b10 	vmov	r0, r1, d0
 80012ac:	2200      	movs	r2, #0
 80012ae:	f7ff f99b 	bl	80005e8 <__aeabi_dmul>
 80012b2:	f7ff fc91 	bl	8000bd8 <__aeabi_d2f>
 80012b6:	f8cb 0000 	str.w	r0, [fp]
 80012ba:	e77e      	b.n	80011ba <CurvePoints+0x1b2>
 80012bc:	f3af 8000 	nop.w
 80012c0:	60000000 	.word	0x60000000
 80012c4:	400921fb 	.word	0x400921fb
 80012c8:	420c0000 	.word	0x420c0000
 80012cc:	418c0000 	.word	0x418c0000
 80012d0:	445ac000 	.word	0x445ac000
 80012d4:	0800b4e8 	.word	0x0800b4e8
 80012d8:	0800b51c 	.word	0x0800b51c
 80012dc:	41400000 	.word	0x41400000
 80012e0:	41200000 	.word	0x41200000
 80012e4:	42dd0000 	.word	0x42dd0000
 80012e8:	3fe00000 	.word	0x3fe00000
 80012ec:	c0080000 	.word	0xc0080000

080012f0 <IK_leg>:
 80012f0:	e92d 4ff0 	stmdb	sp!, {r4, r5, r6, r7, r8, r9, sl, fp, lr}
 80012f4:	ed2d 8b08 	vpush	{d8-d11}
 80012f8:	460b      	mov	r3, r1
 80012fa:	b083      	sub	sp, #12
 80012fc:	3310      	adds	r3, #16
 80012fe:	4604      	mov	r4, r0
 8001300:	9100      	str	r1, [sp, #0]
 8001302:	4605      	mov	r5, r0
 8001304:	9301      	str	r3, [sp, #4]
 8001306:	9b00      	ldr	r3, [sp, #0]
 8001308:	ecb3 9a01 	vldmia	r3!, {s18}
 800130c:	ee19 0a10 	vmov	r0, s18
 8001310:	9300      	str	r3, [sp, #0]
 8001312:	f7ff f911 	bl	8000538 <__aeabi_f2d>
 8001316:	9b00      	ldr	r3, [sp, #0]
 8001318:	edd3 8a03 	vldr	s17, [r3, #12]
 800131c:	ec41 0b1a 	vmov	d10, r0, r1
 8001320:	ee18 0a90 	vmov	r0, s17
 8001324:	f7ff f908 	bl	8000538 <__aeabi_f2d>
 8001328:	9b00      	ldr	r3, [sp, #0]
 800132a:	4682      	mov	sl, r0
 800132c:	69d8      	ldr	r0, [r3, #28]
 800132e:	468b      	mov	fp, r1
 8001330:	f7ff f902 	bl	8000538 <__aeabi_f2d>
 8001334:	ec53 2b1a 	vmov	r2, r3, d10
 8001338:	4606      	mov	r6, r0
 800133a:	460f      	mov	r7, r1
 800133c:	ec51 0b1a 	vmov	r0, r1, d10
 8001340:	f7ff f952 	bl	80005e8 <__aeabi_dmul>
 8001344:	4652      	mov	r2, sl
 8001346:	4680      	mov	r8, r0
 8001348:	4689      	mov	r9, r1
 800134a:	465b      	mov	r3, fp
 800134c:	4650      	mov	r0, sl
 800134e:	4659      	mov	r1, fp
 8001350:	f7ff f94a 	bl	80005e8 <__aeabi_dmul>
 8001354:	4602      	mov	r2, r0
 8001356:	460b      	mov	r3, r1
 8001358:	4640      	mov	r0, r8
 800135a:	4649      	mov	r1, r9
 800135c:	f7fe ff8e 	bl	800027c <__adddf3>
 8001360:	4632      	mov	r2, r6
 8001362:	4680      	mov	r8, r0
 8001364:	4689      	mov	r9, r1
 8001366:	463b      	mov	r3, r7
 8001368:	4630      	mov	r0, r6
 800136a:	4639      	mov	r1, r7
 800136c:	f7ff f93c 	bl	80005e8 <__aeabi_dmul>
 8001370:	4602      	mov	r2, r0
 8001372:	460b      	mov	r3, r1
 8001374:	4640      	mov	r0, r8
 8001376:	4649      	mov	r1, r9
 8001378:	f7fe ff80 	bl	800027c <__adddf3>
 800137c:	ec41 0b10 	vmov	d0, r0, r1
 8001380:	f008 f886 	bl	8009490 <sqrt>
 8001384:	ec59 8b10 	vmov	r8, r9, d0
 8001388:	4bd3      	ldr	r3, [pc, #844]	; (80016d8 <IK_leg+0x3e8>)
 800138a:	ee10 0a10 	vmov	r0, s0
 800138e:	2200      	movs	r2, #0
 8001390:	4649      	mov	r1, r9
 8001392:	f7ff fbb9 	bl	8000b08 <__aeabi_dcmpgt>
 8001396:	2800      	cmp	r0, #0
 8001398:	d057      	beq.n	800144a <IK_leg+0x15a>
 800139a:	4642      	mov	r2, r8
 800139c:	464b      	mov	r3, r9
 800139e:	4630      	mov	r0, r6
 80013a0:	4639      	mov	r1, r7
 80013a2:	f7ff fa4b 	bl	800083c <__aeabi_ddiv>
 80013a6:	f7ff fc17 	bl	8000bd8 <__aeabi_d2f>
 80013aa:	f7ff f8c5 	bl	8000538 <__aeabi_f2d>
 80013ae:	4602      	mov	r2, r0
 80013b0:	460b      	mov	r3, r1
 80013b2:	ec43 2b1b 	vmov	d11, r2, r3
 80013b6:	4642      	mov	r2, r8
 80013b8:	464b      	mov	r3, r9
 80013ba:	f7ff fa3f 	bl	800083c <__aeabi_ddiv>
 80013be:	4602      	mov	r2, r0
 80013c0:	460b      	mov	r3, r1
 80013c2:	f7ff f911 	bl	80005e8 <__aeabi_dmul>
 80013c6:	4602      	mov	r2, r0
 80013c8:	460b      	mov	r3, r1
 80013ca:	2000      	movs	r0, #0
 80013cc:	49c3      	ldr	r1, [pc, #780]	; (80016dc <IK_leg+0x3ec>)
 80013ce:	f7fe ff53 	bl	8000278 <__aeabi_dsub>
 80013d2:	ec41 0b10 	vmov	d0, r0, r1
 80013d6:	f008 f85b 	bl	8009490 <sqrt>
 80013da:	ec51 0b10 	vmov	r0, r1, d0
 80013de:	f7ff fbfb 	bl	8000bd8 <__aeabi_d2f>
 80013e2:	f7ff f8a9 	bl	8000538 <__aeabi_f2d>
 80013e6:	4642      	mov	r2, r8
 80013e8:	464b      	mov	r3, r9
 80013ea:	4606      	mov	r6, r0
 80013ec:	460f      	mov	r7, r1
 80013ee:	f7ff f8fb 	bl	80005e8 <__aeabi_dmul>
 80013f2:	f7ff fbf1 	bl	8000bd8 <__aeabi_d2f>
 80013f6:	ee08 0a10 	vmov	s16, r0
 80013fa:	4bb7      	ldr	r3, [pc, #732]	; (80016d8 <IK_leg+0x3e8>)
 80013fc:	2200      	movs	r2, #0
 80013fe:	4630      	mov	r0, r6
 8001400:	4639      	mov	r1, r7
 8001402:	f7ff f8f1 	bl	80005e8 <__aeabi_dmul>
 8001406:	eec9 7a08 	vdiv.f32	s15, s18, s16
 800140a:	4606      	mov	r6, r0
 800140c:	460f      	mov	r7, r1
 800140e:	ee17 0a90 	vmov	r0, s15
 8001412:	f7ff f891 	bl	8000538 <__aeabi_f2d>
 8001416:	4632      	mov	r2, r6
 8001418:	463b      	mov	r3, r7
 800141a:	f7ff f8e5 	bl	80005e8 <__aeabi_dmul>
 800141e:	eec8 7a88 	vdiv.f32	s15, s17, s16
 8001422:	ec41 0b1a 	vmov	d10, r0, r1
 8001426:	ee17 0a90 	vmov	r0, s15
 800142a:	f7ff f885 	bl	8000538 <__aeabi_f2d>
 800142e:	4632      	mov	r2, r6
 8001430:	463b      	mov	r3, r7
 8001432:	f7ff f8d9 	bl	80005e8 <__aeabi_dmul>
 8001436:	4ba8      	ldr	r3, [pc, #672]	; (80016d8 <IK_leg+0x3e8>)
 8001438:	4682      	mov	sl, r0
 800143a:	468b      	mov	fp, r1
 800143c:	2200      	movs	r2, #0
 800143e:	ec51 0b1b 	vmov	r0, r1, d11
 8001442:	f7ff f8d1 	bl	80005e8 <__aeabi_dmul>
 8001446:	4606      	mov	r6, r0
 8001448:	460f      	mov	r7, r1
 800144a:	4632      	mov	r2, r6
 800144c:	463b      	mov	r3, r7
 800144e:	4630      	mov	r0, r6
 8001450:	4639      	mov	r1, r7
 8001452:	f7ff f8c9 	bl	80005e8 <__aeabi_dmul>
 8001456:	4652      	mov	r2, sl
 8001458:	4680      	mov	r8, r0
 800145a:	4689      	mov	r9, r1
 800145c:	465b      	mov	r3, fp
 800145e:	4650      	mov	r0, sl
 8001460:	4659      	mov	r1, fp
 8001462:	f7ff f8c1 	bl	80005e8 <__aeabi_dmul>
 8001466:	4602      	mov	r2, r0
 8001468:	460b      	mov	r3, r1
 800146a:	4640      	mov	r0, r8
 800146c:	4649      	mov	r1, r9
 800146e:	f7fe ff05 	bl	800027c <__adddf3>
 8001472:	a385      	add	r3, pc, #532	; (adr r3, 8001688 <IK_leg+0x398>)
 8001474:	e9d3 2300 	ldrd	r2, r3, [r3]
 8001478:	f7fe fefe 	bl	8000278 <__aeabi_dsub>
 800147c:	ec41 0b10 	vmov	d0, r0, r1
 8001480:	f008 f806 	bl	8009490 <sqrt>
 8001484:	ec47 6b11 	vmov	d1, r6, r7
 8001488:	ec59 8b10 	vmov	r8, r9, d0
 800148c:	ec4b ab10 	vmov	d0, sl, fp
 8001490:	f007 fffc 	bl	800948c <atan2>
 8001494:	4642      	mov	r2, r8
 8001496:	464b      	mov	r3, r9
 8001498:	4991      	ldr	r1, [pc, #580]	; (80016e0 <IK_leg+0x3f0>)
 800149a:	ed9f 8a92 	vldr	s16, [pc, #584]	; 80016e4 <IK_leg+0x3f4>
 800149e:	2000      	movs	r0, #0
 80014a0:	ec57 6b10 	vmov	r6, r7, d0
 80014a4:	f7ff f9ca 	bl	800083c <__aeabi_ddiv>
 80014a8:	ec41 0b10 	vmov	d0, r0, r1
 80014ac:	f007 ffba 	bl	8009424 <asin>
 80014b0:	4630      	mov	r0, r6
 80014b2:	ec53 2b10 	vmov	r2, r3, d0
 80014b6:	4639      	mov	r1, r7
 80014b8:	f7fe fede 	bl	8000278 <__aeabi_dsub>
 80014bc:	a374      	add	r3, pc, #464	; (adr r3, 8001690 <IK_leg+0x3a0>)
 80014be:	e9d3 2300 	ldrd	r2, r3, [r3]
 80014c2:	f7fe fedb 	bl	800027c <__adddf3>
 80014c6:	f7ff fb87 	bl	8000bd8 <__aeabi_d2f>
 80014ca:	f845 0b04 	str.w	r0, [r5], #4
 80014ce:	f7ff f833 	bl	8000538 <__aeabi_f2d>
 80014d2:	ec41 0b10 	vmov	d0, r0, r1
 80014d6:	f007 fed7 	bl	8009288 <sin>
 80014da:	4652      	mov	r2, sl
 80014dc:	ec51 0b10 	vmov	r0, r1, d0
 80014e0:	465b      	mov	r3, fp
 80014e2:	f7ff f881 	bl	80005e8 <__aeabi_dmul>
 80014e6:	4602      	mov	r2, r0
 80014e8:	460b      	mov	r3, r1
 80014ea:	f7ff f87d 	bl	80005e8 <__aeabi_dmul>
 80014ee:	ec53 2b1a 	vmov	r2, r3, d10
 80014f2:	4606      	mov	r6, r0
 80014f4:	460f      	mov	r7, r1
 80014f6:	ec51 0b1a 	vmov	r0, r1, d10
 80014fa:	f7ff f875 	bl	80005e8 <__aeabi_dmul>
 80014fe:	4602      	mov	r2, r0
 8001500:	460b      	mov	r3, r1
 8001502:	4630      	mov	r0, r6
 8001504:	4639      	mov	r1, r7
 8001506:	f7fe feb9 	bl	800027c <__adddf3>
 800150a:	ec41 0b10 	vmov	d0, r0, r1
 800150e:	f007 ffbf 	bl	8009490 <sqrt>
 8001512:	ec57 6b10 	vmov	r6, r7, d0
 8001516:	ee10 2a10 	vmov	r2, s0
 800151a:	ee10 0a10 	vmov	r0, s0
 800151e:	463b      	mov	r3, r7
 8001520:	4639      	mov	r1, r7
 8001522:	f7ff f861 	bl	80005e8 <__aeabi_dmul>
 8001526:	4602      	mov	r2, r0
 8001528:	460b      	mov	r3, r1
 800152a:	a15b      	add	r1, pc, #364	; (adr r1, 8001698 <IK_leg+0x3a8>)
 800152c:	e9d1 0100 	ldrd	r0, r1, [r1]
 8001530:	f7fe fea2 	bl	8000278 <__aeabi_dsub>
 8001534:	a35a      	add	r3, pc, #360	; (adr r3, 80016a0 <IK_leg+0x3b0>)
 8001536:	e9d3 2300 	ldrd	r2, r3, [r3]
 800153a:	f7ff f97f 	bl	800083c <__aeabi_ddiv>
 800153e:	ec41 0b10 	vmov	d0, r0, r1
 8001542:	f007 ff3b 	bl	80093bc <acos>
 8001546:	a358      	add	r3, pc, #352	; (adr r3, 80016a8 <IK_leg+0x3b8>)
 8001548:	e9d3 2300 	ldrd	r2, r3, [r3]
 800154c:	ec51 0b10 	vmov	r0, r1, d0
 8001550:	f7fe fe94 	bl	800027c <__adddf3>
 8001554:	f7ff fb40 	bl	8000bd8 <__aeabi_d2f>
 8001558:	eeb0 1a4a 	vmov.f32	s2, s20
 800155c:	eef0 1a6a 	vmov.f32	s3, s21
 8001560:	ec47 6b10 	vmov	d0, r6, r7
 8001564:	62e8      	str	r0, [r5, #44]	; 0x2c
 8001566:	f007 ff91 	bl	800948c <atan2>
 800156a:	edd5 7a0b 	vldr	s15, [r5, #44]	; 0x2c
 800156e:	ee78 7a67 	vsub.f32	s15, s16, s15
 8001572:	ec59 8b10 	vmov	r8, r9, d0
 8001576:	ee17 0a90 	vmov	r0, s15
 800157a:	f7fe ffdd 	bl	8000538 <__aeabi_f2d>
 800157e:	ec41 0b10 	vmov	d0, r0, r1
 8001582:	ec41 0b19 	vmov	d9, r0, r1
 8001586:	f007 fe7f 	bl	8009288 <sin>
 800158a:	ec57 6b10 	vmov	r6, r7, d0
 800158e:	eeb0 0a49 	vmov.f32	s0, s18
 8001592:	eef0 0a69 	vmov.f32	s1, s19
 8001596:	f007 fe23 	bl	80091e0 <cos>
 800159a:	a345      	add	r3, pc, #276	; (adr r3, 80016b0 <IK_leg+0x3c0>)
 800159c:	e9d3 2300 	ldrd	r2, r3, [r3]
 80015a0:	ec51 0b10 	vmov	r0, r1, d0
 80015a4:	f7ff f820 	bl	80005e8 <__aeabi_dmul>
 80015a8:	4b4f      	ldr	r3, [pc, #316]	; (80016e8 <IK_leg+0x3f8>)
 80015aa:	2200      	movs	r2, #0
 80015ac:	f7fe fe66 	bl	800027c <__adddf3>
 80015b0:	a33f      	add	r3, pc, #252	; (adr r3, 80016b0 <IK_leg+0x3c0>)
 80015b2:	e9d3 2300 	ldrd	r2, r3, [r3]
 80015b6:	ec41 0b19 	vmov	d9, r0, r1
 80015ba:	4630      	mov	r0, r6
 80015bc:	4639      	mov	r1, r7
 80015be:	f7ff f813 	bl	80005e8 <__aeabi_dmul>
 80015c2:	eeb0 1a49 	vmov.f32	s2, s18
 80015c6:	eef0 1a69 	vmov.f32	s3, s19
 80015ca:	ec41 0b10 	vmov	d0, r0, r1
 80015ce:	f007 ff5d 	bl	800948c <atan2>
 80015d2:	4640      	mov	r0, r8
 80015d4:	ec53 2b10 	vmov	r2, r3, d0
 80015d8:	4649      	mov	r1, r9
 80015da:	f7fe fe4d 	bl	8000278 <__aeabi_dsub>
 80015de:	a336      	add	r3, pc, #216	; (adr r3, 80016b8 <IK_leg+0x3c8>)
 80015e0:	e9d3 2300 	ldrd	r2, r3, [r3]
 80015e4:	f7fe fe4a 	bl	800027c <__adddf3>
 80015e8:	4602      	mov	r2, r0
 80015ea:	460b      	mov	r3, r1
 80015ec:	a134      	add	r1, pc, #208	; (adr r1, 80016c0 <IK_leg+0x3d0>)
 80015ee:	e9d1 0100 	ldrd	r0, r1, [r1]
 80015f2:	f7fe fe41 	bl	8000278 <__aeabi_dsub>
 80015f6:	f7ff faef 	bl	8000bd8 <__aeabi_d2f>
 80015fa:	ed95 7a0b 	vldr	s14, [r5, #44]	; 0x2c
 80015fe:	eddf 7a3b 	vldr	s15, [pc, #236]	; 80016ec <IK_leg+0x3fc>
 8001602:	60e8      	str	r0, [r5, #12]
 8001604:	ee77 7a67 	vsub.f32	s15, s14, s15
 8001608:	ee17 0a90 	vmov	r0, s15
 800160c:	f7fe ff94 	bl	8000538 <__aeabi_f2d>
 8001610:	ec41 0b10 	vmov	d0, r0, r1
 8001614:	f007 ff06 	bl	8009424 <asin>
 8001618:	a32b      	add	r3, pc, #172	; (adr r3, 80016c8 <IK_leg+0x3d8>)
 800161a:	e9d3 2300 	ldrd	r2, r3, [r3]
 800161e:	ec51 0b10 	vmov	r0, r1, d0
 8001622:	f7fe fe2b 	bl	800027c <__adddf3>
 8001626:	a32a      	add	r3, pc, #168	; (adr r3, 80016d0 <IK_leg+0x3e0>)
 8001628:	e9d3 2300 	ldrd	r2, r3, [r3]
 800162c:	f7fe fe24 	bl	8000278 <__aeabi_dsub>
 8001630:	f7ff fad2 	bl	8000bd8 <__aeabi_d2f>
 8001634:	e9dd 2300 	ldrd	r2, r3, [sp]
 8001638:	4293      	cmp	r3, r2
 800163a:	61e8      	str	r0, [r5, #28]
 800163c:	f47f ae63 	bne.w	8001306 <IK_leg+0x16>
 8001640:	edd4 7a06 	vldr	s15, [r4, #24]
 8001644:	ee78 7a67 	vsub.f32	s15, s16, s15
 8001648:	edc4 7a06 	vstr	s15, [r4, #24]
 800164c:	edd4 7a08 	vldr	s15, [r4, #32]
 8001650:	ee78 7a67 	vsub.f32	s15, s16, s15
 8001654:	edc4 7a08 	vstr	s15, [r4, #32]
 8001658:	edd4 7a09 	vldr	s15, [r4, #36]	; 0x24
 800165c:	ee78 7a67 	vsub.f32	s15, s16, s15
 8001660:	edc4 7a09 	vstr	s15, [r4, #36]	; 0x24
 8001664:	edd4 7a01 	vldr	s15, [r4, #4]
 8001668:	ee78 7a67 	vsub.f32	s15, s16, s15
 800166c:	edc4 7a01 	vstr	s15, [r4, #4]
 8001670:	edd4 7a03 	vldr	s15, [r4, #12]
 8001674:	ee38 8a67 	vsub.f32	s16, s16, s15
 8001678:	ed84 8a03 	vstr	s16, [r4, #12]
 800167c:	b003      	add	sp, #12
 800167e:	ecbd 8b08 	vpop	{d8-d11}
 8001682:	e8bd 8ff0 	ldmia.w	sp!, {r4, r5, r6, r7, r8, r9, sl, fp, pc}
 8001686:	bf00      	nop
 8001688:	00000000 	.word	0x00000000
 800168c:	408a4800 	.word	0x408a4800
 8001690:	a0000000 	.word	0xa0000000
 8001694:	3fe0ff04 	.word	0x3fe0ff04
 8001698:	40000000 	.word	0x40000000
 800169c:	40c9de58 	.word	0x40c9de58
 80016a0:	c0000000 	.word	0xc0000000
 80016a4:	40c261cc 	.word	0x40c261cc
 80016a8:	a0000000 	.word	0xa0000000
 80016ac:	3fb99999 	.word	0x3fb99999
 80016b0:	c0000000 	.word	0xc0000000
 80016b4:	40594ccc 	.word	0x40594ccc
 80016b8:	c0000000 	.word	0xc0000000
 80016bc:	3ff4cccc 	.word	0x3ff4cccc
 80016c0:	60000000 	.word	0x60000000
 80016c4:	400921fb 	.word	0x400921fb
 80016c8:	e0000000 	.word	0xe0000000
 80016cc:	3ff4f1a6 	.word	0x3ff4f1a6
 80016d0:	5d638866 	.word	0x5d638866
 80016d4:	3fcb46dc 	.word	0x3fcb46dc
 80016d8:	40668000 	.word	0x40668000
 80016dc:	3ff00000 	.word	0x3ff00000
 80016e0:	403d0000 	.word	0x403d0000
 80016e4:	40490fdb 	.word	0x40490fdb
 80016e8:	40474000 	.word	0x40474000
 80016ec:	3fa46690 	.word	0x3fa46690

080016f0 <TransformMatrix>:
 80016f0:	e92d 4ff0 	stmdb	sp!, {r4, r5, r6, r7, r8, r9, sl, fp, lr}
 80016f4:	ed2d 8b06 	vpush	{d8-d10}
 80016f8:	4605      	mov	r5, r0
 80016fa:	ed90 aa00 	vldr	s20, [r0]
 80016fe:	edd0 9a01 	vldr	s19, [r0, #4]
 8001702:	ed90 9a02 	vldr	s18, [r0, #8]
 8001706:	b0cf      	sub	sp, #316	; 0x13c
 8001708:	460c      	mov	r4, r1
 800170a:	2a00      	cmp	r2, #0
 800170c:	f040 80e1 	bne.w	80018d2 <TransformMatrix+0x1e2>
 8001710:	6900      	ldr	r0, [r0, #16]
 8001712:	f7fe ff11 	bl	8000538 <__aeabi_f2d>
 8001716:	ec41 0b10 	vmov	d0, r0, r1
 800171a:	ec41 0b18 	vmov	d8, r0, r1
 800171e:	f007 fd5f 	bl	80091e0 <cos>
 8001722:	ec5b ab10 	vmov	sl, fp, d0
 8001726:	eeb0 0a48 	vmov.f32	s0, s16
 800172a:	eef0 0a68 	vmov.f32	s1, s17
 800172e:	f007 fdab 	bl	8009288 <sin>
 8001732:	68e8      	ldr	r0, [r5, #12]
 8001734:	ed8d 0b00 	vstr	d0, [sp]
 8001738:	f7fe fefe 	bl	8000538 <__aeabi_f2d>
 800173c:	ec41 0b10 	vmov	d0, r0, r1
 8001740:	ec41 0b18 	vmov	d8, r0, r1
 8001744:	f007 fd4c 	bl	80091e0 <cos>
 8001748:	ed8d 0b02 	vstr	d0, [sp, #8]
 800174c:	eeb0 0a48 	vmov.f32	s0, s16
 8001750:	eef0 0a68 	vmov.f32	s1, s17
 8001754:	f007 fd98 	bl	8009288 <sin>
 8001758:	6968      	ldr	r0, [r5, #20]
 800175a:	ed8d 0b04 	vstr	d0, [sp, #16]
 800175e:	f7fe feeb 	bl	8000538 <__aeabi_f2d>
 8001762:	ec41 0b10 	vmov	d0, r0, r1
 8001766:	ec41 0b18 	vmov	d8, r0, r1
 800176a:	f007 fd39 	bl	80091e0 <cos>
 800176e:	ec59 8b10 	vmov	r8, r9, d0
 8001772:	eeb0 0a48 	vmov.f32	s0, s16
 8001776:	eef0 0a68 	vmov.f32	s1, s17
 800177a:	f007 fd85 	bl	8009288 <sin>
 800177e:	ec57 6b10 	vmov	r6, r7, d0
 8001782:	2500      	movs	r5, #0
 8001784:	eeb7 8a00 	vmov.f32	s16, #112	; 0x3f800000  1.0
 8001788:	4659      	mov	r1, fp
 800178a:	4650      	mov	r0, sl
 800178c:	ed8d 8a0e 	vstr	s16, [sp, #56]	; 0x38
 8001790:	950f      	str	r5, [sp, #60]	; 0x3c
 8001792:	9510      	str	r5, [sp, #64]	; 0x40
 8001794:	ed8d aa11 	vstr	s20, [sp, #68]	; 0x44
 8001798:	9512      	str	r5, [sp, #72]	; 0x48
 800179a:	ed8d 8a13 	vstr	s16, [sp, #76]	; 0x4c
 800179e:	9514      	str	r5, [sp, #80]	; 0x50
 80017a0:	edcd 9a15 	vstr	s19, [sp, #84]	; 0x54
 80017a4:	9516      	str	r5, [sp, #88]	; 0x58
 80017a6:	9517      	str	r5, [sp, #92]	; 0x5c
 80017a8:	ed8d 8a18 	vstr	s16, [sp, #96]	; 0x60
 80017ac:	ed8d 9a19 	vstr	s18, [sp, #100]	; 0x64
 80017b0:	951a      	str	r5, [sp, #104]	; 0x68
 80017b2:	951b      	str	r5, [sp, #108]	; 0x6c
 80017b4:	951c      	str	r5, [sp, #112]	; 0x70
 80017b6:	ed8d 8a1d 	vstr	s16, [sp, #116]	; 0x74
 80017ba:	ed8d 8a1e 	vstr	s16, [sp, #120]	; 0x78
 80017be:	951f      	str	r5, [sp, #124]	; 0x7c
 80017c0:	9520      	str	r5, [sp, #128]	; 0x80
 80017c2:	9521      	str	r5, [sp, #132]	; 0x84
 80017c4:	9522      	str	r5, [sp, #136]	; 0x88
 80017c6:	f7ff fa07 	bl	8000bd8 <__aeabi_d2f>
 80017ca:	4682      	mov	sl, r0
 80017cc:	9023      	str	r0, [sp, #140]	; 0x8c
 80017ce:	e9dd 0100 	ldrd	r0, r1, [sp]
 80017d2:	f7ff fa01 	bl	8000bd8 <__aeabi_d2f>
 80017d6:	ee07 0a90 	vmov	s15, r0
 80017da:	9027      	str	r0, [sp, #156]	; 0x9c
 80017dc:	eeb1 7a67 	vneg.f32	s14, s15
 80017e0:	4649      	mov	r1, r9
 80017e2:	4640      	mov	r0, r8
 80017e4:	ed8d 7a24 	vstr	s14, [sp, #144]	; 0x90
 80017e8:	9525      	str	r5, [sp, #148]	; 0x94
 80017ea:	9526      	str	r5, [sp, #152]	; 0x98
 80017ec:	f8cd a0a0 	str.w	sl, [sp, #160]	; 0xa0
 80017f0:	9529      	str	r5, [sp, #164]	; 0xa4
 80017f2:	952a      	str	r5, [sp, #168]	; 0xa8
 80017f4:	952b      	str	r5, [sp, #172]	; 0xac
 80017f6:	952c      	str	r5, [sp, #176]	; 0xb0
 80017f8:	ed8d 8a2d 	vstr	s16, [sp, #180]	; 0xb4
 80017fc:	f7ff f9ec 	bl	8000bd8 <__aeabi_d2f>
 8001800:	4639      	mov	r1, r7
 8001802:	4680      	mov	r8, r0
 8001804:	902e      	str	r0, [sp, #184]	; 0xb8
 8001806:	4630      	mov	r0, r6
 8001808:	952f      	str	r5, [sp, #188]	; 0xbc
 800180a:	f7ff f9e5 	bl	8000bd8 <__aeabi_d2f>
 800180e:	ee07 0a90 	vmov	s15, r0
 8001812:	9030      	str	r0, [sp, #192]	; 0xc0
 8001814:	eef1 7a67 	vneg.f32	s15, s15
 8001818:	e9dd 0102 	ldrd	r0, r1, [sp, #8]
 800181c:	edcd 7a36 	vstr	s15, [sp, #216]	; 0xd8
 8001820:	9531      	str	r5, [sp, #196]	; 0xc4
 8001822:	9532      	str	r5, [sp, #200]	; 0xc8
 8001824:	ed8d 8a33 	vstr	s16, [sp, #204]	; 0xcc
 8001828:	9534      	str	r5, [sp, #208]	; 0xd0
 800182a:	9535      	str	r5, [sp, #212]	; 0xd4
 800182c:	9537      	str	r5, [sp, #220]	; 0xdc
 800182e:	f8cd 80e0 	str.w	r8, [sp, #224]	; 0xe0
 8001832:	9539      	str	r5, [sp, #228]	; 0xe4
 8001834:	953a      	str	r5, [sp, #232]	; 0xe8
 8001836:	953b      	str	r5, [sp, #236]	; 0xec
 8001838:	953c      	str	r5, [sp, #240]	; 0xf0
 800183a:	ed8d 8a3d 	vstr	s16, [sp, #244]	; 0xf4
 800183e:	f7ff f9cb 	bl	8000bd8 <__aeabi_d2f>
 8001842:	4606      	mov	r6, r0
 8001844:	903e      	str	r0, [sp, #248]	; 0xf8
 8001846:	e9dd 0104 	ldrd	r0, r1, [sp, #16]
 800184a:	f7ff f9c5 	bl	8000bd8 <__aeabi_d2f>
 800184e:	ee07 0a90 	vmov	s15, r0
 8001852:	2204      	movs	r2, #4
 8001854:	eeb1 7a67 	vneg.f32	s14, s15
 8001858:	9042      	str	r0, [sp, #264]	; 0x108
 800185a:	ab0e      	add	r3, sp, #56	; 0x38
 800185c:	4611      	mov	r1, r2
 800185e:	a806      	add	r0, sp, #24
 8001860:	ed8d 7a3f 	vstr	s14, [sp, #252]	; 0xfc
 8001864:	9540      	str	r5, [sp, #256]	; 0x100
 8001866:	9541      	str	r5, [sp, #260]	; 0x104
 8001868:	9643      	str	r6, [sp, #268]	; 0x10c
 800186a:	9544      	str	r5, [sp, #272]	; 0x110
 800186c:	9545      	str	r5, [sp, #276]	; 0x114
 800186e:	9546      	str	r5, [sp, #280]	; 0x118
 8001870:	9547      	str	r5, [sp, #284]	; 0x11c
 8001872:	ed8d 8a48 	vstr	s16, [sp, #288]	; 0x120
 8001876:	9549      	str	r5, [sp, #292]	; 0x124
 8001878:	954a      	str	r5, [sp, #296]	; 0x128
 800187a:	954b      	str	r5, [sp, #300]	; 0x12c
 800187c:	954c      	str	r5, [sp, #304]	; 0x130
 800187e:	ed8d 8a4d 	vstr	s16, [sp, #308]	; 0x134
 8001882:	f006 fc17 	bl	80080b4 <arm_mat_init_f32>
 8001886:	2204      	movs	r2, #4
 8001888:	ab1e      	add	r3, sp, #120	; 0x78
 800188a:	4611      	mov	r1, r2
 800188c:	a808      	add	r0, sp, #32
 800188e:	f006 fc11 	bl	80080b4 <arm_mat_init_f32>
 8001892:	2204      	movs	r2, #4
 8001894:	ab2e      	add	r3, sp, #184	; 0xb8
 8001896:	4611      	mov	r1, r2
 8001898:	a80a      	add	r0, sp, #40	; 0x28
 800189a:	f006 fc0b 	bl	80080b4 <arm_mat_init_f32>
 800189e:	2204      	movs	r2, #4
 80018a0:	ab3e      	add	r3, sp, #248	; 0xf8
 80018a2:	4611      	mov	r1, r2
 80018a4:	a80c      	add	r0, sp, #48	; 0x30
 80018a6:	f006 fc05 	bl	80080b4 <arm_mat_init_f32>
 80018aa:	4622      	mov	r2, r4
 80018ac:	a90a      	add	r1, sp, #40	; 0x28
 80018ae:	a808      	add	r0, sp, #32
 80018b0:	f006 fa1e 	bl	8007cf0 <arm_mat_mult_f32>
 80018b4:	4622      	mov	r2, r4
 80018b6:	a90c      	add	r1, sp, #48	; 0x30
 80018b8:	4620      	mov	r0, r4
 80018ba:	f006 fa19 	bl	8007cf0 <arm_mat_mult_f32>
 80018be:	4622      	mov	r2, r4
 80018c0:	a906      	add	r1, sp, #24
 80018c2:	4620      	mov	r0, r4
 80018c4:	f006 fa14 	bl	8007cf0 <arm_mat_mult_f32>
 80018c8:	b04f      	add	sp, #316	; 0x13c
 80018ca:	ecbd 8b06 	vpop	{d8-d10}
 80018ce:	e8bd 8ff0 	ldmia.w	sp!, {r4, r5, r6, r7, r8, r9, sl, fp, pc}
 80018d2:	f8df 901c 	ldr.w	r9, [pc, #28]	; 80018f0 <TransformMatrix+0x200>
 80018d6:	2600      	movs	r6, #0
 80018d8:	2700      	movs	r7, #0
 80018da:	f04f 0800 	mov.w	r8, #0
 80018de:	e9cd 6704 	strd	r6, r7, [sp, #16]
 80018e2:	e9cd 8902 	strd	r8, r9, [sp, #8]
 80018e6:	e9cd 6700 	strd	r6, r7, [sp]
 80018ea:	46c2      	mov	sl, r8
 80018ec:	46cb      	mov	fp, r9
 80018ee:	e748      	b.n	8001782 <TransformMatrix+0x92>
 80018f0:	3ff00000 	.word	0x3ff00000

080018f4 <IK_body>:
 80018f4:	b570      	push	{r4, r5, r6, lr}
 80018f6:	ed90 7a00 	vldr	s14, [r0]
 80018fa:	eddf 7a67 	vldr	s15, [pc, #412]	; 8001a98 <IK_body+0x1a4>
 80018fe:	eeb4 7ae7 	vcmpe.f32	s14, s15
 8001902:	eef1 fa10 	vmrs	APSR_nzcv, fpscr
 8001906:	b0b8      	sub	sp, #224	; 0xe0
 8001908:	4604      	mov	r4, r0
 800190a:	460e      	mov	r6, r1
 800190c:	dd02      	ble.n	8001914 <IK_body+0x20>
 800190e:	edc4 7a00 	vstr	s15, [r4]
 8001912:	e006      	b.n	8001922 <IK_body+0x2e>
 8001914:	eddf 7a61 	vldr	s15, [pc, #388]	; 8001a9c <IK_body+0x1a8>
 8001918:	eeb4 7ae7 	vcmpe.f32	s14, s15
 800191c:	eef1 fa10 	vmrs	APSR_nzcv, fpscr
 8001920:	d4f5      	bmi.n	800190e <IK_body+0x1a>
 8001922:	ed94 7a01 	vldr	s14, [r4, #4]
 8001926:	eef3 7a03 	vmov.f32	s15, #51	; 0x41980000  19.0
 800192a:	eeb4 7ae7 	vcmpe.f32	s14, s15
 800192e:	eef1 fa10 	vmrs	APSR_nzcv, fpscr
 8001932:	dd02      	ble.n	800193a <IK_body+0x46>
 8001934:	edc4 7a01 	vstr	s15, [r4, #4]
 8001938:	e006      	b.n	8001948 <IK_body+0x54>
 800193a:	eefb 7a0e 	vmov.f32	s15, #190	; 0xc1f00000 -30.0
 800193e:	eeb4 7ae7 	vcmpe.f32	s14, s15
 8001942:	eef1 fa10 	vmrs	APSR_nzcv, fpscr
 8001946:	d4f5      	bmi.n	8001934 <IK_body+0x40>
 8001948:	ed94 7a02 	vldr	s14, [r4, #8]
 800194c:	eddf 7a54 	vldr	s15, [pc, #336]	; 8001aa0 <IK_body+0x1ac>
 8001950:	eeb4 7ae7 	vcmpe.f32	s14, s15
 8001954:	eef1 fa10 	vmrs	APSR_nzcv, fpscr
 8001958:	dd02      	ble.n	8001960 <IK_body+0x6c>
 800195a:	edc4 7a02 	vstr	s15, [r4, #8]
 800195e:	e006      	b.n	800196e <IK_body+0x7a>
 8001960:	eddf 7a50 	vldr	s15, [pc, #320]	; 8001aa4 <IK_body+0x1b0>
 8001964:	eeb4 7ae7 	vcmpe.f32	s14, s15
 8001968:	eef1 fa10 	vmrs	APSR_nzcv, fpscr
 800196c:	d4f5      	bmi.n	800195a <IK_body+0x66>
 800196e:	edd4 6a03 	vldr	s13, [r4, #12]
 8001972:	eddf 7a4d 	vldr	s15, [pc, #308]	; 8001aa8 <IK_body+0x1b4>
 8001976:	eef4 6ae7 	vcmpe.f32	s13, s15
 800197a:	eef1 fa10 	vmrs	APSR_nzcv, fpscr
 800197e:	dd14      	ble.n	80019aa <IK_body+0xb6>
 8001980:	edc4 7a03 	vstr	s15, [r4, #12]
 8001984:	edd4 6a04 	vldr	s13, [r4, #16]
 8001988:	eef4 6ae7 	vcmpe.f32	s13, s15
 800198c:	eef1 fa10 	vmrs	APSR_nzcv, fpscr
 8001990:	dd15      	ble.n	80019be <IK_body+0xca>
 8001992:	edc4 7a04 	vstr	s15, [r4, #16]
 8001996:	ed94 7a05 	vldr	s14, [r4, #20]
 800199a:	eeb4 7ae7 	vcmpe.f32	s14, s15
 800199e:	eef1 fa10 	vmrs	APSR_nzcv, fpscr
 80019a2:	dd16      	ble.n	80019d2 <IK_body+0xde>
 80019a4:	edc4 7a05 	vstr	s15, [r4, #20]
 80019a8:	e01a      	b.n	80019e0 <IK_body+0xec>
 80019aa:	ed9f 7a40 	vldr	s14, [pc, #256]	; 8001aac <IK_body+0x1b8>
 80019ae:	eef4 6ac7 	vcmpe.f32	s13, s14
 80019b2:	eef1 fa10 	vmrs	APSR_nzcv, fpscr
 80019b6:	bf48      	it	mi
 80019b8:	ed84 7a03 	vstrmi	s14, [r4, #12]
 80019bc:	e7e2      	b.n	8001984 <IK_body+0x90>
 80019be:	ed9f 7a3b 	vldr	s14, [pc, #236]	; 8001aac <IK_body+0x1b8>
 80019c2:	eef4 6ac7 	vcmpe.f32	s13, s14
 80019c6:	eef1 fa10 	vmrs	APSR_nzcv, fpscr
 80019ca:	bf48      	it	mi
 80019cc:	ed84 7a04 	vstrmi	s14, [r4, #16]
 80019d0:	e7e1      	b.n	8001996 <IK_body+0xa2>
 80019d2:	eddf 7a36 	vldr	s15, [pc, #216]	; 8001aac <IK_body+0x1b8>
 80019d6:	eeb4 7ae7 	vcmpe.f32	s14, s15
 80019da:	eef1 fa10 	vmrs	APSR_nzcv, fpscr
 80019de:	d4e1      	bmi.n	80019a4 <IK_body+0xb0>
 80019e0:	2204      	movs	r2, #4
 80019e2:	ab08      	add	r3, sp, #32
 80019e4:	4611      	mov	r1, r2
 80019e6:	4668      	mov	r0, sp
 80019e8:	f006 fb64 	bl	80080b4 <arm_mat_init_f32>
 80019ec:	2204      	movs	r2, #4
 80019ee:	ab18      	add	r3, sp, #96	; 0x60
 80019f0:	4611      	mov	r1, r2
 80019f2:	a802      	add	r0, sp, #8
 80019f4:	f006 fb5e 	bl	80080b4 <arm_mat_init_f32>
 80019f8:	2204      	movs	r2, #4
 80019fa:	ab28      	add	r3, sp, #160	; 0xa0
 80019fc:	4611      	mov	r1, r2
 80019fe:	a804      	add	r0, sp, #16
 8001a00:	f006 fb58 	bl	80080b4 <arm_mat_init_f32>
 8001a04:	2204      	movs	r2, #4
 8001a06:	4b2a      	ldr	r3, [pc, #168]	; (8001ab0 <IK_body+0x1bc>)
 8001a08:	4611      	mov	r1, r2
 8001a0a:	a806      	add	r0, sp, #24
 8001a0c:	f006 fb52 	bl	80080b4 <arm_mat_init_f32>
 8001a10:	4669      	mov	r1, sp
 8001a12:	4620      	mov	r0, r4
 8001a14:	2200      	movs	r2, #0
 8001a16:	f7ff fe6b 	bl	80016f0 <TransformMatrix>
 8001a1a:	6873      	ldr	r3, [r6, #4]
 8001a1c:	edd3 7a0a 	vldr	s15, [r3, #40]	; 0x28
 8001a20:	eef1 7a67 	vneg.f32	s15, s15
 8001a24:	edc3 7a0a 	vstr	s15, [r3, #40]	; 0x28
 8001a28:	edd3 7a0b 	vldr	s15, [r3, #44]	; 0x2c
 8001a2c:	eef1 7a67 	vneg.f32	s15, s15
 8001a30:	edc3 7a0b 	vstr	s15, [r3, #44]	; 0x2c
 8001a34:	4632      	mov	r2, r6
 8001a36:	a906      	add	r1, sp, #24
 8001a38:	4630      	mov	r0, r6
 8001a3a:	f006 fb3f 	bl	80080bc <arm_mat_add_f32>
 8001a3e:	aa04      	add	r2, sp, #16
 8001a40:	a906      	add	r1, sp, #24
 8001a42:	4605      	mov	r5, r0
 8001a44:	4668      	mov	r0, sp
 8001a46:	f006 f953 	bl	8007cf0 <arm_mat_mult_f32>
 8001a4a:	6873      	ldr	r3, [r6, #4]
 8001a4c:	f04f 527e 	mov.w	r2, #1065353216	; 0x3f800000
 8001a50:	63da      	str	r2, [r3, #60]	; 0x3c
 8001a52:	a902      	add	r1, sp, #8
 8001a54:	4405      	add	r5, r0
 8001a56:	4668      	mov	r0, sp
 8001a58:	f006 f9ee 	bl	8007e38 <arm_mat_inverse_f32>
 8001a5c:	4632      	mov	r2, r6
 8001a5e:	4631      	mov	r1, r6
 8001a60:	a802      	add	r0, sp, #8
 8001a62:	f006 f945 	bl	8007cf0 <arm_mat_mult_f32>
 8001a66:	b2ed      	uxtb	r5, r5
 8001a68:	4428      	add	r0, r5
 8001a6a:	b2c4      	uxtb	r4, r0
 8001a6c:	4632      	mov	r2, r6
 8001a6e:	a904      	add	r1, sp, #16
 8001a70:	4630      	mov	r0, r6
 8001a72:	f006 f8e1 	bl	8007c38 <arm_mat_sub_f32>
 8001a76:	6873      	ldr	r3, [r6, #4]
 8001a78:	edd3 7a0a 	vldr	s15, [r3, #40]	; 0x28
 8001a7c:	eef1 7a67 	vneg.f32	s15, s15
 8001a80:	edc3 7a0a 	vstr	s15, [r3, #40]	; 0x28
 8001a84:	edd3 7a0b 	vldr	s15, [r3, #44]	; 0x2c
 8001a88:	4420      	add	r0, r4
 8001a8a:	eef1 7a67 	vneg.f32	s15, s15
 8001a8e:	b240      	sxtb	r0, r0
 8001a90:	edc3 7a0b 	vstr	s15, [r3, #44]	; 0x2c
 8001a94:	b038      	add	sp, #224	; 0xe0
 8001a96:	bd70      	pop	{r4, r5, r6, pc}
 8001a98:	42200000 	.word	0x42200000
 8001a9c:	c2200000 	.word	0xc2200000
 8001aa0:	42340000 	.word	0x42340000
 8001aa4:	c2340000 	.word	0xc2340000
 8001aa8:	3e860a92 	.word	0x3e860a92
 8001aac:	be860a92 	.word	0xbe860a92
 8001ab0:	20000000 	.word	0x20000000

08001ab4 <lsm6dso32x_read_reg>:
 8001ab4:	b410      	push	{r4}
 8001ab6:	e9d0 4001 	ldrd	r4, r0, [r0, #4]
 8001aba:	46a4      	mov	ip, r4
 8001abc:	f85d 4b04 	ldr.w	r4, [sp], #4
 8001ac0:	4760      	bx	ip

08001ac2 <lsm6dso32x_write_reg>:
 8001ac2:	b410      	push	{r4}
 8001ac4:	6804      	ldr	r4, [r0, #0]
 8001ac6:	6880      	ldr	r0, [r0, #8]
 8001ac8:	46a4      	mov	ip, r4
 8001aca:	f85d 4b04 	ldr.w	r4, [sp], #4
 8001ace:	4760      	bx	ip

08001ad0 <lsm6dso32x_from_fs2000_to_mdps>:
 8001ad0:	ee07 0a90 	vmov	s15, r0
 8001ad4:	ed9f 0a03 	vldr	s0, [pc, #12]	; 8001ae4 <lsm6dso32x_from_fs2000_to_mdps+0x14>
 8001ad8:	eef8 7ae7 	vcvt.f32.s32	s15, s15
 8001adc:	ee27 0a80 	vmul.f32	s0, s15, s0
 8001ae0:	4770      	bx	lr
 8001ae2:	bf00      	nop
 8001ae4:	428c0000 	.word	0x428c0000

08001ae8 <lsm6dso32x_xl_full_scale_set>:
 8001ae8:	b537      	push	{r0, r1, r2, r4, r5, lr}
 8001aea:	2301      	movs	r3, #1
 8001aec:	460d      	mov	r5, r1
 8001aee:	aa01      	add	r2, sp, #4
 8001af0:	2110      	movs	r1, #16
 8001af2:	4604      	mov	r4, r0
 8001af4:	f7ff ffde 	bl	8001ab4 <lsm6dso32x_read_reg>
 8001af8:	b958      	cbnz	r0, 8001b12 <lsm6dso32x_xl_full_scale_set+0x2a>
 8001afa:	f89d 3004 	ldrb.w	r3, [sp, #4]
 8001afe:	f365 0383 	bfi	r3, r5, #2, #2
 8001b02:	f88d 3004 	strb.w	r3, [sp, #4]
 8001b06:	aa01      	add	r2, sp, #4
 8001b08:	2301      	movs	r3, #1
 8001b0a:	2110      	movs	r1, #16
 8001b0c:	4620      	mov	r0, r4
 8001b0e:	f7ff ffd8 	bl	8001ac2 <lsm6dso32x_write_reg>
 8001b12:	b003      	add	sp, #12
 8001b14:	bd30      	pop	{r4, r5, pc}

08001b16 <lsm6dso32x_gy_full_scale_set>:
 8001b16:	b537      	push	{r0, r1, r2, r4, r5, lr}
 8001b18:	2301      	movs	r3, #1
 8001b1a:	460d      	mov	r5, r1
 8001b1c:	aa01      	add	r2, sp, #4
 8001b1e:	2111      	movs	r1, #17
 8001b20:	4604      	mov	r4, r0
 8001b22:	f7ff ffc7 	bl	8001ab4 <lsm6dso32x_read_reg>
 8001b26:	b958      	cbnz	r0, 8001b40 <lsm6dso32x_gy_full_scale_set+0x2a>
 8001b28:	f89d 3004 	ldrb.w	r3, [sp, #4]
 8001b2c:	f365 0343 	bfi	r3, r5, #1, #3
 8001b30:	f88d 3004 	strb.w	r3, [sp, #4]
 8001b34:	aa01      	add	r2, sp, #4
 8001b36:	2301      	movs	r3, #1
 8001b38:	2111      	movs	r1, #17
 8001b3a:	4620      	mov	r0, r4
 8001b3c:	f7ff ffc1 	bl	8001ac2 <lsm6dso32x_write_reg>
 8001b40:	b003      	add	sp, #12
 8001b42:	bd30      	pop	{r4, r5, pc}

08001b44 <lsm6dso32x_xl_flag_data_ready_get>:
 8001b44:	b513      	push	{r0, r1, r4, lr}
 8001b46:	2301      	movs	r3, #1
 8001b48:	460c      	mov	r4, r1
 8001b4a:	aa01      	add	r2, sp, #4
 8001b4c:	211e      	movs	r1, #30
 8001b4e:	f7ff ffb1 	bl	8001ab4 <lsm6dso32x_read_reg>
 8001b52:	f89d 3004 	ldrb.w	r3, [sp, #4]
 8001b56:	f3c3 0300 	ubfx	r3, r3, #0, #1
 8001b5a:	7023      	strb	r3, [r4, #0]
 8001b5c:	b002      	add	sp, #8
 8001b5e:	bd10      	pop	{r4, pc}

08001b60 <lsm6dso32x_gy_flag_data_ready_get>:
 8001b60:	b513      	push	{r0, r1, r4, lr}
 8001b62:	2301      	movs	r3, #1
 8001b64:	460c      	mov	r4, r1
 8001b66:	aa01      	add	r2, sp, #4
 8001b68:	211e      	movs	r1, #30
 8001b6a:	f7ff ffa3 	bl	8001ab4 <lsm6dso32x_read_reg>
 8001b6e:	f89d 3004 	ldrb.w	r3, [sp, #4]
 8001b72:	f3c3 0340 	ubfx	r3, r3, #1, #1
 8001b76:	7023      	strb	r3, [r4, #0]
 8001b78:	b002      	add	sp, #8
 8001b7a:	bd10      	pop	{r4, pc}

08001b7c <lsm6dso32x_angular_rate_raw_get>:
 8001b7c:	b513      	push	{r0, r1, r4, lr}
 8001b7e:	2306      	movs	r3, #6
 8001b80:	460c      	mov	r4, r1
 8001b82:	466a      	mov	r2, sp
 8001b84:	2122      	movs	r1, #34	; 0x22
 8001b86:	f7ff ff95 	bl	8001ab4 <lsm6dso32x_read_reg>
 8001b8a:	f89d 2001 	ldrb.w	r2, [sp, #1]
 8001b8e:	f89d 3000 	ldrb.w	r3, [sp]
 8001b92:	eb03 2302 	add.w	r3, r3, r2, lsl #8
 8001b96:	8023      	strh	r3, [r4, #0]
 8001b98:	f89d 2003 	ldrb.w	r2, [sp, #3]
 8001b9c:	f89d 3002 	ldrb.w	r3, [sp, #2]
 8001ba0:	eb03 2302 	add.w	r3, r3, r2, lsl #8
 8001ba4:	8063      	strh	r3, [r4, #2]
 8001ba6:	f89d 2005 	ldrb.w	r2, [sp, #5]
 8001baa:	f89d 3004 	ldrb.w	r3, [sp, #4]
 8001bae:	eb03 2302 	add.w	r3, r3, r2, lsl #8
 8001bb2:	80a3      	strh	r3, [r4, #4]
 8001bb4:	b002      	add	sp, #8
 8001bb6:	bd10      	pop	{r4, pc}

08001bb8 <lsm6dso32x_acceleration_raw_get>:
 8001bb8:	b513      	push	{r0, r1, r4, lr}
 8001bba:	2306      	movs	r3, #6
 8001bbc:	460c      	mov	r4, r1
 8001bbe:	466a      	mov	r2, sp
 8001bc0:	2128      	movs	r1, #40	; 0x28
 8001bc2:	f7ff ff77 	bl	8001ab4 <lsm6dso32x_read_reg>
 8001bc6:	f89d 2001 	ldrb.w	r2, [sp, #1]
 8001bca:	f89d 3000 	ldrb.w	r3, [sp]
 8001bce:	eb03 2302 	add.w	r3, r3, r2, lsl #8
 8001bd2:	8023      	strh	r3, [r4, #0]
 8001bd4:	f89d 2003 	ldrb.w	r2, [sp, #3]
 8001bd8:	f89d 3002 	ldrb.w	r3, [sp, #2]
 8001bdc:	eb03 2302 	add.w	r3, r3, r2, lsl #8
 8001be0:	8063      	strh	r3, [r4, #2]
 8001be2:	f89d 2005 	ldrb.w	r2, [sp, #5]
 8001be6:	f89d 3004 	ldrb.w	r3, [sp, #4]
 8001bea:	eb03 2302 	add.w	r3, r3, r2, lsl #8
 8001bee:	80a3      	strh	r3, [r4, #4]
 8001bf0:	b002      	add	sp, #8
 8001bf2:	bd10      	pop	{r4, pc}

08001bf4 <lsm6dso32x_mem_bank_set>:
 8001bf4:	b537      	push	{r0, r1, r2, r4, r5, lr}
 8001bf6:	2301      	movs	r3, #1
 8001bf8:	460d      	mov	r5, r1
 8001bfa:	aa01      	add	r2, sp, #4
 8001bfc:	4619      	mov	r1, r3
 8001bfe:	4604      	mov	r4, r0
 8001c00:	f7ff ff58 	bl	8001ab4 <lsm6dso32x_read_reg>
 8001c04:	b958      	cbnz	r0, 8001c1e <lsm6dso32x_mem_bank_set+0x2a>
 8001c06:	f89d 3004 	ldrb.w	r3, [sp, #4]
 8001c0a:	f365 1387 	bfi	r3, r5, #6, #2
 8001c0e:	f88d 3004 	strb.w	r3, [sp, #4]
 8001c12:	2301      	movs	r3, #1
 8001c14:	aa01      	add	r2, sp, #4
 8001c16:	4619      	mov	r1, r3
 8001c18:	4620      	mov	r0, r4
 8001c1a:	f7ff ff52 	bl	8001ac2 <lsm6dso32x_write_reg>
 8001c1e:	b003      	add	sp, #12
 8001c20:	bd30      	pop	{r4, r5, pc}

08001c22 <lsm6dso32x_device_id_get>:
 8001c22:	460a      	mov	r2, r1
 8001c24:	2301      	movs	r3, #1
 8001c26:	210f      	movs	r1, #15
 8001c28:	f7ff bf44 	b.w	8001ab4 <lsm6dso32x_read_reg>

08001c2c <lsm6dso32x_reset_set>:
 8001c2c:	b537      	push	{r0, r1, r2, r4, r5, lr}
 8001c2e:	2301      	movs	r3, #1
 8001c30:	460d      	mov	r5, r1
 8001c32:	aa01      	add	r2, sp, #4
 8001c34:	2112      	movs	r1, #18
 8001c36:	4604      	mov	r4, r0
 8001c38:	f7ff ff3c 	bl	8001ab4 <lsm6dso32x_read_reg>
 8001c3c:	b958      	cbnz	r0, 8001c56 <lsm6dso32x_reset_set+0x2a>
 8001c3e:	f89d 3004 	ldrb.w	r3, [sp, #4]
 8001c42:	f365 0300 	bfi	r3, r5, #0, #1
 8001c46:	f88d 3004 	strb.w	r3, [sp, #4]
 8001c4a:	aa01      	add	r2, sp, #4
 8001c4c:	2301      	movs	r3, #1
 8001c4e:	2112      	movs	r1, #18
 8001c50:	4620      	mov	r0, r4
 8001c52:	f7ff ff36 	bl	8001ac2 <lsm6dso32x_write_reg>
 8001c56:	b003      	add	sp, #12
 8001c58:	bd30      	pop	{r4, r5, pc}

08001c5a <lsm6dso32x_reset_get>:
 8001c5a:	b513      	push	{r0, r1, r4, lr}
 8001c5c:	2301      	movs	r3, #1
 8001c5e:	460c      	mov	r4, r1
 8001c60:	aa01      	add	r2, sp, #4
 8001c62:	2112      	movs	r1, #18
 8001c64:	f7ff ff26 	bl	8001ab4 <lsm6dso32x_read_reg>
 8001c68:	f89d 3004 	ldrb.w	r3, [sp, #4]
 8001c6c:	f3c3 0300 	ubfx	r3, r3, #0, #1
 8001c70:	7023      	strb	r3, [r4, #0]
 8001c72:	b002      	add	sp, #8
 8001c74:	bd10      	pop	{r4, pc}

08001c76 <lsm6dso32x_xl_lp2_on_6d_set>:
 8001c76:	b537      	push	{r0, r1, r2, r4, r5, lr}
 8001c78:	2301      	movs	r3, #1
 8001c7a:	460d      	mov	r5, r1
 8001c7c:	aa01      	add	r2, sp, #4
 8001c7e:	2117      	movs	r1, #23
 8001c80:	4604      	mov	r4, r0
 8001c82:	f7ff ff17 	bl	8001ab4 <lsm6dso32x_read_reg>
 8001c86:	b958      	cbnz	r0, 8001ca0 <lsm6dso32x_xl_lp2_on_6d_set+0x2a>
 8001c88:	f89d 3004 	ldrb.w	r3, [sp, #4]
 8001c8c:	f365 0300 	bfi	r3, r5, #0, #1
 8001c90:	f88d 3004 	strb.w	r3, [sp, #4]
 8001c94:	aa01      	add	r2, sp, #4
 8001c96:	2301      	movs	r3, #1
 8001c98:	2117      	movs	r1, #23
 8001c9a:	4620      	mov	r0, r4
 8001c9c:	f7ff ff11 	bl	8001ac2 <lsm6dso32x_write_reg>
 8001ca0:	b003      	add	sp, #12
 8001ca2:	bd30      	pop	{r4, r5, pc}

08001ca4 <lsm6dso32x_i3c_disable_set>:
 8001ca4:	b537      	push	{r0, r1, r2, r4, r5, lr}
 8001ca6:	2301      	movs	r3, #1
 8001ca8:	460d      	mov	r5, r1
 8001caa:	aa01      	add	r2, sp, #4
 8001cac:	2118      	movs	r1, #24
 8001cae:	4604      	mov	r4, r0
 8001cb0:	f7ff ff00 	bl	8001ab4 <lsm6dso32x_read_reg>
 8001cb4:	bb00      	cbnz	r0, 8001cf8 <lsm6dso32x_i3c_disable_set+0x54>
 8001cb6:	f89d 2004 	ldrb.w	r2, [sp, #4]
 8001cba:	09eb      	lsrs	r3, r5, #7
 8001cbc:	f363 0241 	bfi	r2, r3, #1, #1
 8001cc0:	f88d 2004 	strb.w	r2, [sp, #4]
 8001cc4:	2301      	movs	r3, #1
 8001cc6:	aa01      	add	r2, sp, #4
 8001cc8:	2118      	movs	r1, #24
 8001cca:	4620      	mov	r0, r4
 8001ccc:	f7ff fef9 	bl	8001ac2 <lsm6dso32x_write_reg>
 8001cd0:	b990      	cbnz	r0, 8001cf8 <lsm6dso32x_i3c_disable_set+0x54>
 8001cd2:	2301      	movs	r3, #1
 8001cd4:	466a      	mov	r2, sp
 8001cd6:	2162      	movs	r1, #98	; 0x62
 8001cd8:	4620      	mov	r0, r4
 8001cda:	f7ff feeb 	bl	8001ab4 <lsm6dso32x_read_reg>
 8001cde:	b958      	cbnz	r0, 8001cf8 <lsm6dso32x_i3c_disable_set+0x54>
 8001ce0:	f89d 3000 	ldrb.w	r3, [sp]
 8001ce4:	f365 03c4 	bfi	r3, r5, #3, #2
 8001ce8:	f88d 3000 	strb.w	r3, [sp]
 8001cec:	466a      	mov	r2, sp
 8001cee:	2301      	movs	r3, #1
 8001cf0:	2162      	movs	r1, #98	; 0x62
 8001cf2:	4620      	mov	r0, r4
 8001cf4:	f7ff fee5 	bl	8001ac2 <lsm6dso32x_write_reg>
 8001cf8:	b003      	add	sp, #12
 8001cfa:	bd30      	pop	{r4, r5, pc}

08001cfc <lsm6dso32x_6d_threshold_set>:
 8001cfc:	b537      	push	{r0, r1, r2, r4, r5, lr}
 8001cfe:	2301      	movs	r3, #1
 8001d00:	460d      	mov	r5, r1
 8001d02:	aa01      	add	r2, sp, #4
 8001d04:	2159      	movs	r1, #89	; 0x59
 8001d06:	4604      	mov	r4, r0
 8001d08:	f7ff fed4 	bl	8001ab4 <lsm6dso32x_read_reg>
 8001d0c:	b958      	cbnz	r0, 8001d26 <lsm6dso32x_6d_threshold_set+0x2a>
 8001d0e:	f89d 3004 	ldrb.w	r3, [sp, #4]
 8001d12:	f365 1346 	bfi	r3, r5, #5, #2
 8001d16:	f88d 3004 	strb.w	r3, [sp, #4]
 8001d1a:	aa01      	add	r2, sp, #4
 8001d1c:	2301      	movs	r3, #1
 8001d1e:	2159      	movs	r1, #89	; 0x59
 8001d20:	4620      	mov	r0, r4
 8001d22:	f7ff fece 	bl	8001ac2 <lsm6dso32x_write_reg>
 8001d26:	b003      	add	sp, #12
 8001d28:	bd30      	pop	{r4, r5, pc}

08001d2a <lsm6dso32x_4d_mode_set>:
 8001d2a:	b537      	push	{r0, r1, r2, r4, r5, lr}
 8001d2c:	2301      	movs	r3, #1
 8001d2e:	460d      	mov	r5, r1
 8001d30:	aa01      	add	r2, sp, #4
 8001d32:	2159      	movs	r1, #89	; 0x59
 8001d34:	4604      	mov	r4, r0
 8001d36:	f7ff febd 	bl	8001ab4 <lsm6dso32x_read_reg>
 8001d3a:	b958      	cbnz	r0, 8001d54 <lsm6dso32x_4d_mode_set+0x2a>
 8001d3c:	f89d 3004 	ldrb.w	r3, [sp, #4]
 8001d40:	f365 13c7 	bfi	r3, r5, #7, #1
 8001d44:	f88d 3004 	strb.w	r3, [sp, #4]
 8001d48:	aa01      	add	r2, sp, #4
 8001d4a:	2301      	movs	r3, #1
 8001d4c:	2159      	movs	r1, #89	; 0x59
 8001d4e:	4620      	mov	r0, r4
 8001d50:	f7ff feb7 	bl	8001ac2 <lsm6dso32x_write_reg>
 8001d54:	b003      	add	sp, #12
 8001d56:	bd30      	pop	{r4, r5, pc}

08001d58 <lsm6dso32x_fsm_enable_get>:
 8001d58:	b513      	push	{r0, r1, r4, lr}
 8001d5a:	9101      	str	r1, [sp, #4]
 8001d5c:	2102      	movs	r1, #2
 8001d5e:	4604      	mov	r4, r0
 8001d60:	f7ff ff48 	bl	8001bf4 <lsm6dso32x_mem_bank_set>
 8001d64:	9a01      	ldr	r2, [sp, #4]
 8001d66:	b960      	cbnz	r0, 8001d82 <lsm6dso32x_fsm_enable_get+0x2a>
 8001d68:	2302      	movs	r3, #2
 8001d6a:	2146      	movs	r1, #70	; 0x46
 8001d6c:	4620      	mov	r0, r4
 8001d6e:	f7ff fea1 	bl	8001ab4 <lsm6dso32x_read_reg>
 8001d72:	b930      	cbnz	r0, 8001d82 <lsm6dso32x_fsm_enable_get+0x2a>
 8001d74:	4601      	mov	r1, r0
 8001d76:	4620      	mov	r0, r4
 8001d78:	b002      	add	sp, #8
 8001d7a:	e8bd 4010 	ldmia.w	sp!, {r4, lr}
 8001d7e:	f7ff bf39 	b.w	8001bf4 <lsm6dso32x_mem_bank_set>
 8001d82:	b002      	add	sp, #8
 8001d84:	bd10      	pop	{r4, pc}

08001d86 <lsm6dso32x_fsm_data_rate_get>:
 8001d86:	b537      	push	{r0, r1, r2, r4, r5, lr}
 8001d88:	460c      	mov	r4, r1
 8001d8a:	2102      	movs	r1, #2
 8001d8c:	4605      	mov	r5, r0
 8001d8e:	f7ff ff31 	bl	8001bf4 <lsm6dso32x_mem_bank_set>
 8001d92:	b9a8      	cbnz	r0, 8001dc0 <lsm6dso32x_fsm_data_rate_get+0x3a>
 8001d94:	2301      	movs	r3, #1
 8001d96:	aa01      	add	r2, sp, #4
 8001d98:	215f      	movs	r1, #95	; 0x5f
 8001d9a:	4628      	mov	r0, r5
 8001d9c:	f7ff fe8a 	bl	8001ab4 <lsm6dso32x_read_reg>
 8001da0:	b970      	cbnz	r0, 8001dc0 <lsm6dso32x_fsm_data_rate_get+0x3a>
 8001da2:	f89d 3004 	ldrb.w	r3, [sp, #4]
 8001da6:	f3c3 02c1 	ubfx	r2, r3, #3, #2
 8001daa:	2a02      	cmp	r2, #2
 8001dac:	d00a      	beq.n	8001dc4 <lsm6dso32x_fsm_data_rate_get+0x3e>
 8001dae:	2a03      	cmp	r2, #3
 8001db0:	d008      	beq.n	8001dc4 <lsm6dso32x_fsm_data_rate_get+0x3e>
 8001db2:	2a01      	cmp	r2, #1
 8001db4:	d006      	beq.n	8001dc4 <lsm6dso32x_fsm_data_rate_get+0x3e>
 8001db6:	7020      	strb	r0, [r4, #0]
 8001db8:	2100      	movs	r1, #0
 8001dba:	4628      	mov	r0, r5
 8001dbc:	f7ff ff1a 	bl	8001bf4 <lsm6dso32x_mem_bank_set>
 8001dc0:	b003      	add	sp, #12
 8001dc2:	bd30      	pop	{r4, r5, pc}
 8001dc4:	7022      	strb	r2, [r4, #0]
 8001dc6:	e7f7      	b.n	8001db8 <lsm6dso32x_fsm_data_rate_get+0x32>

08001dc8 <lsm6dso32x_mlc_data_rate_get>:
 8001dc8:	b537      	push	{r0, r1, r2, r4, r5, lr}
 8001dca:	460c      	mov	r4, r1
 8001dcc:	2102      	movs	r1, #2
 8001dce:	4605      	mov	r5, r0
 8001dd0:	f7ff ff10 	bl	8001bf4 <lsm6dso32x_mem_bank_set>
 8001dd4:	b9a8      	cbnz	r0, 8001e02 <lsm6dso32x_mlc_data_rate_get+0x3a>
 8001dd6:	2301      	movs	r3, #1
 8001dd8:	aa01      	add	r2, sp, #4
 8001dda:	2160      	movs	r1, #96	; 0x60
 8001ddc:	4628      	mov	r0, r5
 8001dde:	f7ff fe69 	bl	8001ab4 <lsm6dso32x_read_reg>
 8001de2:	b970      	cbnz	r0, 8001e02 <lsm6dso32x_mlc_data_rate_get+0x3a>
 8001de4:	f89d 3004 	ldrb.w	r3, [sp, #4]
 8001de8:	f3c3 1201 	ubfx	r2, r3, #4, #2
 8001dec:	2a02      	cmp	r2, #2
 8001dee:	d00a      	beq.n	8001e06 <lsm6dso32x_mlc_data_rate_get+0x3e>
 8001df0:	2a03      	cmp	r2, #3
 8001df2:	d008      	beq.n	8001e06 <lsm6dso32x_mlc_data_rate_get+0x3e>
 8001df4:	2a01      	cmp	r2, #1
 8001df6:	d006      	beq.n	8001e06 <lsm6dso32x_mlc_data_rate_get+0x3e>
 8001df8:	7020      	strb	r0, [r4, #0]
 8001dfa:	2100      	movs	r1, #0
 8001dfc:	4628      	mov	r0, r5
 8001dfe:	f7ff fef9 	bl	8001bf4 <lsm6dso32x_mem_bank_set>
 8001e02:	b003      	add	sp, #12
 8001e04:	bd30      	pop	{r4, r5, pc}
 8001e06:	7022      	strb	r2, [r4, #0]
 8001e08:	e7f7      	b.n	8001dfa <lsm6dso32x_mlc_data_rate_get+0x32>

08001e0a <lsm6dso32x_embedded_sens_get>:
 8001e0a:	b537      	push	{r0, r1, r2, r4, r5, lr}
 8001e0c:	460d      	mov	r5, r1
 8001e0e:	2102      	movs	r1, #2
 8001e10:	4604      	mov	r4, r0
 8001e12:	f7ff feef 	bl	8001bf4 <lsm6dso32x_mem_bank_set>
 8001e16:	bb80      	cbnz	r0, 8001e7a <lsm6dso32x_embedded_sens_get+0x70>
 8001e18:	2301      	movs	r3, #1
 8001e1a:	466a      	mov	r2, sp
 8001e1c:	2104      	movs	r1, #4
 8001e1e:	4620      	mov	r0, r4
 8001e20:	f7ff fe48 	bl	8001ab4 <lsm6dso32x_read_reg>
 8001e24:	bb48      	cbnz	r0, 8001e7a <lsm6dso32x_embedded_sens_get+0x70>
 8001e26:	2301      	movs	r3, #1
 8001e28:	aa01      	add	r2, sp, #4
 8001e2a:	2105      	movs	r1, #5
 8001e2c:	4620      	mov	r0, r4
 8001e2e:	f7ff fe41 	bl	8001ab4 <lsm6dso32x_read_reg>
 8001e32:	f89d 2000 	ldrb.w	r2, [sp]
 8001e36:	f3c2 1100 	ubfx	r1, r2, #4, #1
 8001e3a:	f3c2 1340 	ubfx	r3, r2, #5, #1
 8001e3e:	ea43 0341 	orr.w	r3, r3, r1, lsl #1
 8001e42:	f3c2 02c0 	ubfx	r2, r2, #3, #1
 8001e46:	ea43 0382 	orr.w	r3, r3, r2, lsl #2
 8001e4a:	f89d 2004 	ldrb.w	r2, [sp, #4]
 8001e4e:	f3c2 1100 	ubfx	r1, r2, #4, #1
 8001e52:	ea43 03c1 	orr.w	r3, r3, r1, lsl #3
 8001e56:	f3c2 0100 	ubfx	r1, r2, #0, #1
 8001e5a:	ea43 1301 	orr.w	r3, r3, r1, lsl #4
 8001e5e:	f3c2 02c0 	ubfx	r2, r2, #3, #1
 8001e62:	ea43 1342 	orr.w	r3, r3, r2, lsl #5
 8001e66:	782a      	ldrb	r2, [r5, #0]
 8001e68:	f022 023f 	bic.w	r2, r2, #63	; 0x3f
 8001e6c:	4313      	orrs	r3, r2
 8001e6e:	702b      	strb	r3, [r5, #0]
 8001e70:	b918      	cbnz	r0, 8001e7a <lsm6dso32x_embedded_sens_get+0x70>
 8001e72:	4601      	mov	r1, r0
 8001e74:	4620      	mov	r0, r4
 8001e76:	f7ff febd 	bl	8001bf4 <lsm6dso32x_mem_bank_set>
 8001e7a:	b003      	add	sp, #12
 8001e7c:	bd30      	pop	{r4, r5, pc}

08001e7e <lsm6dso32x_xl_data_rate_set>:
 8001e7e:	b57f      	push	{r0, r1, r2, r3, r4, r5, r6, lr}
 8001e80:	460d      	mov	r5, r1
 8001e82:	a903      	add	r1, sp, #12
 8001e84:	4604      	mov	r4, r0
 8001e86:	f7ff ff67 	bl	8001d58 <lsm6dso32x_fsm_enable_get>
 8001e8a:	bb98      	cbnz	r0, 8001ef4 <lsm6dso32x_xl_data_rate_set+0x76>
 8001e8c:	f89d 200c 	ldrb.w	r2, [sp, #12]
 8001e90:	f3c2 0140 	ubfx	r1, r2, #1, #1
 8001e94:	f3c2 0300 	ubfx	r3, r2, #0, #1
 8001e98:	430b      	orrs	r3, r1
 8001e9a:	f3c2 0180 	ubfx	r1, r2, #2, #1
 8001e9e:	430b      	orrs	r3, r1
 8001ea0:	f3c2 01c0 	ubfx	r1, r2, #3, #1
 8001ea4:	430b      	orrs	r3, r1
 8001ea6:	f3c2 1100 	ubfx	r1, r2, #4, #1
 8001eaa:	430b      	orrs	r3, r1
 8001eac:	f3c2 1140 	ubfx	r1, r2, #5, #1
 8001eb0:	430b      	orrs	r3, r1
 8001eb2:	f3c2 1180 	ubfx	r1, r2, #6, #1
 8001eb6:	430b      	orrs	r3, r1
 8001eb8:	ea43 13d2 	orr.w	r3, r3, r2, lsr #7
 8001ebc:	f89d 200d 	ldrb.w	r2, [sp, #13]
 8001ec0:	f3c2 0100 	ubfx	r1, r2, #0, #1
 8001ec4:	430b      	orrs	r3, r1
 8001ec6:	f3c2 0140 	ubfx	r1, r2, #1, #1
 8001eca:	430b      	orrs	r3, r1
 8001ecc:	f3c2 0180 	ubfx	r1, r2, #2, #1
 8001ed0:	430b      	orrs	r3, r1
 8001ed2:	f3c2 01c0 	ubfx	r1, r2, #3, #1
 8001ed6:	430b      	orrs	r3, r1
 8001ed8:	f3c2 1100 	ubfx	r1, r2, #4, #1
 8001edc:	430b      	orrs	r3, r1
 8001ede:	f3c2 1140 	ubfx	r1, r2, #5, #1
 8001ee2:	430b      	orrs	r3, r1
 8001ee4:	f3c2 1180 	ubfx	r1, r2, #6, #1
 8001ee8:	430b      	orrs	r3, r1
 8001eea:	ea43 13d2 	orr.w	r3, r3, r2, lsr #7
 8001eee:	07da      	lsls	r2, r3, #31
 8001ef0:	d402      	bmi.n	8001ef8 <lsm6dso32x_xl_data_rate_set+0x7a>
 8001ef2:	2000      	movs	r0, #0
 8001ef4:	462e      	mov	r6, r5
 8001ef6:	e012      	b.n	8001f1e <lsm6dso32x_xl_data_rate_set+0xa0>
 8001ef8:	f10d 010a 	add.w	r1, sp, #10
 8001efc:	4620      	mov	r0, r4
 8001efe:	f7ff ff42 	bl	8001d86 <lsm6dso32x_fsm_data_rate_get>
 8001f02:	2800      	cmp	r0, #0
 8001f04:	d1f6      	bne.n	8001ef4 <lsm6dso32x_xl_data_rate_set+0x76>
 8001f06:	f89d 300a 	ldrb.w	r3, [sp, #10]
 8001f0a:	2b03      	cmp	r3, #3
 8001f0c:	d8f2      	bhi.n	8001ef4 <lsm6dso32x_xl_data_rate_set+0x76>
 8001f0e:	e8df f003 	tbb	[pc, r3]
 8001f12:	2502      	.short	0x2502
 8001f14:	2d29      	.short	0x2d29
 8001f16:	2d01      	cmp	r5, #1
 8001f18:	462e      	mov	r6, r5
 8001f1a:	bf38      	it	cc
 8001f1c:	2601      	movcc	r6, #1
 8001f1e:	f89d 3004 	ldrb.w	r3, [sp, #4]
 8001f22:	f36f 03c3 	bfc	r3, #3, #1
 8001f26:	f88d 3004 	strb.w	r3, [sp, #4]
 8001f2a:	2800      	cmp	r0, #0
 8001f2c:	d139      	bne.n	8001fa2 <lsm6dso32x_xl_data_rate_set+0x124>
 8001f2e:	a901      	add	r1, sp, #4
 8001f30:	4620      	mov	r0, r4
 8001f32:	f7ff ff6a 	bl	8001e0a <lsm6dso32x_embedded_sens_get>
 8001f36:	bba0      	cbnz	r0, 8001fa2 <lsm6dso32x_xl_data_rate_set+0x124>
 8001f38:	f89d 3004 	ldrb.w	r3, [sp, #4]
 8001f3c:	071b      	lsls	r3, r3, #28
 8001f3e:	d51d      	bpl.n	8001f7c <lsm6dso32x_xl_data_rate_set+0xfe>
 8001f40:	f10d 010b 	add.w	r1, sp, #11
 8001f44:	4620      	mov	r0, r4
 8001f46:	f7ff ff3f 	bl	8001dc8 <lsm6dso32x_mlc_data_rate_get>
 8001f4a:	bb50      	cbnz	r0, 8001fa2 <lsm6dso32x_xl_data_rate_set+0x124>
 8001f4c:	f89d 300b 	ldrb.w	r3, [sp, #11]
 8001f50:	2b03      	cmp	r3, #3
 8001f52:	d812      	bhi.n	8001f7a <lsm6dso32x_xl_data_rate_set+0xfc>
 8001f54:	e8df f003 	tbb	[pc, r3]
 8001f58:	2f2b270e 	.word	0x2f2b270e
 8001f5c:	2d01      	cmp	r5, #1
 8001f5e:	d8c8      	bhi.n	8001ef2 <lsm6dso32x_xl_data_rate_set+0x74>
 8001f60:	2602      	movs	r6, #2
 8001f62:	e7dc      	b.n	8001f1e <lsm6dso32x_xl_data_rate_set+0xa0>
 8001f64:	2d02      	cmp	r5, #2
 8001f66:	d8c4      	bhi.n	8001ef2 <lsm6dso32x_xl_data_rate_set+0x74>
 8001f68:	2603      	movs	r6, #3
 8001f6a:	e7d8      	b.n	8001f1e <lsm6dso32x_xl_data_rate_set+0xa0>
 8001f6c:	2d03      	cmp	r5, #3
 8001f6e:	d8c0      	bhi.n	8001ef2 <lsm6dso32x_xl_data_rate_set+0x74>
 8001f70:	2604      	movs	r6, #4
 8001f72:	e7d4      	b.n	8001f1e <lsm6dso32x_xl_data_rate_set+0xa0>
 8001f74:	2d01      	cmp	r5, #1
 8001f76:	bf38      	it	cc
 8001f78:	2501      	movcc	r5, #1
 8001f7a:	462e      	mov	r6, r5
 8001f7c:	2301      	movs	r3, #1
 8001f7e:	aa02      	add	r2, sp, #8
 8001f80:	2110      	movs	r1, #16
 8001f82:	4620      	mov	r0, r4
 8001f84:	f7ff fd96 	bl	8001ab4 <lsm6dso32x_read_reg>
 8001f88:	b958      	cbnz	r0, 8001fa2 <lsm6dso32x_xl_data_rate_set+0x124>
 8001f8a:	f89d 3008 	ldrb.w	r3, [sp, #8]
 8001f8e:	f366 1307 	bfi	r3, r6, #4, #4
 8001f92:	f88d 3008 	strb.w	r3, [sp, #8]
 8001f96:	aa02      	add	r2, sp, #8
 8001f98:	2301      	movs	r3, #1
 8001f9a:	2110      	movs	r1, #16
 8001f9c:	4620      	mov	r0, r4
 8001f9e:	f7ff fd90 	bl	8001ac2 <lsm6dso32x_write_reg>
 8001fa2:	b004      	add	sp, #16
 8001fa4:	bd70      	pop	{r4, r5, r6, pc}
 8001fa6:	2d02      	cmp	r5, #2
 8001fa8:	bf38      	it	cc
 8001faa:	2502      	movcc	r5, #2
 8001fac:	e7e5      	b.n	8001f7a <lsm6dso32x_xl_data_rate_set+0xfc>
 8001fae:	2d03      	cmp	r5, #3
 8001fb0:	bf38      	it	cc
 8001fb2:	2503      	movcc	r5, #3
 8001fb4:	e7e1      	b.n	8001f7a <lsm6dso32x_xl_data_rate_set+0xfc>
 8001fb6:	2d04      	cmp	r5, #4
 8001fb8:	bf38      	it	cc
 8001fba:	2504      	movcc	r5, #4
 8001fbc:	e7dd      	b.n	8001f7a <lsm6dso32x_xl_data_rate_set+0xfc>

08001fbe <lsm6dso32x_gy_data_rate_set>:
 8001fbe:	b57f      	push	{r0, r1, r2, r3, r4, r5, r6, lr}
 8001fc0:	460d      	mov	r5, r1
 8001fc2:	a903      	add	r1, sp, #12
 8001fc4:	4604      	mov	r4, r0
 8001fc6:	f7ff fec7 	bl	8001d58 <lsm6dso32x_fsm_enable_get>
 8001fca:	bb98      	cbnz	r0, 8002034 <lsm6dso32x_gy_data_rate_set+0x76>
 8001fcc:	f89d 200c 	ldrb.w	r2, [sp, #12]
 8001fd0:	f3c2 0140 	ubfx	r1, r2, #1, #1
 8001fd4:	f3c2 0300 	ubfx	r3, r2, #0, #1
 8001fd8:	430b      	orrs	r3, r1
 8001fda:	f3c2 0180 	ubfx	r1, r2, #2, #1
 8001fde:	430b      	orrs	r3, r1
 8001fe0:	f3c2 01c0 	ubfx	r1, r2, #3, #1
 8001fe4:	430b      	orrs	r3, r1
 8001fe6:	f3c2 1100 	ubfx	r1, r2, #4, #1
 8001fea:	430b      	orrs	r3, r1
 8001fec:	f3c2 1140 	ubfx	r1, r2, #5, #1
 8001ff0:	430b      	orrs	r3, r1
 8001ff2:	f3c2 1180 	ubfx	r1, r2, #6, #1
 8001ff6:	430b      	orrs	r3, r1
 8001ff8:	ea43 13d2 	orr.w	r3, r3, r2, lsr #7
 8001ffc:	f89d 200d 	ldrb.w	r2, [sp, #13]
 8002000:	f3c2 0100 	ubfx	r1, r2, #0, #1
 8002004:	430b      	orrs	r3, r1
 8002006:	f3c2 0140 	ubfx	r1, r2, #1, #1
 800200a:	430b      	orrs	r3, r1
 800200c:	f3c2 0180 	ubfx	r1, r2, #2, #1
 8002010:	430b      	orrs	r3, r1
 8002012:	f3c2 01c0 	ubfx	r1, r2, #3, #1
 8002016:	430b      	orrs	r3, r1
 8002018:	f3c2 1100 	ubfx	r1, r2, #4, #1
 800201c:	430b      	orrs	r3, r1
 800201e:	f3c2 1140 	ubfx	r1, r2, #5, #1
 8002022:	430b      	orrs	r3, r1
 8002024:	f3c2 1180 	ubfx	r1, r2, #6, #1
 8002028:	430b      	orrs	r3, r1
 800202a:	ea43 13d2 	orr.w	r3, r3, r2, lsr #7
 800202e:	07da      	lsls	r2, r3, #31
 8002030:	d402      	bmi.n	8002038 <lsm6dso32x_gy_data_rate_set+0x7a>
 8002032:	2000      	movs	r0, #0
 8002034:	462e      	mov	r6, r5
 8002036:	e012      	b.n	800205e <lsm6dso32x_gy_data_rate_set+0xa0>
 8002038:	f10d 010a 	add.w	r1, sp, #10
 800203c:	4620      	mov	r0, r4
 800203e:	f7ff fea2 	bl	8001d86 <lsm6dso32x_fsm_data_rate_get>
 8002042:	2800      	cmp	r0, #0
 8002044:	d1f6      	bne.n	8002034 <lsm6dso32x_gy_data_rate_set+0x76>
 8002046:	f89d 300a 	ldrb.w	r3, [sp, #10]
 800204a:	2b03      	cmp	r3, #3
 800204c:	d8f2      	bhi.n	8002034 <lsm6dso32x_gy_data_rate_set+0x76>
 800204e:	e8df f003 	tbb	[pc, r3]
 8002052:	2502      	.short	0x2502
 8002054:	2d29      	.short	0x2d29
 8002056:	2d01      	cmp	r5, #1
 8002058:	462e      	mov	r6, r5
 800205a:	bf38      	it	cc
 800205c:	2601      	movcc	r6, #1
 800205e:	f89d 3004 	ldrb.w	r3, [sp, #4]
 8002062:	f36f 03c3 	bfc	r3, #3, #1
 8002066:	f88d 3004 	strb.w	r3, [sp, #4]
 800206a:	2800      	cmp	r0, #0
 800206c:	d148      	bne.n	8002100 <lsm6dso32x_gy_data_rate_set+0x142>
 800206e:	a901      	add	r1, sp, #4
 8002070:	4620      	mov	r0, r4
 8002072:	f7ff feca 	bl	8001e0a <lsm6dso32x_embedded_sens_get>
 8002076:	f89d 3004 	ldrb.w	r3, [sp, #4]
 800207a:	071b      	lsls	r3, r3, #28
 800207c:	d53e      	bpl.n	80020fc <lsm6dso32x_gy_data_rate_set+0x13e>
 800207e:	f10d 010b 	add.w	r1, sp, #11
 8002082:	4620      	mov	r0, r4
 8002084:	f7ff fea0 	bl	8001dc8 <lsm6dso32x_mlc_data_rate_get>
 8002088:	2800      	cmp	r0, #0
 800208a:	d139      	bne.n	8002100 <lsm6dso32x_gy_data_rate_set+0x142>
 800208c:	f89d 300b 	ldrb.w	r3, [sp, #11]
 8002090:	2b03      	cmp	r3, #3
 8002092:	d812      	bhi.n	80020ba <lsm6dso32x_gy_data_rate_set+0xfc>
 8002094:	e8df f003 	tbb	[pc, r3]
 8002098:	2e2a260e 	.word	0x2e2a260e
 800209c:	2d01      	cmp	r5, #1
 800209e:	d8c8      	bhi.n	8002032 <lsm6dso32x_gy_data_rate_set+0x74>
 80020a0:	2602      	movs	r6, #2
 80020a2:	e7dc      	b.n	800205e <lsm6dso32x_gy_data_rate_set+0xa0>
 80020a4:	2d02      	cmp	r5, #2
 80020a6:	d8c4      	bhi.n	8002032 <lsm6dso32x_gy_data_rate_set+0x74>
 80020a8:	2603      	movs	r6, #3
 80020aa:	e7d8      	b.n	800205e <lsm6dso32x_gy_data_rate_set+0xa0>
 80020ac:	2d03      	cmp	r5, #3
 80020ae:	d8c0      	bhi.n	8002032 <lsm6dso32x_gy_data_rate_set+0x74>
 80020b0:	2604      	movs	r6, #4
 80020b2:	e7d4      	b.n	800205e <lsm6dso32x_gy_data_rate_set+0xa0>
 80020b4:	2d01      	cmp	r5, #1
 80020b6:	bf38      	it	cc
 80020b8:	2501      	movcc	r5, #1
 80020ba:	462e      	mov	r6, r5
 80020bc:	2301      	movs	r3, #1
 80020be:	aa02      	add	r2, sp, #8
 80020c0:	2111      	movs	r1, #17
 80020c2:	4620      	mov	r0, r4
 80020c4:	f7ff fcf6 	bl	8001ab4 <lsm6dso32x_read_reg>
 80020c8:	b9d0      	cbnz	r0, 8002100 <lsm6dso32x_gy_data_rate_set+0x142>
 80020ca:	f89d 3008 	ldrb.w	r3, [sp, #8]
 80020ce:	f366 1307 	bfi	r3, r6, #4, #4
 80020d2:	f88d 3008 	strb.w	r3, [sp, #8]
 80020d6:	aa02      	add	r2, sp, #8
 80020d8:	2301      	movs	r3, #1
 80020da:	2111      	movs	r1, #17
 80020dc:	4620      	mov	r0, r4
 80020de:	f7ff fcf0 	bl	8001ac2 <lsm6dso32x_write_reg>
 80020e2:	e00d      	b.n	8002100 <lsm6dso32x_gy_data_rate_set+0x142>
 80020e4:	2d02      	cmp	r5, #2
 80020e6:	bf38      	it	cc
 80020e8:	2502      	movcc	r5, #2
 80020ea:	e7e6      	b.n	80020ba <lsm6dso32x_gy_data_rate_set+0xfc>
 80020ec:	2d03      	cmp	r5, #3
 80020ee:	bf38      	it	cc
 80020f0:	2503      	movcc	r5, #3
 80020f2:	e7e2      	b.n	80020ba <lsm6dso32x_gy_data_rate_set+0xfc>
 80020f4:	2d04      	cmp	r5, #4
 80020f6:	bf38      	it	cc
 80020f8:	2504      	movcc	r5, #4
 80020fa:	e7de      	b.n	80020ba <lsm6dso32x_gy_data_rate_set+0xfc>
 80020fc:	2800      	cmp	r0, #0
 80020fe:	d0dd      	beq.n	80020bc <lsm6dso32x_gy_data_rate_set+0xfe>
 8002100:	b004      	add	sp, #16
 8002102:	bd70      	pop	{r4, r5, r6, pc}

08002104 <platform_write>:
 8002104:	b51f      	push	{r0, r1, r2, r3, r4, lr}
 8002106:	f44f 747a 	mov.w	r4, #1000	; 0x3e8
 800210a:	e9cd 3401 	strd	r3, r4, [sp, #4]
 800210e:	9200      	str	r2, [sp, #0]
 8002110:	2301      	movs	r3, #1
 8002112:	460a      	mov	r2, r1
 8002114:	21d5      	movs	r1, #213	; 0xd5
 8002116:	f003 fb53 	bl	80057c0 <HAL_I2C_Mem_Write>
 800211a:	b004      	add	sp, #16
 800211c:	bd10      	pop	{r4, pc}

0800211e <platform_read>:
 800211e:	b51f      	push	{r0, r1, r2, r3, r4, lr}
 8002120:	f44f 747a 	mov.w	r4, #1000	; 0x3e8
 8002124:	e9cd 3401 	strd	r3, r4, [sp, #4]
 8002128:	9200      	str	r2, [sp, #0]
 800212a:	2301      	movs	r3, #1
 800212c:	460a      	mov	r2, r1
 800212e:	21d5      	movs	r1, #213	; 0xd5
 8002130:	f003 fbd6 	bl	80058e0 <HAL_I2C_Mem_Read>
 8002134:	b004      	add	sp, #16
 8002136:	bd10      	pop	{r4, pc}

08002138 <EN_motors>:
 8002138:	4b04      	ldr	r3, [pc, #16]	; (800214c <EN_motors+0x14>)
 800213a:	4805      	ldr	r0, [pc, #20]	; (8002150 <EN_motors+0x18>)
 800213c:	2201      	movs	r2, #1
 800213e:	f44f 6180 	mov.w	r1, #1024	; 0x400
 8002142:	f883 203d 	strb.w	r2, [r3, #61]	; 0x3d
 8002146:	f002 bfcd 	b.w	80050e4 <HAL_GPIO_WritePin>
 800214a:	bf00      	nop
 800214c:	200017d0 	.word	0x200017d0
 8002150:	40020c00 	.word	0x40020c00

08002154 <DIS_motors>:
 8002154:	4b04      	ldr	r3, [pc, #16]	; (8002168 <DIS_motors+0x14>)
 8002156:	4805      	ldr	r0, [pc, #20]	; (800216c <DIS_motors+0x18>)
 8002158:	2200      	movs	r2, #0
 800215a:	f44f 6180 	mov.w	r1, #1024	; 0x400
 800215e:	f883 203d 	strb.w	r2, [r3, #61]	; 0x3d
 8002162:	f002 bfbf 	b.w	80050e4 <HAL_GPIO_WritePin>
 8002166:	bf00      	nop
 8002168:	200017d0 	.word	0x200017d0
 800216c:	40020c00 	.word	0x40020c00

08002170 <adc_to_rad>:
 8002170:	89c2      	ldrh	r2, [r0, #14]
 8002172:	8a03      	ldrh	r3, [r0, #16]
 8002174:	ed90 0a05 	vldr	s0, [r0, #20]
 8002178:	ed90 7a06 	vldr	s14, [r0, #24]
 800217c:	1ad3      	subs	r3, r2, r3
 800217e:	ee07 3a90 	vmov	s15, r3
 8002182:	ee30 7a47 	vsub.f32	s14, s0, s14
 8002186:	eef8 7ae7 	vcvt.f32.s32	s15, s15
 800218a:	4b09      	ldr	r3, [pc, #36]	; (80021b0 <adc_to_rad+0x40>)
 800218c:	eec7 6a27 	vdiv.f32	s13, s14, s15
 8002190:	ee07 2a90 	vmov	s15, r2
 8002194:	7802      	ldrb	r2, [r0, #0]
 8002196:	eef8 7ae7 	vcvt.f32.s32	s15, s15
 800219a:	f833 3012 	ldrh.w	r3, [r3, r2, lsl #1]
 800219e:	eea7 0ae6 	vfms.f32	s0, s15, s13
 80021a2:	ee07 3a90 	vmov	s15, r3
 80021a6:	eef8 7ae7 	vcvt.f32.s32	s15, s15
 80021aa:	eea7 0aa6 	vfma.f32	s0, s15, s13
 80021ae:	4770      	bx	lr
 80021b0:	20001160 	.word	0x20001160

080021b4 <ReadServos>:
 80021b4:	b510      	push	{r4, lr}
 80021b6:	4808      	ldr	r0, [pc, #32]	; (80021d8 <ReadServos+0x24>)
 80021b8:	4c08      	ldr	r4, [pc, #32]	; (80021dc <ReadServos+0x28>)
 80021ba:	2100      	movs	r1, #0
 80021bc:	f7ff ffd8 	bl	8002170 <adc_to_rad>
 80021c0:	f890 3021 	ldrb.w	r3, [r0, #33]	; 0x21
 80021c4:	3101      	adds	r1, #1
 80021c6:	eb04 0383 	add.w	r3, r4, r3, lsl #2
 80021ca:	290c      	cmp	r1, #12
 80021cc:	ed83 0a00 	vstr	s0, [r3]
 80021d0:	f100 0024 	add.w	r0, r0, #36	; 0x24
 80021d4:	d1f2      	bne.n	80021bc <ReadServos+0x8>
 80021d6:	bd10      	pop	{r4, pc}
 80021d8:	200001ac 	.word	0x200001ac
 80021dc:	2000037c 	.word	0x2000037c

080021e0 <Joints_init>:
 80021e0:	e92d 4ff0 	stmdb	sp!, {r4, r5, r6, r7, r8, r9, sl, fp, lr}
 80021e4:	2404      	movs	r4, #4
 80021e6:	7304      	strb	r4, [r0, #12]
 80021e8:	f880 4045 	strb.w	r4, [r0, #69]	; 0x45
 80021ec:	f640 0434 	movw	r4, #2100	; 0x834
 80021f0:	8684      	strh	r4, [r0, #52]	; 0x34
 80021f2:	f240 5414 	movw	r4, #1300	; 0x514
 80021f6:	8644      	strh	r4, [r0, #50]	; 0x32
 80021f8:	4c9d      	ldr	r4, [pc, #628]	; (8002470 <Joints_init+0x290>)
 80021fa:	63c4      	str	r4, [r0, #60]	; 0x3c
 80021fc:	4c9d      	ldr	r4, [pc, #628]	; (8002474 <Joints_init+0x294>)
 80021fe:	6504      	str	r4, [r0, #80]	; 0x50
 8002200:	2408      	movs	r4, #8
 8002202:	f880 4069 	strb.w	r4, [r0, #105]	; 0x69
 8002206:	f240 444c 	movw	r4, #1100	; 0x44c
 800220a:	f8a0 4056 	strh.w	r4, [r0, #86]	; 0x56
 800220e:	4c9a      	ldr	r4, [pc, #616]	; (8002478 <Joints_init+0x298>)
 8002210:	6604      	str	r4, [r0, #96]	; 0x60
 8002212:	f640 0202 	movw	r2, #2050	; 0x802
 8002216:	4c99      	ldr	r4, [pc, #612]	; (800247c <Joints_init+0x29c>)
 8002218:	4d99      	ldr	r5, [pc, #612]	; (8002480 <Joints_init+0x2a0>)
 800221a:	4e9a      	ldr	r6, [pc, #616]	; (8002484 <Joints_init+0x2a4>)
 800221c:	4b9a      	ldr	r3, [pc, #616]	; (8002488 <Joints_init+0x2a8>)
 800221e:	81c2      	strh	r2, [r0, #14]
 8002220:	65c4      	str	r4, [r0, #92]	; 0x5c
 8002222:	f102 7280 	add.w	r2, r2, #16777216	; 0x1000000
 8002226:	4c99      	ldr	r4, [pc, #612]	; (800248c <Joints_init+0x2ac>)
 8002228:	eddf 7a99 	vldr	s15, [pc, #612]	; 8002490 <Joints_init+0x2b0>
 800222c:	eddf 5a99 	vldr	s11, [pc, #612]	; 8002494 <Joints_init+0x2b4>
 8002230:	ed9f 5a99 	vldr	s10, [pc, #612]	; 8002498 <Joints_init+0x2b8>
 8002234:	ed9f 7a99 	vldr	s14, [pc, #612]	; 800249c <Joints_init+0x2bc>
 8002238:	edc0 5a05 	vstr	s11, [r0, #20]
 800223c:	f502 4279 	add.w	r2, r2, #63744	; 0xf900
 8002240:	f240 716c 	movw	r1, #1900	; 0x76c
 8002244:	e9c0 5301 	strd	r5, r3, [r0, #4]
 8002248:	e9c0 641c 	strd	r6, r4, [r0, #112]	; 0x70
 800224c:	2300      	movs	r3, #0
 800224e:	2403      	movs	r4, #3
 8002250:	f04f 4980 	mov.w	r9, #1073741824	; 0x40000000
 8002254:	2702      	movs	r7, #2
 8002256:	f04f 0c01 	mov.w	ip, #1
 800225a:	62c2      	str	r2, [r0, #44]	; 0x2c
 800225c:	4a90      	ldr	r2, [pc, #576]	; (80024a0 <Joints_init+0x2c0>)
 800225e:	8201      	strh	r1, [r0, #16]
 8002260:	f8c0 9028 	str.w	r9, [r0, #40]	; 0x28
 8002264:	f880 7030 	strb.w	r7, [r0, #48]	; 0x30
 8002268:	6402      	str	r2, [r0, #64]	; 0x40
 800226a:	64c5      	str	r5, [r0, #76]	; 0x4c
 800226c:	f880 c054 	strb.w	ip, [r0, #84]	; 0x54
 8002270:	6642      	str	r2, [r0, #100]	; 0x64
 8002272:	f8a0 1058 	strh.w	r1, [r0, #88]	; 0x58
 8002276:	f880 4078 	strb.w	r4, [r0, #120]	; 0x78
 800227a:	edc0 7a07 	vstr	s15, [r0, #28]
 800227e:	f880 3021 	strb.w	r3, [r0, #33]	; 0x21
 8002282:	ed80 5a06 	vstr	s10, [r0, #24]
 8002286:	ed80 7a0e 	vstr	s14, [r0, #56]	; 0x38
 800228a:	edc0 7a22 	vstr	s15, [r0, #136]	; 0x88
 800228e:	f880 c08d 	strb.w	ip, [r0, #141]	; 0x8d
 8002292:	f8c0 6094 	str.w	r6, [r0, #148]	; 0x94
 8002296:	4e83      	ldr	r6, [pc, #524]	; (80024a4 <Joints_init+0x2c4>)
 8002298:	f8c0 6098 	str.w	r6, [r0, #152]	; 0x98
 800229c:	f8c0 20ac 	str.w	r2, [r0, #172]	; 0xac
 80022a0:	f44f 66fa 	mov.w	r6, #2000	; 0x7d0
 80022a4:	f8c0 20d0 	str.w	r2, [r0, #208]	; 0xd0
 80022a8:	f44f 6296 	mov.w	r2, #1200	; 0x4b0
 80022ac:	f8a0 60a0 	strh.w	r6, [r0, #160]	; 0xa0
 80022b0:	f8a0 20c2 	strh.w	r2, [r0, #194]	; 0xc2
 80022b4:	f240 46f6 	movw	r6, #1270	; 0x4f6
 80022b8:	4a7b      	ldr	r2, [pc, #492]	; (80024a8 <Joints_init+0x2c8>)
 80022ba:	f8a0 609e 	strh.w	r6, [r0, #158]	; 0x9e
 80022be:	f240 5e1c 	movw	lr, #1308	; 0x51c
 80022c2:	4e7a      	ldr	r6, [pc, #488]	; (80024ac <Joints_init+0x2cc>)
 80022c4:	f8c0 20cc 	str.w	r2, [r0, #204]	; 0xcc
 80022c8:	4a79      	ldr	r2, [pc, #484]	; (80024b0 <Joints_init+0x2d0>)
 80022ca:	f8a0 e07a 	strh.w	lr, [r0, #122]	; 0x7a
 80022ce:	f8c0 60a8 	str.w	r6, [r0, #168]	; 0xa8
 80022d2:	f8df e218 	ldr.w	lr, [pc, #536]	; 80024ec <Joints_init+0x30c>
 80022d6:	4e77      	ldr	r6, [pc, #476]	; (80024b4 <Joints_init+0x2d4>)
 80022d8:	f8c0 20c8 	str.w	r2, [r0, #200]	; 0xc8
 80022dc:	4a76      	ldr	r2, [pc, #472]	; (80024b8 <Joints_init+0x2d8>)
 80022de:	ed9f 6a77 	vldr	s12, [pc, #476]	; 80024bc <Joints_init+0x2dc>
 80022e2:	eddf 6a77 	vldr	s13, [pc, #476]	; 80024c0 <Joints_init+0x2e0>
 80022e6:	f8c0 60a4 	str.w	r6, [r0, #164]	; 0xa4
 80022ea:	f44f 7601 	mov.w	r6, #516	; 0x204
 80022ee:	e9c0 2e37 	strd	r2, lr, [r0, #220]	; 0xdc
 80022f2:	f240 5c46 	movw	ip, #1350	; 0x546
 80022f6:	f04f 0b05 	mov.w	fp, #5
 80022fa:	f04f 0a0a 	mov.w	sl, #10
 80022fe:	f8a0 60bc 	strh.w	r6, [r0, #188]	; 0xbc
 8002302:	f04f 0809 	mov.w	r8, #9
 8002306:	2606      	movs	r6, #6
 8002308:	f880 70f9 	strb.w	r7, [r0, #249]	; 0xf9
 800230c:	f44f 6eaf 	mov.w	lr, #1400	; 0x578
 8002310:	f240 57dc 	movw	r7, #1500	; 0x5dc
 8002314:	f8a0 c07c 	strh.w	ip, [r0, #124]	; 0x7c
 8002318:	f880 409c 	strb.w	r4, [r0, #156]	; 0x9c
 800231c:	f880 b0b1 	strb.w	fp, [r0, #177]	; 0xb1
 8002320:	f8c0 50b8 	str.w	r5, [r0, #184]	; 0xb8
 8002324:	f880 40be 	strb.w	r4, [r0, #190]	; 0xbe
 8002328:	f880 60c0 	strb.w	r6, [r0, #192]	; 0xc0
 800232c:	f8a0 10c4 	strh.w	r1, [r0, #196]	; 0xc4
 8002330:	f880 a0e4 	strb.w	sl, [r0, #228]	; 0xe4
 8002334:	f8a0 70e6 	strh.w	r7, [r0, #230]	; 0xe6
 8002338:	ed80 6a21 	vstr	s12, [r0, #132]	; 0x84
 800233c:	edc0 6a20 	vstr	s13, [r0, #128]	; 0x80
 8002340:	f880 30bf 	strb.w	r3, [r0, #191]	; 0xbf
 8002344:	f880 80d5 	strb.w	r8, [r0, #213]	; 0xd5
 8002348:	edc0 7a3d 	vstr	s15, [r0, #244]	; 0xf4
 800234c:	f8a0 e0e8 	strh.w	lr, [r0, #232]	; 0xe8
 8002350:	ed80 5a3c 	vstr	s10, [r0, #240]	; 0xf0
 8002354:	edc0 5a3b 	vstr	s11, [r0, #236]	; 0xec
 8002358:	eddf 5a5a 	vldr	s11, [pc, #360]	; 80024c4 <Joints_init+0x2e4>
 800235c:	f880 a141 	strb.w	sl, [r0, #321]	; 0x141
 8002360:	edc0 5a46 	vstr	s11, [r0, #280]	; 0x118
 8002364:	eddf 5a58 	vldr	s11, [pc, #352]	; 80024c8 <Joints_init+0x2e8>
 8002368:	f880 611d 	strb.w	r6, [r0, #285]	; 0x11d
 800236c:	f640 1af6 	movw	sl, #2550	; 0x9f6
 8002370:	f240 3701 	movw	r7, #769	; 0x301
 8002374:	f44f 66e1 	mov.w	r6, #1800	; 0x708
 8002378:	edc0 5a45 	vstr	s11, [r0, #276]	; 0x114
 800237c:	f8c0 5124 	str.w	r5, [r0, #292]	; 0x124
 8002380:	f8a0 a12e 	strh.w	sl, [r0, #302]	; 0x12e
 8002384:	4d51      	ldr	r5, [pc, #324]	; (80024cc <Joints_init+0x2ec>)
 8002386:	f8df a168 	ldr.w	sl, [pc, #360]	; 80024f0 <Joints_init+0x310>
 800238a:	f880 4165 	strb.w	r4, [r0, #357]	; 0x165
 800238e:	eddf 5a50 	vldr	s11, [pc, #320]	; 80024d0 <Joints_init+0x2f0>
 8002392:	4c50      	ldr	r4, [pc, #320]	; (80024d4 <Joints_init+0x2f4>)
 8002394:	f8c0 7104 	str.w	r7, [r0, #260]	; 0x104
 8002398:	f8a0 610c 	strh.w	r6, [r0, #268]	; 0x10c
 800239c:	2707      	movs	r7, #7
 800239e:	f640 2628 	movw	r6, #2600	; 0xa28
 80023a2:	f8c0 5128 	str.w	r5, [r0, #296]	; 0x128
 80023a6:	f880 b12c 	strb.w	fp, [r0, #300]	; 0x12c
 80023aa:	f240 753a 	movw	r5, #1850	; 0x73a
 80023ae:	f8df b144 	ldr.w	fp, [pc, #324]	; 80024f4 <Joints_init+0x314>
 80023b2:	f8c0 a138 	str.w	sl, [r0, #312]	; 0x138
 80023b6:	f8c0 9148 	str.w	r9, [r0, #328]	; 0x148
 80023ba:	f8a0 c152 	strh.w	ip, [r0, #338]	; 0x152
 80023be:	f8c0 4170 	str.w	r4, [r0, #368]	; 0x170
 80023c2:	f8df a134 	ldr.w	sl, [pc, #308]	; 80024f8 <Joints_init+0x318>
 80023c6:	f8df 9134 	ldr.w	r9, [pc, #308]	; 80024fc <Joints_init+0x31c>
 80023ca:	f8df c134 	ldr.w	ip, [pc, #308]	; 8002500 <Joints_init+0x320>
 80023ce:	f8c0 2100 	str.w	r2, [r0, #256]	; 0x100
 80023d2:	240b      	movs	r4, #11
 80023d4:	f8c0 216c 	str.w	r2, [r0, #364]	; 0x16c
 80023d8:	f880 7108 	strb.w	r7, [r0, #264]	; 0x108
 80023dc:	f8a0 610a 	strh.w	r6, [r0, #266]	; 0x10a
 80023e0:	edc0 5a44 	vstr	s11, [r0, #272]	; 0x110
 80023e4:	f8c0 b13c 	str.w	fp, [r0, #316]	; 0x13c
 80023e8:	f8a0 5130 	strh.w	r5, [r0, #304]	; 0x130
 80023ec:	f8c0 a134 	str.w	sl, [r0, #308]	; 0x134
 80023f0:	f8c0 914c 	str.w	r9, [r0, #332]	; 0x14c
 80023f4:	f880 8150 	strb.w	r8, [r0, #336]	; 0x150
 80023f8:	edc0 7a58 	vstr	s15, [r0, #352]	; 0x160
 80023fc:	f8a0 e154 	strh.w	lr, [r0, #340]	; 0x154
 8002400:	ed80 6a57 	vstr	s12, [r0, #348]	; 0x15c
 8002404:	edc0 6a56 	vstr	s13, [r0, #344]	; 0x158
 8002408:	f880 4174 	strb.w	r4, [r0, #372]	; 0x174
 800240c:	f8c0 c184 	str.w	ip, [r0, #388]	; 0x184
 8002410:	f880 7189 	strb.w	r7, [r0, #393]	; 0x189
 8002414:	f8a0 1178 	strh.w	r1, [r0, #376]	; 0x178
 8002418:	f8c0 2190 	str.w	r2, [r0, #400]	; 0x190
 800241c:	4a2e      	ldr	r2, [pc, #184]	; (80024d8 <Joints_init+0x2f8>)
 800241e:	f8c0 2194 	str.w	r2, [r0, #404]	; 0x194
 8002422:	f44f 61b9 	mov.w	r1, #1480	; 0x5c8
 8002426:	4a2d      	ldr	r2, [pc, #180]	; (80024dc <Joints_init+0x2fc>)
 8002428:	f8a0 1176 	strh.w	r1, [r0, #374]	; 0x176
 800242c:	f8c0 21a4 	str.w	r2, [r0, #420]	; 0x1a4
 8002430:	492b      	ldr	r1, [pc, #172]	; (80024e0 <Joints_init+0x300>)
 8002432:	4a2c      	ldr	r2, [pc, #176]	; (80024e4 <Joints_init+0x304>)
 8002434:	f8c0 21a0 	str.w	r2, [r0, #416]	; 0x1a0
 8002438:	f8c0 1180 	str.w	r1, [r0, #384]	; 0x180
 800243c:	ed80 7a5f 	vstr	s14, [r0, #380]	; 0x17c
 8002440:	f880 3198 	strb.w	r3, [r0, #408]	; 0x198
 8002444:	f8c0 b1a8 	str.w	fp, [r0, #424]	; 0x1a8
 8002448:	f880 41ad 	strb.w	r4, [r0, #429]	; 0x1ad
 800244c:	f8a0 519c 	strh.w	r5, [r0, #412]	; 0x19c
 8002450:	f8a0 619a 	strh.w	r6, [r0, #410]	; 0x19a
 8002454:	461a      	mov	r2, r3
 8002456:	7003      	strb	r3, [r0, #0]
 8002458:	3301      	adds	r3, #1
 800245a:	2b0c      	cmp	r3, #12
 800245c:	f880 2020 	strb.w	r2, [r0, #32]
 8002460:	f100 0024 	add.w	r0, r0, #36	; 0x24
 8002464:	d1f7      	bne.n	8002456 <Joints_init+0x276>
 8002466:	e8bd 4ff0 	ldmia.w	sp!, {r4, r5, r6, r7, r8, r9, sl, fp, lr}
 800246a:	481f      	ldr	r0, [pc, #124]	; (80024e8 <Joints_init+0x308>)
 800246c:	f006 b81e 	b.w	80084ac <puts>
 8002470:	3fc1a6b5 	.word	0x3fc1a6b5
 8002474:	00050104 	.word	0x00050104
 8002478:	3fe28f5c 	.word	0x3fe28f5c
 800247c:	4033e282 	.word	0x4033e282
 8002480:	40000800 	.word	0x40000800
 8002484:	40000400 	.word	0x40000400
 8002488:	01030404 	.word	0x01030404
 800248c:	01040103 	.word	0x01040103
 8002490:	bdcccccd 	.word	0xbdcccccd
 8002494:	3fed42c4 	.word	0x3fed42c4
 8002498:	3fd6b1c4 	.word	0x3fd6b1c4
 800249c:	40246738 	.word	0x40246738
 80024a0:	be4ccccd 	.word	0xbe4ccccd
 80024a4:	00010208 	.word	0x00010208
 80024a8:	3fde45a2 	.word	0x3fde45a2
 80024ac:	3fc961e5 	.word	0x3fc961e5
 80024b0:	402e71de 	.word	0x402e71de
 80024b4:	40271c43 	.word	0x40271c43
 80024b8:	40010000 	.word	0x40010000
 80024bc:	3fbb6ae8 	.word	0x3fbb6ae8
 80024c0:	3fa4dd2f 	.word	0x3fa4dd2f
 80024c4:	80000000 	.word	0x80000000
 80024c8:	3fc8bac7 	.word	0x3fc8bac7
 80024cc:	00020304 	.word	0x00020304
 80024d0:	3f07c84b 	.word	0x3f07c84b
 80024d4:	01000401 	.word	0x01000401
 80024d8:	00040101 	.word	0x00040101
 80024dc:	3faf8d50 	.word	0x3faf8d50
 80024e0:	3fb14e3c 	.word	0x3fb14e3c
 80024e4:	3ea95e9e 	.word	0x3ea95e9e
 80024e8:	0800b440 	.word	0x0800b440
 80024ec:	01050201 	.word	0x01050201
 80024f0:	3fb3d70a 	.word	0x3fb3d70a
 80024f4:	3e4ccccd 	.word	0x3e4ccccd
 80024f8:	3ed4e3bd 	.word	0x3ed4e3bd
 80024fc:	01020202 	.word	0x01020202
 8002500:	3dcccccd 	.word	0x3dcccccd

08002504 <LSM_init>:
 8002504:	b513      	push	{r0, r1, r4, lr}
 8002506:	4c1f      	ldr	r4, [pc, #124]	; (8002584 <LSM_init+0x80>)
 8002508:	481f      	ldr	r0, [pc, #124]	; (8002588 <LSM_init+0x84>)
 800250a:	4621      	mov	r1, r4
 800250c:	f7ff fb89 	bl	8001c22 <lsm6dso32x_device_id_get>
 8002510:	7821      	ldrb	r1, [r4, #0]
 8002512:	2969      	cmp	r1, #105	; 0x69
 8002514:	d006      	beq.n	8002524 <LSM_init+0x20>
 8002516:	481d      	ldr	r0, [pc, #116]	; (800258c <LSM_init+0x88>)
 8002518:	f005 ff42 	bl	80083a0 <iprintf>
 800251c:	481c      	ldr	r0, [pc, #112]	; (8002590 <LSM_init+0x8c>)
 800251e:	f005 ffc5 	bl	80084ac <puts>
 8002522:	e7fe      	b.n	8002522 <LSM_init+0x1e>
 8002524:	4818      	ldr	r0, [pc, #96]	; (8002588 <LSM_init+0x84>)
 8002526:	4c18      	ldr	r4, [pc, #96]	; (8002588 <LSM_init+0x84>)
 8002528:	2101      	movs	r1, #1
 800252a:	f7ff fb7f 	bl	8001c2c <lsm6dso32x_reset_set>
 800252e:	f10d 0107 	add.w	r1, sp, #7
 8002532:	4620      	mov	r0, r4
 8002534:	f7ff fb91 	bl	8001c5a <lsm6dso32x_reset_get>
 8002538:	f89d 3007 	ldrb.w	r3, [sp, #7]
 800253c:	2b00      	cmp	r3, #0
 800253e:	d1f6      	bne.n	800252e <LSM_init+0x2a>
 8002540:	2180      	movs	r1, #128	; 0x80
 8002542:	4811      	ldr	r0, [pc, #68]	; (8002588 <LSM_init+0x84>)
 8002544:	f7ff fbae 	bl	8001ca4 <lsm6dso32x_i3c_disable_set>
 8002548:	210a      	movs	r1, #10
 800254a:	480f      	ldr	r0, [pc, #60]	; (8002588 <LSM_init+0x84>)
 800254c:	f7ff fc97 	bl	8001e7e <lsm6dso32x_xl_data_rate_set>
 8002550:	2103      	movs	r1, #3
 8002552:	480d      	ldr	r0, [pc, #52]	; (8002588 <LSM_init+0x84>)
 8002554:	f7ff fac8 	bl	8001ae8 <lsm6dso32x_xl_full_scale_set>
 8002558:	210a      	movs	r1, #10
 800255a:	480b      	ldr	r0, [pc, #44]	; (8002588 <LSM_init+0x84>)
 800255c:	f7ff fd2f 	bl	8001fbe <lsm6dso32x_gy_data_rate_set>
 8002560:	2106      	movs	r1, #6
 8002562:	4809      	ldr	r0, [pc, #36]	; (8002588 <LSM_init+0x84>)
 8002564:	f7ff fad7 	bl	8001b16 <lsm6dso32x_gy_full_scale_set>
 8002568:	2102      	movs	r1, #2
 800256a:	4807      	ldr	r0, [pc, #28]	; (8002588 <LSM_init+0x84>)
 800256c:	f7ff fbc6 	bl	8001cfc <lsm6dso32x_6d_threshold_set>
 8002570:	2101      	movs	r1, #1
 8002572:	4805      	ldr	r0, [pc, #20]	; (8002588 <LSM_init+0x84>)
 8002574:	f7ff fb7f 	bl	8001c76 <lsm6dso32x_xl_lp2_on_6d_set>
 8002578:	2101      	movs	r1, #1
 800257a:	4803      	ldr	r0, [pc, #12]	; (8002588 <LSM_init+0x84>)
 800257c:	f7ff fbd5 	bl	8001d2a <lsm6dso32x_4d_mode_set>
 8002580:	b002      	add	sp, #8
 8002582:	bd10      	pop	{r4, pc}
 8002584:	20001814 	.word	0x20001814
 8002588:	20001190 	.word	0x20001190
 800258c:	0800b460 	.word	0x0800b460
 8002590:	0800b47f 	.word	0x0800b47f

08002594 <Rodog_init>:
 8002594:	2300      	movs	r3, #0
 8002596:	60c3      	str	r3, [r0, #12]
 8002598:	6103      	str	r3, [r0, #16]
 800259a:	6143      	str	r3, [r0, #20]
 800259c:	6003      	str	r3, [r0, #0]
 800259e:	6043      	str	r3, [r0, #4]
 80025a0:	6083      	str	r3, [r0, #8]
 80025a2:	f04f 537e 	mov.w	r3, #1065353216	; 0x3f800000
 80025a6:	61c3      	str	r3, [r0, #28]
 80025a8:	4b06      	ldr	r3, [pc, #24]	; (80025c4 <Rodog_init+0x30>)
 80025aa:	6383      	str	r3, [r0, #56]	; 0x38
 80025ac:	2203      	movs	r2, #3
 80025ae:	2300      	movs	r3, #0
 80025b0:	e9c0 3309 	strd	r3, r3, [r0, #36]	; 0x24
 80025b4:	e9c0 330b 	strd	r3, r3, [r0, #44]	; 0x2c
 80025b8:	8783      	strh	r3, [r0, #60]	; 0x3c
 80025ba:	f880 2034 	strb.w	r2, [r0, #52]	; 0x34
 80025be:	4802      	ldr	r0, [pc, #8]	; (80025c8 <Rodog_init+0x34>)
 80025c0:	f005 bf74 	b.w	80084ac <puts>
 80025c4:	41200000 	.word	0x41200000
 80025c8:	0800b496 	.word	0x0800b496

080025cc <WriteJoint>:
 80025cc:	f890 3020 	ldrb.w	r3, [r0, #32]
 80025d0:	4359      	muls	r1, r3
 80025d2:	7a43      	ldrb	r3, [r0, #9]
 80025d4:	3b01      	subs	r3, #1
 80025d6:	2b03      	cmp	r3, #3
 80025d8:	d80e      	bhi.n	80025f8 <WriteJoint+0x2c>
 80025da:	e8df f003 	tbb	[pc, r3]
 80025de:	0502      	.short	0x0502
 80025e0:	0b08      	.short	0x0b08
 80025e2:	6843      	ldr	r3, [r0, #4]
 80025e4:	6359      	str	r1, [r3, #52]	; 0x34
 80025e6:	4770      	bx	lr
 80025e8:	6843      	ldr	r3, [r0, #4]
 80025ea:	6399      	str	r1, [r3, #56]	; 0x38
 80025ec:	4770      	bx	lr
 80025ee:	6843      	ldr	r3, [r0, #4]
 80025f0:	63d9      	str	r1, [r3, #60]	; 0x3c
 80025f2:	4770      	bx	lr
 80025f4:	6843      	ldr	r3, [r0, #4]
 80025f6:	6419      	str	r1, [r3, #64]	; 0x40
 80025f8:	4770      	bx	lr
 80025fa:	0000      	movs	r0, r0
 80025fc:	0000      	movs	r0, r0
	...

08002600 <PublishServos>:
 8002600:	e92d 47f0 	stmdb	sp!, {r4, r5, r6, r7, r8, r9, sl, lr}
 8002604:	f20f 095c 	addw	r9, pc, #92	; 0x5c
 8002608:	e9d9 8900 	ldrd	r8, r9, [r9]
 800260c:	a717      	add	r7, pc, #92	; (adr r7, 800266c <PublishServos+0x6c>)
 800260e:	e9d7 6700 	ldrd	r6, r7, [r7]
 8002612:	4c13      	ldr	r4, [pc, #76]	; (8002660 <PublishServos+0x60>)
 8002614:	f8df a05c 	ldr.w	sl, [pc, #92]	; 8002674 <PublishServos+0x74>
 8002618:	2500      	movs	r5, #0
 800261a:	f894 3021 	ldrb.w	r3, [r4, #33]	; 0x21
 800261e:	edd4 7a07 	vldr	s15, [r4, #28]
 8002622:	eb0a 0383 	add.w	r3, sl, r3, lsl #2
 8002626:	ed93 7a00 	vldr	s14, [r3]
 800262a:	ee77 7a27 	vadd.f32	s15, s14, s15
 800262e:	3501      	adds	r5, #1
 8002630:	ee17 0a90 	vmov	r0, s15
 8002634:	f7fd ff80 	bl	8000538 <__aeabi_f2d>
 8002638:	4642      	mov	r2, r8
 800263a:	464b      	mov	r3, r9
 800263c:	f7fd ffd4 	bl	80005e8 <__aeabi_dmul>
 8002640:	4632      	mov	r2, r6
 8002642:	463b      	mov	r3, r7
 8002644:	f7fd fe1a 	bl	800027c <__adddf3>
 8002648:	f7fe faa6 	bl	8000b98 <__aeabi_d2uiz>
 800264c:	4601      	mov	r1, r0
 800264e:	4620      	mov	r0, r4
 8002650:	f7ff ffbc 	bl	80025cc <WriteJoint>
 8002654:	2d0c      	cmp	r5, #12
 8002656:	f104 0424 	add.w	r4, r4, #36	; 0x24
 800265a:	d1de      	bne.n	800261a <PublishServos+0x1a>
 800265c:	e8bd 87f0 	ldmia.w	sp!, {r4, r5, r6, r7, r8, r9, sl, pc}
 8002660:	200001ac 	.word	0x200001ac
 8002664:	7df50802 	.word	0x7df50802
 8002668:	409e0482 	.word	0x409e0482
 800266c:	00000000 	.word	0x00000000
 8002670:	40977000 	.word	0x40977000
 8002674:	2000016c 	.word	0x2000016c

08002678 <gyro_to_radps>:
 8002678:	b508      	push	{r3, lr}
 800267a:	f7ff fa29 	bl	8001ad0 <lsm6dso32x_from_fs2000_to_mdps>
 800267e:	eddf 7a02 	vldr	s15, [pc, #8]	; 8002688 <gyro_to_radps+0x10>
 8002682:	ee20 0a27 	vmul.f32	s0, s0, s15
 8002686:	bd08      	pop	{r3, pc}
 8002688:	379268ad 	.word	0x379268ad

0800268c <get_xl>:
 800268c:	e92d 4370 	stmdb	sp!, {r4, r5, r6, r8, r9, lr}
 8002690:	ed2d 8b04 	vpush	{d8-d9}
 8002694:	b084      	sub	sp, #16
 8002696:	4846      	ldr	r0, [pc, #280]	; (80027b0 <get_xl+0x124>)
 8002698:	f10d 010f 	add.w	r1, sp, #15
 800269c:	f7ff fa52 	bl	8001b44 <lsm6dso32x_xl_flag_data_ready_get>
 80026a0:	f89d 300f 	ldrb.w	r3, [sp, #15]
 80026a4:	2b00      	cmp	r3, #0
 80026a6:	d07e      	beq.n	80027a6 <get_xl+0x11a>
 80026a8:	4d42      	ldr	r5, [pc, #264]	; (80027b4 <get_xl+0x128>)
 80026aa:	4841      	ldr	r0, [pc, #260]	; (80027b0 <get_xl+0x124>)
 80026ac:	4c42      	ldr	r4, [pc, #264]	; (80027b8 <get_xl+0x12c>)
 80026ae:	4e43      	ldr	r6, [pc, #268]	; (80027bc <get_xl+0x130>)
 80026b0:	4629      	mov	r1, r5
 80026b2:	f7ff fa81 	bl	8001bb8 <lsm6dso32x_acceleration_raw_get>
 80026b6:	f9b5 3000 	ldrsh.w	r3, [r5]
 80026ba:	eddf 7a41 	vldr	s15, [pc, #260]	; 80027c0 <get_xl+0x134>
 80026be:	ed9f 7a41 	vldr	s14, [pc, #260]	; 80027c4 <get_xl+0x138>
 80026c2:	ee06 3a90 	vmov	s13, r3
 80026c6:	f9b5 3002 	ldrsh.w	r3, [r5, #2]
 80026ca:	eef8 6ae6 	vcvt.f32.s32	s13, s13
 80026ce:	eeb0 9a67 	vmov.f32	s18, s15
 80026d2:	eea6 9a87 	vfma.f32	s18, s13, s14
 80026d6:	ee06 3a90 	vmov	s13, r3
 80026da:	f9b5 3004 	ldrsh.w	r3, [r5, #4]
 80026de:	4d3a      	ldr	r5, [pc, #232]	; (80027c8 <get_xl+0x13c>)
 80026e0:	ed84 9a00 	vstr	s18, [r4]
 80026e4:	eef8 6ae6 	vcvt.f32.s32	s13, s13
 80026e8:	eef0 9a67 	vmov.f32	s19, s15
 80026ec:	eee6 9a87 	vfma.f32	s19, s13, s14
 80026f0:	ee06 3a90 	vmov	s13, r3
 80026f4:	eef8 6ae6 	vcvt.f32.s32	s13, s13
 80026f8:	edc6 9a00 	vstr	s19, [r6]
 80026fc:	eee6 7a87 	vfma.f32	s15, s13, s14
 8002700:	ee17 0a90 	vmov	r0, s15
 8002704:	edc5 7a00 	vstr	s15, [r5]
 8002708:	f7fd ff16 	bl	8000538 <__aeabi_f2d>
 800270c:	ec41 0b18 	vmov	d8, r0, r1
 8002710:	ee19 0a90 	vmov	r0, s19
 8002714:	f7fd ff10 	bl	8000538 <__aeabi_f2d>
 8002718:	eeb0 1a48 	vmov.f32	s2, s16
 800271c:	eef0 1a68 	vmov.f32	s3, s17
 8002720:	ec41 0b10 	vmov	d0, r0, r1
 8002724:	f006 feb2 	bl	800948c <atan2>
 8002728:	ec51 0b10 	vmov	r0, r1, d0
 800272c:	f7fe fa54 	bl	8000bd8 <__aeabi_d2f>
 8002730:	edd5 7a00 	vldr	s15, [r5]
 8002734:	ed96 7a00 	vldr	s14, [r6]
 8002738:	6020      	str	r0, [r4, #0]
 800273a:	ee67 7aa7 	vmul.f32	s15, s15, s15
 800273e:	ed9f 8a23 	vldr	s16, [pc, #140]	; 80027cc <get_xl+0x140>
 8002742:	eee7 7a07 	vfma.f32	s15, s14, s14
 8002746:	ee17 0a90 	vmov	r0, s15
 800274a:	f7fd fef5 	bl	8000538 <__aeabi_f2d>
 800274e:	ec41 0b10 	vmov	d0, r0, r1
 8002752:	f006 fe9d 	bl	8009490 <sqrt>
 8002756:	eef1 7a49 	vneg.f32	s15, s18
 800275a:	ee17 0a90 	vmov	r0, s15
 800275e:	ed8d 0b00 	vstr	d0, [sp]
 8002762:	f7fd fee9 	bl	8000538 <__aeabi_f2d>
 8002766:	ed9d 1b00 	vldr	d1, [sp]
 800276a:	ec41 0b10 	vmov	d0, r0, r1
 800276e:	f006 fe8d 	bl	800948c <atan2>
 8002772:	ec59 8b10 	vmov	r8, r9, d0
 8002776:	ed94 0a00 	vldr	s0, [r4]
 800277a:	ee20 0a08 	vmul.f32	s0, s0, s16
 800277e:	f006 fddb 	bl	8009338 <floorf>
 8002782:	eec0 7a08 	vdiv.f32	s15, s0, s16
 8002786:	4649      	mov	r1, r9
 8002788:	4640      	mov	r0, r8
 800278a:	edc4 7a00 	vstr	s15, [r4]
 800278e:	f7fe fa23 	bl	8000bd8 <__aeabi_d2f>
 8002792:	ee07 0a90 	vmov	s15, r0
 8002796:	ee27 0a88 	vmul.f32	s0, s15, s16
 800279a:	f006 fdcd 	bl	8009338 <floorf>
 800279e:	eec0 7a08 	vdiv.f32	s15, s0, s16
 80027a2:	edc6 7a00 	vstr	s15, [r6]
 80027a6:	b004      	add	sp, #16
 80027a8:	ecbd 8b04 	vpop	{d8-d9}
 80027ac:	e8bd 8370 	ldmia.w	sp!, {r4, r5, r6, r8, r9, pc}
 80027b0:	20001190 	.word	0x20001190
 80027b4:	20001184 	.word	0x20001184
 80027b8:	200003ac 	.word	0x200003ac
 80027bc:	200004b8 	.word	0x200004b8
 80027c0:	00000000 	.word	0x00000000
 80027c4:	39800801 	.word	0x39800801
 80027c8:	200004b4 	.word	0x200004b4
 80027cc:	447a0000 	.word	0x447a0000

080027d0 <get_gyro>:
 80027d0:	b530      	push	{r4, r5, lr}
 80027d2:	ed2d 8b04 	vpush	{d8-d9}
 80027d6:	b083      	sub	sp, #12
 80027d8:	481c      	ldr	r0, [pc, #112]	; (800284c <get_gyro+0x7c>)
 80027da:	f10d 0107 	add.w	r1, sp, #7
 80027de:	f7ff f9bf 	bl	8001b60 <lsm6dso32x_gy_flag_data_ready_get>
 80027e2:	f89d 3007 	ldrb.w	r3, [sp, #7]
 80027e6:	b363      	cbz	r3, 8002842 <get_gyro+0x72>
 80027e8:	4d19      	ldr	r5, [pc, #100]	; (8002850 <get_gyro+0x80>)
 80027ea:	4818      	ldr	r0, [pc, #96]	; (800284c <get_gyro+0x7c>)
 80027ec:	ed9f 9a19 	vldr	s18, [pc, #100]	; 8002854 <get_gyro+0x84>
 80027f0:	4c19      	ldr	r4, [pc, #100]	; (8002858 <get_gyro+0x88>)
 80027f2:	eddf 8a1a 	vldr	s17, [pc, #104]	; 800285c <get_gyro+0x8c>
 80027f6:	4629      	mov	r1, r5
 80027f8:	f7ff f9c0 	bl	8001b7c <lsm6dso32x_angular_rate_raw_get>
 80027fc:	f9b5 0000 	ldrsh.w	r0, [r5]
 8002800:	f7ff ff3a 	bl	8002678 <gyro_to_radps>
 8002804:	ee30 0a09 	vadd.f32	s0, s0, s18
 8002808:	f9b5 0002 	ldrsh.w	r0, [r5, #2]
 800280c:	ed84 0a00 	vstr	s0, [r4]
 8002810:	f7ff ff32 	bl	8002678 <gyro_to_radps>
 8002814:	eeb0 8a40 	vmov.f32	s16, s0
 8002818:	ed94 0a00 	vldr	s0, [r4]
 800281c:	ee20 0a28 	vmul.f32	s0, s0, s17
 8002820:	f006 fd8a 	bl	8009338 <floorf>
 8002824:	eec0 7a28 	vdiv.f32	s15, s0, s17
 8002828:	ee38 0a09 	vadd.f32	s0, s16, s18
 800282c:	edc4 7a00 	vstr	s15, [r4]
 8002830:	ee20 0a28 	vmul.f32	s0, s0, s17
 8002834:	f006 fd80 	bl	8009338 <floorf>
 8002838:	eec0 7a28 	vdiv.f32	s15, s0, s17
 800283c:	4b08      	ldr	r3, [pc, #32]	; (8002860 <get_gyro+0x90>)
 800283e:	edc3 7a00 	vstr	s15, [r3]
 8002842:	b003      	add	sp, #12
 8002844:	ecbd 8b04 	vpop	{d8-d9}
 8002848:	bd30      	pop	{r4, r5, pc}
 800284a:	bf00      	nop
 800284c:	20001190 	.word	0x20001190
 8002850:	2000118a 	.word	0x2000118a
 8002854:	00000000 	.word	0x00000000
 8002858:	200004b0 	.word	0x200004b0
 800285c:	447a0000 	.word	0x447a0000
 8002860:	200005bc 	.word	0x200005bc
 8002864:	00000000 	.word	0x00000000

08002868 <PID_body>:
 8002868:	b5d0      	push	{r4, r6, r7, lr}
 800286a:	4b61      	ldr	r3, [pc, #388]	; (80029f0 <PID_body+0x188>)
 800286c:	ed2d 8b06 	vpush	{d8-d10}
 8002870:	edd3 9a00 	vldr	s19, [r3]
 8002874:	4b5f      	ldr	r3, [pc, #380]	; (80029f4 <PID_body+0x18c>)
 8002876:	edd3 7a03 	vldr	s15, [r3, #12]
 800287a:	ed93 8a01 	vldr	s16, [r3, #4]
 800287e:	ed93 7a00 	vldr	s14, [r3]
 8002882:	edd3 6a02 	vldr	s13, [r3, #8]
 8002886:	ee39 0a80 	vadd.f32	s0, s19, s0
 800288a:	ee27 8a88 	vmul.f32	s16, s15, s16
 800288e:	ed83 0a03 	vstr	s0, [r3, #12]
 8002892:	eea0 8a07 	vfma.f32	s16, s0, s14
 8002896:	ed93 7a04 	vldr	s14, [r3, #16]
 800289a:	edc3 7a04 	vstr	s15, [r3, #16]
 800289e:	eea6 8a87 	vfma.f32	s16, s13, s14
 80028a2:	ed93 7a05 	vldr	s14, [r3, #20]
 80028a6:	eddf 7a54 	vldr	s15, [pc, #336]	; 80029f8 <PID_body+0x190>
 80028aa:	ee38 8a07 	vadd.f32	s16, s16, s14
 80028ae:	eeb4 8ae7 	vcmpe.f32	s16, s15
 80028b2:	eef1 fa10 	vmrs	APSR_nzcv, fpscr
 80028b6:	ed83 8a05 	vstr	s16, [r3, #20]
 80028ba:	f300 808c 	bgt.w	80029d6 <PID_body+0x16e>
 80028be:	ed9f 7a4f 	vldr	s14, [pc, #316]	; 80029fc <PID_body+0x194>
 80028c2:	eeb4 8a47 	vcmp.f32	s16, s14
 80028c6:	eef1 fa10 	vmrs	APSR_nzcv, fpscr
 80028ca:	bf48      	it	mi
 80028cc:	eeb0 8a47 	vmovmi.f32	s16, s14
 80028d0:	4b4b      	ldr	r3, [pc, #300]	; (8002a00 <PID_body+0x198>)
 80028d2:	ed93 aa00 	vldr	s20, [r3]
 80028d6:	4b4b      	ldr	r3, [pc, #300]	; (8002a04 <PID_body+0x19c>)
 80028d8:	ed93 7a03 	vldr	s14, [r3, #12]
 80028dc:	ed93 0a01 	vldr	s0, [r3, #4]
 80028e0:	edd3 6a00 	vldr	s13, [r3]
 80028e4:	ed93 6a02 	vldr	s12, [r3, #8]
 80028e8:	ee70 0aca 	vsub.f32	s1, s1, s20
 80028ec:	ee27 0a00 	vmul.f32	s0, s14, s0
 80028f0:	edc3 0a03 	vstr	s1, [r3, #12]
 80028f4:	eea0 0aa6 	vfma.f32	s0, s1, s13
 80028f8:	edd3 6a04 	vldr	s13, [r3, #16]
 80028fc:	ed83 7a04 	vstr	s14, [r3, #16]
 8002900:	eea6 0a26 	vfma.f32	s0, s12, s13
 8002904:	edd3 6a05 	vldr	s13, [r3, #20]
 8002908:	ee30 0a26 	vadd.f32	s0, s0, s13
 800290c:	eeb4 0ae7 	vcmpe.f32	s0, s15
 8002910:	eef1 fa10 	vmrs	APSR_nzcv, fpscr
 8002914:	ed83 0a05 	vstr	s0, [r3, #20]
 8002918:	dc60      	bgt.n	80029dc <PID_body+0x174>
 800291a:	eddf 7a38 	vldr	s15, [pc, #224]	; 80029fc <PID_body+0x194>
 800291e:	eeb4 0a67 	vcmp.f32	s0, s15
 8002922:	eef1 fa10 	vmrs	APSR_nzcv, fpscr
 8002926:	bf48      	it	mi
 8002928:	eeb0 0a67 	vmovmi.f32	s0, s15
 800292c:	ed9f 9a36 	vldr	s18, [pc, #216]	; 8002a08 <PID_body+0x1a0>
 8002930:	4c36      	ldr	r4, [pc, #216]	; (8002a0c <PID_body+0x1a4>)
 8002932:	ee20 0a09 	vmul.f32	s0, s0, s18
 8002936:	f006 fcff 	bl	8009338 <floorf>
 800293a:	eec0 8a09 	vdiv.f32	s17, s0, s18
 800293e:	ee28 0a09 	vmul.f32	s0, s16, s18
 8002942:	edc4 8a03 	vstr	s17, [r4, #12]
 8002946:	f006 fcf7 	bl	8009338 <floorf>
 800294a:	eec0 7a09 	vdiv.f32	s15, s0, s18
 800294e:	ed9f 7a30 	vldr	s14, [pc, #192]	; 8002a10 <PID_body+0x1a8>
 8002952:	edc4 7a04 	vstr	s15, [r4, #16]
 8002956:	ee68 8a87 	vmul.f32	s17, s17, s14
 800295a:	ed9f 7a2e 	vldr	s14, [pc, #184]	; 8002a14 <PID_body+0x1ac>
 800295e:	edc4 8a00 	vstr	s17, [r4]
 8002962:	ee67 7a87 	vmul.f32	s15, s15, s14
 8002966:	edc4 7a02 	vstr	s15, [r4, #8]
 800296a:	eef0 7aca 	vabs.f32	s15, s20
 800296e:	ee17 0a90 	vmov	r0, s15
 8002972:	f7fd fde1 	bl	8000538 <__aeabi_f2d>
 8002976:	a31c      	add	r3, pc, #112	; (adr r3, 80029e8 <PID_body+0x180>)
 8002978:	e9d3 2300 	ldrd	r2, r3, [r3]
 800297c:	f7fd ff5e 	bl	800083c <__aeabi_ddiv>
 8002980:	4b25      	ldr	r3, [pc, #148]	; (8002a18 <PID_body+0x1b0>)
 8002982:	2200      	movs	r2, #0
 8002984:	f7fd ff5a 	bl	800083c <__aeabi_ddiv>
 8002988:	eef0 7ae9 	vabs.f32	s15, s19
 800298c:	4606      	mov	r6, r0
 800298e:	ee17 0a90 	vmov	r0, s15
 8002992:	460f      	mov	r7, r1
 8002994:	f7fd fdd0 	bl	8000538 <__aeabi_f2d>
 8002998:	a313      	add	r3, pc, #76	; (adr r3, 80029e8 <PID_body+0x180>)
 800299a:	e9d3 2300 	ldrd	r2, r3, [r3]
 800299e:	f7fd ff4d 	bl	800083c <__aeabi_ddiv>
 80029a2:	4b1d      	ldr	r3, [pc, #116]	; (8002a18 <PID_body+0x1b0>)
 80029a4:	2200      	movs	r2, #0
 80029a6:	f7fd ff49 	bl	800083c <__aeabi_ddiv>
 80029aa:	4602      	mov	r2, r0
 80029ac:	460b      	mov	r3, r1
 80029ae:	4630      	mov	r0, r6
 80029b0:	4639      	mov	r1, r7
 80029b2:	f7fd fc63 	bl	800027c <__adddf3>
 80029b6:	4b19      	ldr	r3, [pc, #100]	; (8002a1c <PID_body+0x1b4>)
 80029b8:	2200      	movs	r2, #0
 80029ba:	f7fd fe15 	bl	80005e8 <__aeabi_dmul>
 80029be:	4602      	mov	r2, r0
 80029c0:	460b      	mov	r3, r1
 80029c2:	2000      	movs	r0, #0
 80029c4:	4916      	ldr	r1, [pc, #88]	; (8002a20 <PID_body+0x1b8>)
 80029c6:	f7fd fc57 	bl	8000278 <__aeabi_dsub>
 80029ca:	f7fe f905 	bl	8000bd8 <__aeabi_d2f>
 80029ce:	ecbd 8b06 	vpop	{d8-d10}
 80029d2:	61e0      	str	r0, [r4, #28]
 80029d4:	bdd0      	pop	{r4, r6, r7, pc}
 80029d6:	eeb0 8a67 	vmov.f32	s16, s15
 80029da:	e779      	b.n	80028d0 <PID_body+0x68>
 80029dc:	ed9f 0a06 	vldr	s0, [pc, #24]	; 80029f8 <PID_body+0x190>
 80029e0:	e7a4      	b.n	800292c <PID_body+0xc4>
 80029e2:	bf00      	nop
 80029e4:	f3af 8000 	nop.w
 80029e8:	60000000 	.word	0x60000000
 80029ec:	400921fb 	.word	0x400921fb
 80029f0:	200004ac 	.word	0x200004ac
 80029f4:	20001784 	.word	0x20001784
 80029f8:	3e860a92 	.word	0x3e860a92
 80029fc:	be860a92 	.word	0xbe860a92
 8002a00:	200005b8 	.word	0x200005b8
 8002a04:	200017a8 	.word	0x200017a8
 8002a08:	42c80000 	.word	0x42c80000
 8002a0c:	200017d0 	.word	0x200017d0
 8002a10:	42200000 	.word	0x42200000
 8002a14:	42340000 	.word	0x42340000
 8002a18:	40280000 	.word	0x40280000
 8002a1c:	3fe00000 	.word	0x3fe00000
 8002a20:	3ff00000 	.word	0x3ff00000

08002a24 <Home>:
 8002a24:	b570      	push	{r4, r5, r6, lr}
 8002a26:	4d22      	ldr	r5, [pc, #136]	; (8002ab0 <Home+0x8c>)
 8002a28:	4c22      	ldr	r4, [pc, #136]	; (8002ab4 <Home+0x90>)
 8002a2a:	ed9f 6a23 	vldr	s12, [pc, #140]	; 8002ab8 <Home+0x94>
 8002a2e:	4e23      	ldr	r6, [pc, #140]	; (8002abc <Home+0x98>)
 8002a30:	b08c      	sub	sp, #48	; 0x30
 8002a32:	f7ff fbbf 	bl	80021b4 <ReadServos>
 8002a36:	462a      	mov	r2, r5
 8002a38:	2100      	movs	r1, #0
 8002a3a:	f892 3021 	ldrb.w	r3, [r2, #33]	; 0x21
 8002a3e:	edd2 7a06 	vldr	s15, [r2, #24]
 8002a42:	eb04 0083 	add.w	r0, r4, r3, lsl #2
 8002a46:	ed90 7a00 	vldr	s14, [r0]
 8002a4a:	ee77 7ac7 	vsub.f32	s15, s15, s14
 8002a4e:	a80c      	add	r0, sp, #48	; 0x30
 8002a50:	eec7 6a86 	vdiv.f32	s13, s15, s12
 8002a54:	3101      	adds	r1, #1
 8002a56:	eb00 0083 	add.w	r0, r0, r3, lsl #2
 8002a5a:	290c      	cmp	r1, #12
 8002a5c:	eb06 0383 	add.w	r3, r6, r3, lsl #2
 8002a60:	f102 0224 	add.w	r2, r2, #36	; 0x24
 8002a64:	ed83 7a00 	vstr	s14, [r3]
 8002a68:	ed40 6a0c 	vstr	s13, [r0, #-48]	; 0xffffffd0
 8002a6c:	d1e5      	bne.n	8002a3a <Home+0x16>
 8002a6e:	2496      	movs	r4, #150	; 0x96
 8002a70:	4629      	mov	r1, r5
 8002a72:	2200      	movs	r2, #0
 8002a74:	f891 3021 	ldrb.w	r3, [r1, #33]	; 0x21
 8002a78:	f10d 0c30 	add.w	ip, sp, #48	; 0x30
 8002a7c:	eb06 0083 	add.w	r0, r6, r3, lsl #2
 8002a80:	eb0c 0383 	add.w	r3, ip, r3, lsl #2
 8002a84:	edd0 7a00 	vldr	s15, [r0]
 8002a88:	ed13 7a0c 	vldr	s14, [r3, #-48]	; 0xffffffd0
 8002a8c:	3201      	adds	r2, #1
 8002a8e:	ee77 7a87 	vadd.f32	s15, s15, s14
 8002a92:	2a0c      	cmp	r2, #12
 8002a94:	edc0 7a00 	vstr	s15, [r0]
 8002a98:	f101 0124 	add.w	r1, r1, #36	; 0x24
 8002a9c:	d1ea      	bne.n	8002a74 <Home+0x50>
 8002a9e:	f7ff fdaf 	bl	8002600 <PublishServos>
 8002aa2:	200a      	movs	r0, #10
 8002aa4:	f001 fdd4 	bl	8004650 <HAL_Delay>
 8002aa8:	3c01      	subs	r4, #1
 8002aaa:	d1e1      	bne.n	8002a70 <Home+0x4c>
 8002aac:	b00c      	add	sp, #48	; 0x30
 8002aae:	bd70      	pop	{r4, r5, r6, pc}
 8002ab0:	200001ac 	.word	0x200001ac
 8002ab4:	2000037c 	.word	0x2000037c
 8002ab8:	43160000 	.word	0x43160000
 8002abc:	2000016c 	.word	0x2000016c

08002ac0 <I2C1_ClearBusyFlagErratum>:
 8002ac0:	e92d 43f0 	stmdb	sp!, {r4, r5, r6, r7, r8, r9, lr}
 8002ac4:	4c6b      	ldr	r4, [pc, #428]	; (8002c74 <I2C1_ClearBusyFlagErratum+0x1b4>)
 8002ac6:	f890 303d 	ldrb.w	r3, [r0, #61]	; 0x3d
 8002aca:	b087      	sub	sp, #28
 8002acc:	4606      	mov	r6, r0
 8002ace:	f04f 0911 	mov.w	r9, #17
 8002ad2:	f44f 7880 	mov.w	r8, #256	; 0x100
 8002ad6:	6832      	ldr	r2, [r6, #0]
 8002ad8:	6813      	ldr	r3, [r2, #0]
 8002ada:	f023 0301 	bic.w	r3, r3, #1
 8002ade:	6013      	str	r3, [r2, #0]
 8002ae0:	2304      	movs	r3, #4
 8002ae2:	2201      	movs	r2, #1
 8002ae4:	9305      	str	r3, [sp, #20]
 8002ae6:	a901      	add	r1, sp, #4
 8002ae8:	2302      	movs	r3, #2
 8002aea:	4620      	mov	r0, r4
 8002aec:	e9cd 2303 	strd	r2, r3, [sp, #12]
 8002af0:	f8cd 9008 	str.w	r9, [sp, #8]
 8002af4:	f8cd 8004 	str.w	r8, [sp, #4]
 8002af8:	f002 fa14 	bl	8004f24 <HAL_GPIO_Init>
 8002afc:	2201      	movs	r2, #1
 8002afe:	f44f 7180 	mov.w	r1, #256	; 0x100
 8002b02:	4620      	mov	r0, r4
 8002b04:	f002 faee 	bl	80050e4 <HAL_GPIO_WritePin>
 8002b08:	f44f 7500 	mov.w	r5, #512	; 0x200
 8002b0c:	a901      	add	r1, sp, #4
 8002b0e:	4620      	mov	r0, r4
 8002b10:	9501      	str	r5, [sp, #4]
 8002b12:	f002 fa07 	bl	8004f24 <HAL_GPIO_Init>
 8002b16:	4629      	mov	r1, r5
 8002b18:	2201      	movs	r2, #1
 8002b1a:	4620      	mov	r0, r4
 8002b1c:	f002 fae2 	bl	80050e4 <HAL_GPIO_WritePin>
 8002b20:	2500      	movs	r5, #0
 8002b22:	f44f 7180 	mov.w	r1, #256	; 0x100
 8002b26:	4620      	mov	r0, r4
 8002b28:	f002 fad6 	bl	80050d8 <HAL_GPIO_ReadPin>
 8002b2c:	2801      	cmp	r0, #1
 8002b2e:	d179      	bne.n	8002c24 <I2C1_ClearBusyFlagErratum+0x164>
 8002b30:	f44f 7100 	mov.w	r1, #512	; 0x200
 8002b34:	4620      	mov	r0, r4
 8002b36:	f002 facf 	bl	80050d8 <HAL_GPIO_ReadPin>
 8002b3a:	2801      	cmp	r0, #1
 8002b3c:	f04f 0200 	mov.w	r2, #0
 8002b40:	d176      	bne.n	8002c30 <I2C1_ClearBusyFlagErratum+0x170>
 8002b42:	f44f 7100 	mov.w	r1, #512	; 0x200
 8002b46:	4620      	mov	r0, r4
 8002b48:	f002 facc 	bl	80050e4 <HAL_GPIO_WritePin>
 8002b4c:	f44f 7100 	mov.w	r1, #512	; 0x200
 8002b50:	4620      	mov	r0, r4
 8002b52:	f002 fac1 	bl	80050d8 <HAL_GPIO_ReadPin>
 8002b56:	4602      	mov	r2, r0
 8002b58:	2800      	cmp	r0, #0
 8002b5a:	d17a      	bne.n	8002c52 <I2C1_ClearBusyFlagErratum+0x192>
 8002b5c:	f44f 7180 	mov.w	r1, #256	; 0x100
 8002b60:	4620      	mov	r0, r4
 8002b62:	f002 fabf 	bl	80050e4 <HAL_GPIO_WritePin>
 8002b66:	f44f 7180 	mov.w	r1, #256	; 0x100
 8002b6a:	4620      	mov	r0, r4
 8002b6c:	f002 fab4 	bl	80050d8 <HAL_GPIO_ReadPin>
 8002b70:	2800      	cmp	r0, #0
 8002b72:	d173      	bne.n	8002c5c <I2C1_ClearBusyFlagErratum+0x19c>
 8002b74:	2201      	movs	r2, #1
 8002b76:	f44f 7180 	mov.w	r1, #256	; 0x100
 8002b7a:	4620      	mov	r0, r4
 8002b7c:	f002 fab2 	bl	80050e4 <HAL_GPIO_WritePin>
 8002b80:	f44f 7180 	mov.w	r1, #256	; 0x100
 8002b84:	4620      	mov	r0, r4
 8002b86:	f002 faa7 	bl	80050d8 <HAL_GPIO_ReadPin>
 8002b8a:	2801      	cmp	r0, #1
 8002b8c:	4602      	mov	r2, r0
 8002b8e:	d169      	bne.n	8002c64 <I2C1_ClearBusyFlagErratum+0x1a4>
 8002b90:	f44f 7100 	mov.w	r1, #512	; 0x200
 8002b94:	4620      	mov	r0, r4
 8002b96:	f002 faa5 	bl	80050e4 <HAL_GPIO_WritePin>
 8002b9a:	f44f 7100 	mov.w	r1, #512	; 0x200
 8002b9e:	4620      	mov	r0, r4
 8002ba0:	f002 fa9a 	bl	80050d8 <HAL_GPIO_ReadPin>
 8002ba4:	2801      	cmp	r0, #1
 8002ba6:	4607      	mov	r7, r0
 8002ba8:	d160      	bne.n	8002c6c <I2C1_ClearBusyFlagErratum+0x1ac>
 8002baa:	2312      	movs	r3, #18
 8002bac:	e9cd 3002 	strd	r3, r0, [sp, #8]
 8002bb0:	2304      	movs	r3, #4
 8002bb2:	eb0d 0103 	add.w	r1, sp, r3
 8002bb6:	2200      	movs	r2, #0
 8002bb8:	4620      	mov	r0, r4
 8002bba:	e9cd 2304 	strd	r2, r3, [sp, #16]
 8002bbe:	f44f 7500 	mov.w	r5, #512	; 0x200
 8002bc2:	f8cd 8004 	str.w	r8, [sp, #4]
 8002bc6:	f002 f9ad 	bl	8004f24 <HAL_GPIO_Init>
 8002bca:	a901      	add	r1, sp, #4
 8002bcc:	4620      	mov	r0, r4
 8002bce:	9501      	str	r5, [sp, #4]
 8002bd0:	f002 f9a8 	bl	8004f24 <HAL_GPIO_Init>
 8002bd4:	463a      	mov	r2, r7
 8002bd6:	4620      	mov	r0, r4
 8002bd8:	f44f 7180 	mov.w	r1, #256	; 0x100
 8002bdc:	f002 fa82 	bl	80050e4 <HAL_GPIO_WritePin>
 8002be0:	463a      	mov	r2, r7
 8002be2:	4629      	mov	r1, r5
 8002be4:	4620      	mov	r0, r4
 8002be6:	f002 fa7d 	bl	80050e4 <HAL_GPIO_WritePin>
 8002bea:	6832      	ldr	r2, [r6, #0]
 8002bec:	6813      	ldr	r3, [r2, #0]
 8002bee:	f443 4300 	orr.w	r3, r3, #32768	; 0x8000
 8002bf2:	6013      	str	r3, [r2, #0]
 8002bf4:	bf00      	nop
 8002bf6:	6832      	ldr	r2, [r6, #0]
 8002bf8:	6813      	ldr	r3, [r2, #0]
 8002bfa:	f423 4300 	bic.w	r3, r3, #32768	; 0x8000
 8002bfe:	6013      	str	r3, [r2, #0]
 8002c00:	bf00      	nop
 8002c02:	6832      	ldr	r2, [r6, #0]
 8002c04:	6813      	ldr	r3, [r2, #0]
 8002c06:	f043 0301 	orr.w	r3, r3, #1
 8002c0a:	6013      	str	r3, [r2, #0]
 8002c0c:	4630      	mov	r0, r6
 8002c0e:	f002 fc57 	bl	80054c0 <HAL_I2C_Init>
 8002c12:	f896 303d 	ldrb.w	r3, [r6, #61]	; 0x3d
 8002c16:	2b02      	cmp	r3, #2
 8002c18:	b2d8      	uxtb	r0, r3
 8002c1a:	f43f af5c 	beq.w	8002ad6 <I2C1_ClearBusyFlagErratum+0x16>
 8002c1e:	b007      	add	sp, #28
 8002c20:	e8bd 83f0 	ldmia.w	sp!, {r4, r5, r6, r7, r8, r9, pc}
 8002c24:	3501      	adds	r5, #1
 8002c26:	2d65      	cmp	r5, #101	; 0x65
 8002c28:	f47f af7b 	bne.w	8002b22 <I2C1_ClearBusyFlagErratum+0x62>
 8002c2c:	2000      	movs	r0, #0
 8002c2e:	e7f6      	b.n	8002c1e <I2C1_ClearBusyFlagErratum+0x15e>
 8002c30:	f44f 7180 	mov.w	r1, #256	; 0x100
 8002c34:	4620      	mov	r0, r4
 8002c36:	f002 fa55 	bl	80050e4 <HAL_GPIO_WritePin>
 8002c3a:	bf00      	nop
 8002c3c:	2201      	movs	r2, #1
 8002c3e:	f44f 7180 	mov.w	r1, #256	; 0x100
 8002c42:	4620      	mov	r0, r4
 8002c44:	3501      	adds	r5, #1
 8002c46:	f002 fa4d 	bl	80050e4 <HAL_GPIO_WritePin>
 8002c4a:	2d65      	cmp	r5, #101	; 0x65
 8002c4c:	f47f af70 	bne.w	8002b30 <I2C1_ClearBusyFlagErratum+0x70>
 8002c50:	e7ec      	b.n	8002c2c <I2C1_ClearBusyFlagErratum+0x16c>
 8002c52:	3501      	adds	r5, #1
 8002c54:	2d64      	cmp	r5, #100	; 0x64
 8002c56:	f77f af79 	ble.w	8002b4c <I2C1_ClearBusyFlagErratum+0x8c>
 8002c5a:	e7e7      	b.n	8002c2c <I2C1_ClearBusyFlagErratum+0x16c>
 8002c5c:	3501      	adds	r5, #1
 8002c5e:	2d64      	cmp	r5, #100	; 0x64
 8002c60:	dd81      	ble.n	8002b66 <I2C1_ClearBusyFlagErratum+0xa6>
 8002c62:	e7e3      	b.n	8002c2c <I2C1_ClearBusyFlagErratum+0x16c>
 8002c64:	3501      	adds	r5, #1
 8002c66:	2d64      	cmp	r5, #100	; 0x64
 8002c68:	dd8a      	ble.n	8002b80 <I2C1_ClearBusyFlagErratum+0xc0>
 8002c6a:	e7df      	b.n	8002c2c <I2C1_ClearBusyFlagErratum+0x16c>
 8002c6c:	3501      	adds	r5, #1
 8002c6e:	2d64      	cmp	r5, #100	; 0x64
 8002c70:	dd93      	ble.n	8002b9a <I2C1_ClearBusyFlagErratum+0xda>
 8002c72:	e7db      	b.n	8002c2c <I2C1_ClearBusyFlagErratum+0x16c>
 8002c74:	40020400 	.word	0x40020400

08002c78 <swap_ui16>:
 8002c78:	b510      	push	{r4, lr}
 8002c7a:	f830 3011 	ldrh.w	r3, [r0, r1, lsl #1]
 8002c7e:	f830 4012 	ldrh.w	r4, [r0, r2, lsl #1]
 8002c82:	f820 4011 	strh.w	r4, [r0, r1, lsl #1]
 8002c86:	f820 3012 	strh.w	r3, [r0, r2, lsl #1]
 8002c8a:	bd10      	pop	{r4, pc}

08002c8c <partition_ui16>:
 8002c8c:	b570      	push	{r4, r5, r6, lr}
 8002c8e:	f830 6012 	ldrh.w	r6, [r0, r2, lsl #1]
 8002c92:	460c      	mov	r4, r1
 8002c94:	4615      	mov	r5, r2
 8002c96:	1e4b      	subs	r3, r1, #1
 8002c98:	42ac      	cmp	r4, r5
 8002c9a:	f103 0101 	add.w	r1, r3, #1
 8002c9e:	db04      	blt.n	8002caa <partition_ui16+0x1e>
 8002ca0:	462a      	mov	r2, r5
 8002ca2:	f7ff ffe9 	bl	8002c78 <swap_ui16>
 8002ca6:	4608      	mov	r0, r1
 8002ca8:	bd70      	pop	{r4, r5, r6, pc}
 8002caa:	f830 2014 	ldrh.w	r2, [r0, r4, lsl #1]
 8002cae:	42b2      	cmp	r2, r6
 8002cb0:	d203      	bcs.n	8002cba <partition_ui16+0x2e>
 8002cb2:	4622      	mov	r2, r4
 8002cb4:	f7ff ffe0 	bl	8002c78 <swap_ui16>
 8002cb8:	460b      	mov	r3, r1
 8002cba:	3401      	adds	r4, #1
 8002cbc:	e7ec      	b.n	8002c98 <partition_ui16+0xc>

08002cbe <quickSelect_ui16>:
 8002cbe:	b5f8      	push	{r3, r4, r5, r6, r7, lr}
 8002cc0:	4605      	mov	r5, r0
 8002cc2:	460c      	mov	r4, r1
 8002cc4:	4616      	mov	r6, r2
 8002cc6:	461f      	mov	r7, r3
 8002cc8:	42b4      	cmp	r4, r6
 8002cca:	da0e      	bge.n	8002cea <quickSelect_ui16+0x2c>
 8002ccc:	4632      	mov	r2, r6
 8002cce:	4621      	mov	r1, r4
 8002cd0:	4628      	mov	r0, r5
 8002cd2:	f7ff ffdb 	bl	8002c8c <partition_ui16>
 8002cd6:	42b8      	cmp	r0, r7
 8002cd8:	d102      	bne.n	8002ce0 <quickSelect_ui16+0x22>
 8002cda:	f835 0017 	ldrh.w	r0, [r5, r7, lsl #1]
 8002cde:	bdf8      	pop	{r3, r4, r5, r6, r7, pc}
 8002ce0:	bfcc      	ite	gt
 8002ce2:	f100 36ff 	addgt.w	r6, r0, #4294967295	; 0xffffffff
 8002ce6:	1c44      	addle	r4, r0, #1
 8002ce8:	e7ee      	b.n	8002cc8 <quickSelect_ui16+0xa>
 8002cea:	f835 0014 	ldrh.w	r0, [r5, r4, lsl #1]
 8002cee:	e7f6      	b.n	8002cde <quickSelect_ui16+0x20>

08002cf0 <computeMedian_ui16>:
 8002cf0:	b508      	push	{r3, lr}
 8002cf2:	227a      	movs	r2, #122	; 0x7a
 8002cf4:	233d      	movs	r3, #61	; 0x3d
 8002cf6:	2100      	movs	r1, #0
 8002cf8:	f7ff ffe1 	bl	8002cbe <quickSelect_ui16>
 8002cfc:	b280      	uxth	r0, r0
 8002cfe:	bd08      	pop	{r3, pc}

08002d00 <swap_f32>:
 8002d00:	eb00 0181 	add.w	r1, r0, r1, lsl #2
 8002d04:	eb00 0282 	add.w	r2, r0, r2, lsl #2
 8002d08:	680b      	ldr	r3, [r1, #0]
 8002d0a:	6810      	ldr	r0, [r2, #0]
 8002d0c:	6008      	str	r0, [r1, #0]
 8002d0e:	6013      	str	r3, [r2, #0]
 8002d10:	4770      	bx	lr

08002d12 <partition_f32>:
 8002d12:	eb00 0382 	add.w	r3, r0, r2, lsl #2
 8002d16:	e92d 41f0 	stmdb	sp!, {r4, r5, r6, r7, r8, lr}
 8002d1a:	edd3 7a00 	vldr	s15, [r3]
 8002d1e:	4605      	mov	r5, r0
 8002d20:	460c      	mov	r4, r1
 8002d22:	4616      	mov	r6, r2
 8002d24:	1e4b      	subs	r3, r1, #1
 8002d26:	eb00 0881 	add.w	r8, r0, r1, lsl #2
 8002d2a:	42b4      	cmp	r4, r6
 8002d2c:	f103 0701 	add.w	r7, r3, #1
 8002d30:	db07      	blt.n	8002d42 <partition_f32+0x30>
 8002d32:	4628      	mov	r0, r5
 8002d34:	4632      	mov	r2, r6
 8002d36:	4639      	mov	r1, r7
 8002d38:	f7ff ffe2 	bl	8002d00 <swap_f32>
 8002d3c:	4638      	mov	r0, r7
 8002d3e:	e8bd 81f0 	ldmia.w	sp!, {r4, r5, r6, r7, r8, pc}
 8002d42:	ecb8 7a01 	vldmia	r8!, {s14}
 8002d46:	eeb4 7ae7 	vcmpe.f32	s14, s15
 8002d4a:	eef1 fa10 	vmrs	APSR_nzcv, fpscr
 8002d4e:	d505      	bpl.n	8002d5c <partition_f32+0x4a>
 8002d50:	4622      	mov	r2, r4
 8002d52:	4639      	mov	r1, r7
 8002d54:	4628      	mov	r0, r5
 8002d56:	f7ff ffd3 	bl	8002d00 <swap_f32>
 8002d5a:	463b      	mov	r3, r7
 8002d5c:	3401      	adds	r4, #1
 8002d5e:	e7e4      	b.n	8002d2a <partition_f32+0x18>

08002d60 <quickSelect_f32>:
 8002d60:	b5f8      	push	{r3, r4, r5, r6, r7, lr}
 8002d62:	4604      	mov	r4, r0
 8002d64:	460d      	mov	r5, r1
 8002d66:	4617      	mov	r7, r2
 8002d68:	461e      	mov	r6, r3
 8002d6a:	42bd      	cmp	r5, r7
 8002d6c:	da10      	bge.n	8002d90 <quickSelect_f32+0x30>
 8002d6e:	463a      	mov	r2, r7
 8002d70:	4629      	mov	r1, r5
 8002d72:	4620      	mov	r0, r4
 8002d74:	f7ff ffcd 	bl	8002d12 <partition_f32>
 8002d78:	42b0      	cmp	r0, r6
 8002d7a:	d104      	bne.n	8002d86 <quickSelect_f32+0x26>
 8002d7c:	eb04 0486 	add.w	r4, r4, r6, lsl #2
 8002d80:	ed94 0a00 	vldr	s0, [r4]
 8002d84:	bdf8      	pop	{r3, r4, r5, r6, r7, pc}
 8002d86:	bfcc      	ite	gt
 8002d88:	f100 37ff 	addgt.w	r7, r0, #4294967295	; 0xffffffff
 8002d8c:	1c45      	addle	r5, r0, #1
 8002d8e:	e7ec      	b.n	8002d6a <quickSelect_f32+0xa>
 8002d90:	eb04 0485 	add.w	r4, r4, r5, lsl #2
 8002d94:	e7f4      	b.n	8002d80 <quickSelect_f32+0x20>

08002d96 <computeMedian_f32>:
 8002d96:	231f      	movs	r3, #31
 8002d98:	223e      	movs	r2, #62	; 0x3e
 8002d9a:	2100      	movs	r1, #0
 8002d9c:	f7ff bfe0 	b.w	8002d60 <quickSelect_f32>

08002da0 <combine_imu>:
 8002da0:	492c      	ldr	r1, [pc, #176]	; (8002e54 <combine_imu+0xb4>)
 8002da2:	ed9f 5a2d 	vldr	s10, [pc, #180]	; 8002e58 <combine_imu+0xb8>
 8002da6:	edd1 7a00 	vldr	s15, [r1]
 8002daa:	492c      	ldr	r1, [pc, #176]	; (8002e5c <combine_imu+0xbc>)
 8002dac:	eddf 5a2c 	vldr	s11, [pc, #176]	; 8002e60 <combine_imu+0xc0>
 8002db0:	ed91 7a00 	vldr	s14, [r1]
 8002db4:	ed9f 6a2b 	vldr	s12, [pc, #172]	; 8002e64 <combine_imu+0xc4>
 8002db8:	eef8 7a67 	vcvt.f32.u32	s15, s15
 8002dbc:	b570      	push	{r4, r5, r6, lr}
 8002dbe:	ee27 7a87 	vmul.f32	s14, s15, s14
 8002dc2:	4e29      	ldr	r6, [pc, #164]	; (8002e68 <combine_imu+0xc8>)
 8002dc4:	4d29      	ldr	r5, [pc, #164]	; (8002e6c <combine_imu+0xcc>)
 8002dc6:	6833      	ldr	r3, [r6, #0]
 8002dc8:	4c29      	ldr	r4, [pc, #164]	; (8002e70 <combine_imu+0xd0>)
 8002dca:	eec7 6a05 	vdiv.f32	s13, s14, s10
 8002dce:	1e5a      	subs	r2, r3, #1
 8002dd0:	eb05 0182 	add.w	r1, r5, r2, lsl #2
 8002dd4:	eb04 0282 	add.w	r2, r4, r2, lsl #2
 8002dd8:	ed91 7a00 	vldr	s14, [r1]
 8002ddc:	4925      	ldr	r1, [pc, #148]	; (8002e74 <combine_imu+0xd4>)
 8002dde:	ee76 6a87 	vadd.f32	s13, s13, s14
 8002de2:	ed91 7a00 	vldr	s14, [r1]
 8002de6:	ee27 7a25 	vmul.f32	s14, s14, s11
 8002dea:	eb05 0183 	add.w	r1, r5, r3, lsl #2
 8002dee:	eea6 7a86 	vfma.f32	s14, s13, s12
 8002df2:	ed81 7a00 	vstr	s14, [r1]
 8002df6:	4920      	ldr	r1, [pc, #128]	; (8002e78 <combine_imu+0xd8>)
 8002df8:	ed91 7a00 	vldr	s14, [r1]
 8002dfc:	ee67 7a87 	vmul.f32	s15, s15, s14
 8002e00:	ee87 7a85 	vdiv.f32	s14, s15, s10
 8002e04:	edd2 7a00 	vldr	s15, [r2]
 8002e08:	4a1c      	ldr	r2, [pc, #112]	; (8002e7c <combine_imu+0xdc>)
 8002e0a:	ee37 7a27 	vadd.f32	s14, s14, s15
 8002e0e:	edd2 7a00 	vldr	s15, [r2]
 8002e12:	ee67 7aa5 	vmul.f32	s15, s15, s11
 8002e16:	eb04 0283 	add.w	r2, r4, r3, lsl #2
 8002e1a:	eee7 7a06 	vfma.f32	s15, s14, s12
 8002e1e:	3301      	adds	r3, #1
 8002e20:	2b3e      	cmp	r3, #62	; 0x3e
 8002e22:	6033      	str	r3, [r6, #0]
 8002e24:	edc2 7a00 	vstr	s15, [r2]
 8002e28:	dd13      	ble.n	8002e52 <combine_imu+0xb2>
 8002e2a:	4628      	mov	r0, r5
 8002e2c:	f7ff ffb3 	bl	8002d96 <computeMedian_f32>
 8002e30:	4b13      	ldr	r3, [pc, #76]	; (8002e80 <combine_imu+0xe0>)
 8002e32:	4620      	mov	r0, r4
 8002e34:	ed83 0a00 	vstr	s0, [r3]
 8002e38:	f7ff ffad 	bl	8002d96 <computeMedian_f32>
 8002e3c:	4b11      	ldr	r3, [pc, #68]	; (8002e84 <combine_imu+0xe4>)
 8002e3e:	ed83 0a00 	vstr	s0, [r3]
 8002e42:	f8d5 30f8 	ldr.w	r3, [r5, #248]	; 0xf8
 8002e46:	602b      	str	r3, [r5, #0]
 8002e48:	f8d4 30f8 	ldr.w	r3, [r4, #248]	; 0xf8
 8002e4c:	6023      	str	r3, [r4, #0]
 8002e4e:	2301      	movs	r3, #1
 8002e50:	6033      	str	r3, [r6, #0]
 8002e52:	bd70      	pop	{r4, r5, r6, pc}
 8002e54:	2000035c 	.word	0x2000035c
 8002e58:	447a0000 	.word	0x447a0000
 8002e5c:	200004b0 	.word	0x200004b0
 8002e60:	3e4ccccc 	.word	0x3e4ccccc
 8002e64:	3f4ccccd 	.word	0x3f4ccccd
 8002e68:	20001178 	.word	0x20001178
 8002e6c:	200003b0 	.word	0x200003b0
 8002e70:	200004bc 	.word	0x200004bc
 8002e74:	200003ac 	.word	0x200003ac
 8002e78:	200005bc 	.word	0x200005bc
 8002e7c:	200004b8 	.word	0x200004b8
 8002e80:	200004ac 	.word	0x200004ac
 8002e84:	200005b8 	.word	0x200005b8

08002e88 <HAL_TIM_PeriodElapsedCallback>:
 8002e88:	4b2d      	ldr	r3, [pc, #180]	; (8002f40 <HAL_TIM_PeriodElapsedCallback+0xb8>)
 8002e8a:	4298      	cmp	r0, r3
 8002e8c:	b510      	push	{r4, lr}
 8002e8e:	4604      	mov	r4, r0
 8002e90:	d10a      	bne.n	8002ea8 <HAL_TIM_PeriodElapsedCallback+0x20>
 8002e92:	482c      	ldr	r0, [pc, #176]	; (8002f44 <HAL_TIM_PeriodElapsedCallback+0xbc>)
 8002e94:	2200      	movs	r2, #0
 8002e96:	f44f 5180 	mov.w	r1, #4096	; 0x1000
 8002e9a:	f002 f923 	bl	80050e4 <HAL_GPIO_WritePin>
 8002e9e:	4620      	mov	r0, r4
 8002ea0:	e8bd 4010 	ldmia.w	sp!, {r4, lr}
 8002ea4:	f003 be44 	b.w	8006b30 <HAL_TIM_Base_Stop_IT>
 8002ea8:	4b27      	ldr	r3, [pc, #156]	; (8002f48 <HAL_TIM_PeriodElapsedCallback+0xc0>)
 8002eaa:	4298      	cmp	r0, r3
 8002eac:	d03d      	beq.n	8002f2a <HAL_TIM_PeriodElapsedCallback+0xa2>
 8002eae:	4b27      	ldr	r3, [pc, #156]	; (8002f4c <HAL_TIM_PeriodElapsedCallback+0xc4>)
 8002eb0:	4298      	cmp	r0, r3
 8002eb2:	d139      	bne.n	8002f28 <HAL_TIM_PeriodElapsedCallback+0xa0>
 8002eb4:	4c26      	ldr	r4, [pc, #152]	; (8002f50 <HAL_TIM_PeriodElapsedCallback+0xc8>)
 8002eb6:	f001 fbc5 	bl	8004644 <HAL_GetTick>
 8002eba:	6823      	ldr	r3, [r4, #0]
 8002ebc:	4a25      	ldr	r2, [pc, #148]	; (8002f54 <HAL_TIM_PeriodElapsedCallback+0xcc>)
 8002ebe:	eddf 0a26 	vldr	s1, [pc, #152]	; 8002f58 <HAL_TIM_PeriodElapsedCallback+0xd0>
 8002ec2:	ed9f 0a26 	vldr	s0, [pc, #152]	; 8002f5c <HAL_TIM_PeriodElapsedCallback+0xd4>
 8002ec6:	1ac0      	subs	r0, r0, r3
 8002ec8:	4b25      	ldr	r3, [pc, #148]	; (8002f60 <HAL_TIM_PeriodElapsedCallback+0xd8>)
 8002eca:	6018      	str	r0, [r3, #0]
 8002ecc:	6813      	ldr	r3, [r2, #0]
 8002ece:	3301      	adds	r3, #1
 8002ed0:	6013      	str	r3, [r2, #0]
 8002ed2:	f7ff fcc9 	bl	8002868 <PID_body>
 8002ed6:	4923      	ldr	r1, [pc, #140]	; (8002f64 <HAL_TIM_PeriodElapsedCallback+0xdc>)
 8002ed8:	4823      	ldr	r0, [pc, #140]	; (8002f68 <HAL_TIM_PeriodElapsedCallback+0xe0>)
 8002eda:	f7fe f895 	bl	8001008 <CurvePoints>
 8002ede:	4921      	ldr	r1, [pc, #132]	; (8002f64 <HAL_TIM_PeriodElapsedCallback+0xdc>)
 8002ee0:	4821      	ldr	r0, [pc, #132]	; (8002f68 <HAL_TIM_PeriodElapsedCallback+0xe0>)
 8002ee2:	f7fe fd07 	bl	80018f4 <IK_body>
 8002ee6:	4921      	ldr	r1, [pc, #132]	; (8002f6c <HAL_TIM_PeriodElapsedCallback+0xe4>)
 8002ee8:	4821      	ldr	r0, [pc, #132]	; (8002f70 <HAL_TIM_PeriodElapsedCallback+0xe8>)
 8002eea:	f7fe fa01 	bl	80012f0 <IK_leg>
 8002eee:	f7ff fb87 	bl	8002600 <PublishServos>
 8002ef2:	f001 fba7 	bl	8004644 <HAL_GetTick>
 8002ef6:	4b1f      	ldr	r3, [pc, #124]	; (8002f74 <HAL_TIM_PeriodElapsedCallback+0xec>)
 8002ef8:	ed9f 6a1f 	vldr	s12, [pc, #124]	; 8002f78 <HAL_TIM_PeriodElapsedCallback+0xf0>
 8002efc:	ed93 7a00 	vldr	s14, [r3]
 8002f00:	eddf 6a1e 	vldr	s13, [pc, #120]	; 8002f7c <HAL_TIM_PeriodElapsedCallback+0xf4>
 8002f04:	4b1e      	ldr	r3, [pc, #120]	; (8002f80 <HAL_TIM_PeriodElapsedCallback+0xf8>)
 8002f06:	6020      	str	r0, [r4, #0]
 8002f08:	ee27 7a06 	vmul.f32	s14, s14, s12
 8002f0c:	eec7 7a26 	vdiv.f32	s15, s14, s13
 8002f10:	edc3 7a00 	vstr	s15, [r3]
 8002f14:	4b1b      	ldr	r3, [pc, #108]	; (8002f84 <HAL_TIM_PeriodElapsedCallback+0xfc>)
 8002f16:	edd3 7a00 	vldr	s15, [r3]
 8002f1a:	4b1b      	ldr	r3, [pc, #108]	; (8002f88 <HAL_TIM_PeriodElapsedCallback+0x100>)
 8002f1c:	ee67 7a86 	vmul.f32	s15, s15, s12
 8002f20:	ee87 7aa6 	vdiv.f32	s14, s15, s13
 8002f24:	ed83 7a00 	vstr	s14, [r3]
 8002f28:	bd10      	pop	{r4, pc}
 8002f2a:	f7ff f943 	bl	80021b4 <ReadServos>
 8002f2e:	f7ff fbad 	bl	800268c <get_xl>
 8002f32:	f7ff fc4d 	bl	80027d0 <get_gyro>
 8002f36:	e8bd 4010 	ldmia.w	sp!, {r4, lr}
 8002f3a:	f7ff bf31 	b.w	8002da0 <combine_imu>
 8002f3e:	bf00      	nop
 8002f40:	20001548 	.word	0x20001548
 8002f44:	40020400 	.word	0x40020400
 8002f48:	20001590 	.word	0x20001590
 8002f4c:	200016b0 	.word	0x200016b0
 8002f50:	20001780 	.word	0x20001780
 8002f54:	20000360 	.word	0x20000360
 8002f58:	3ca3d70a 	.word	0x3ca3d70a
 8002f5c:	00000000 	.word	0x00000000
 8002f60:	2000035c 	.word	0x2000035c
 8002f64:	20000164 	.word	0x20000164
 8002f68:	200017d0 	.word	0x200017d0
 8002f6c:	20000040 	.word	0x20000040
 8002f70:	2000016c 	.word	0x2000016c
 8002f74:	200004ac 	.word	0x200004ac
 8002f78:	43340000 	.word	0x43340000
 8002f7c:	40490fdb 	.word	0x40490fdb
 8002f80:	20001810 	.word	0x20001810
 8002f84:	200005b8 	.word	0x200005b8
 8002f88:	200017cc 	.word	0x200017cc

08002f8c <HAL_ADC_ConvCpltCallback>:
 8002f8c:	e92d 4ff0 	stmdb	sp!, {r4, r5, r6, r7, r8, r9, sl, fp, lr}
 8002f90:	4b45      	ldr	r3, [pc, #276]	; (80030a8 <HAL_ADC_ConvCpltCallback+0x11c>)
 8002f92:	4298      	cmp	r0, r3
 8002f94:	b085      	sub	sp, #20
 8002f96:	d142      	bne.n	800301e <HAL_ADC_ConvCpltCallback+0x92>
 8002f98:	4a44      	ldr	r2, [pc, #272]	; (80030ac <HAL_ADC_ConvCpltCallback+0x120>)
 8002f9a:	4e45      	ldr	r6, [pc, #276]	; (80030b0 <HAL_ADC_ConvCpltCallback+0x124>)
 8002f9c:	6810      	ldr	r0, [r2, #0]
 8002f9e:	6851      	ldr	r1, [r2, #4]
 8002fa0:	f8df c118 	ldr.w	ip, [pc, #280]	; 80030bc <HAL_ADC_ConvCpltCallback+0x130>
 8002fa4:	f8df 811c 	ldr.w	r8, [pc, #284]	; 80030c4 <HAL_ADC_ConvCpltCallback+0x138>
 8002fa8:	ab01      	add	r3, sp, #4
 8002faa:	c303      	stmia	r3!, {r0, r1}
 8002fac:	6890      	ldr	r0, [r2, #8]
 8002fae:	6018      	str	r0, [r3, #0]
 8002fb0:	4840      	ldr	r0, [pc, #256]	; (80030b4 <HAL_ADC_ConvCpltCallback+0x128>)
 8002fb2:	ad01      	add	r5, sp, #4
 8002fb4:	6803      	ldr	r3, [r0, #0]
 8002fb6:	462c      	mov	r4, r5
 8002fb8:	2200      	movs	r2, #0
 8002fba:	f04f 0a7b 	mov.w	sl, #123	; 0x7b
 8002fbe:	f04f 0924 	mov.w	r9, #36	; 0x24
 8002fc2:	f04f 0e06 	mov.w	lr, #6
 8002fc6:	f834 1b02 	ldrh.w	r1, [r4], #2
 8002fca:	fb0a 3701 	mla	r7, sl, r1, r3
 8002fce:	fb09 8101 	mla	r1, r9, r1, r8
 8002fd2:	3201      	adds	r2, #1
 8002fd4:	f891 b00b 	ldrb.w	fp, [r1, #11]
 8002fd8:	7a89      	ldrb	r1, [r1, #10]
 8002fda:	fb0e 110b 	mla	r1, lr, fp, r1
 8002fde:	b292      	uxth	r2, r2
 8002fe0:	f83c 1011 	ldrh.w	r1, [ip, r1, lsl #1]
 8002fe4:	f826 1017 	strh.w	r1, [r6, r7, lsl #1]
 8002fe8:	2a06      	cmp	r2, #6
 8002fea:	d1ec      	bne.n	8002fc6 <HAL_ADC_ConvCpltCallback+0x3a>
 8002fec:	3301      	adds	r3, #1
 8002fee:	2b7b      	cmp	r3, #123	; 0x7b
 8002ff0:	d913      	bls.n	800301a <HAL_ADC_ConvCpltCallback+0x8e>
 8002ff2:	2400      	movs	r4, #0
 8002ff4:	f8df 80d0 	ldr.w	r8, [pc, #208]	; 80030c8 <HAL_ADC_ConvCpltCallback+0x13c>
 8002ff8:	6004      	str	r4, [r0, #0]
 8002ffa:	f04f 09f6 	mov.w	r9, #246	; 0xf6
 8002ffe:	f835 7b02 	ldrh.w	r7, [r5], #2
 8003002:	fb09 6007 	mla	r0, r9, r7, r6
 8003006:	f7ff fe73 	bl	8002cf0 <computeMedian_ui16>
 800300a:	3401      	adds	r4, #1
 800300c:	2c06      	cmp	r4, #6
 800300e:	f828 0017 	strh.w	r0, [r8, r7, lsl #1]
 8003012:	d1f4      	bne.n	8002ffe <HAL_ADC_ConvCpltCallback+0x72>
 8003014:	b005      	add	sp, #20
 8003016:	e8bd 8ff0 	ldmia.w	sp!, {r4, r5, r6, r7, r8, r9, sl, fp, pc}
 800301a:	6003      	str	r3, [r0, #0]
 800301c:	e7fa      	b.n	8003014 <HAL_ADC_ConvCpltCallback+0x88>
 800301e:	4b26      	ldr	r3, [pc, #152]	; (80030b8 <HAL_ADC_ConvCpltCallback+0x12c>)
 8003020:	4298      	cmp	r0, r3
 8003022:	d1f7      	bne.n	8003014 <HAL_ADC_ConvCpltCallback+0x88>
 8003024:	4a21      	ldr	r2, [pc, #132]	; (80030ac <HAL_ADC_ConvCpltCallback+0x120>)
 8003026:	4e22      	ldr	r6, [pc, #136]	; (80030b0 <HAL_ADC_ConvCpltCallback+0x124>)
 8003028:	68d0      	ldr	r0, [r2, #12]
 800302a:	6911      	ldr	r1, [r2, #16]
 800302c:	4c23      	ldr	r4, [pc, #140]	; (80030bc <HAL_ADC_ConvCpltCallback+0x130>)
 800302e:	f8df c094 	ldr.w	ip, [pc, #148]	; 80030c4 <HAL_ADC_ConvCpltCallback+0x138>
 8003032:	ab01      	add	r3, sp, #4
 8003034:	c303      	stmia	r3!, {r0, r1}
 8003036:	6950      	ldr	r0, [r2, #20]
 8003038:	6018      	str	r0, [r3, #0]
 800303a:	4b1e      	ldr	r3, [pc, #120]	; (80030b4 <HAL_ADC_ConvCpltCallback+0x128>)
 800303c:	ad01      	add	r5, sp, #4
 800303e:	f8d3 8000 	ldr.w	r8, [r3]
 8003042:	4629      	mov	r1, r5
 8003044:	2300      	movs	r3, #0
 8003046:	f04f 097b 	mov.w	r9, #123	; 0x7b
 800304a:	f04f 0e24 	mov.w	lr, #36	; 0x24
 800304e:	2706      	movs	r7, #6
 8003050:	f831 2b02 	ldrh.w	r2, [r1], #2
 8003054:	fb09 8002 	mla	r0, r9, r2, r8
 8003058:	fb0e c202 	mla	r2, lr, r2, ip
 800305c:	3301      	adds	r3, #1
 800305e:	f892 a00b 	ldrb.w	sl, [r2, #11]
 8003062:	7a92      	ldrb	r2, [r2, #10]
 8003064:	fb07 220a 	mla	r2, r7, sl, r2
 8003068:	b29b      	uxth	r3, r3
 800306a:	f834 2012 	ldrh.w	r2, [r4, r2, lsl #1]
 800306e:	f826 2010 	strh.w	r2, [r6, r0, lsl #1]
 8003072:	2b06      	cmp	r3, #6
 8003074:	d1ec      	bne.n	8003050 <HAL_ADC_ConvCpltCallback+0xc4>
 8003076:	4a12      	ldr	r2, [pc, #72]	; (80030c0 <HAL_ADC_ConvCpltCallback+0x134>)
 8003078:	6813      	ldr	r3, [r2, #0]
 800307a:	3301      	adds	r3, #1
 800307c:	2b7b      	cmp	r3, #123	; 0x7b
 800307e:	d911      	bls.n	80030a4 <HAL_ADC_ConvCpltCallback+0x118>
 8003080:	2400      	movs	r4, #0
 8003082:	f8df 8044 	ldr.w	r8, [pc, #68]	; 80030c8 <HAL_ADC_ConvCpltCallback+0x13c>
 8003086:	6014      	str	r4, [r2, #0]
 8003088:	f04f 09f6 	mov.w	r9, #246	; 0xf6
 800308c:	f835 7b02 	ldrh.w	r7, [r5], #2
 8003090:	fb09 6007 	mla	r0, r9, r7, r6
 8003094:	f7ff fe2c 	bl	8002cf0 <computeMedian_ui16>
 8003098:	3401      	adds	r4, #1
 800309a:	2c06      	cmp	r4, #6
 800309c:	f828 0017 	strh.w	r0, [r8, r7, lsl #1]
 80030a0:	d1f4      	bne.n	800308c <HAL_ADC_ConvCpltCallback+0x100>
 80030a2:	e7b7      	b.n	8003014 <HAL_ADC_ConvCpltCallback+0x88>
 80030a4:	6013      	str	r3, [r2, #0]
 80030a6:	e7b5      	b.n	8003014 <HAL_ADC_ConvCpltCallback+0x88>
 80030a8:	200011e4 	.word	0x200011e4
 80030ac:	0800b428 	.word	0x0800b428
 80030b0:	200005d8 	.word	0x200005d8
 80030b4:	2000117c 	.word	0x2000117c
 80030b8:	2000122c 	.word	0x2000122c
 80030bc:	200005c0 	.word	0x200005c0
 80030c0:	20001180 	.word	0x20001180
 80030c4:	200001ac 	.word	0x200001ac
 80030c8:	20001160 	.word	0x20001160

080030cc <EN_DMA_IT>:
 80030cc:	b510      	push	{r4, lr}
 80030ce:	4c09      	ldr	r4, [pc, #36]	; (80030f4 <EN_DMA_IT+0x28>)
 80030d0:	4909      	ldr	r1, [pc, #36]	; (80030f8 <EN_DMA_IT+0x2c>)
 80030d2:	480a      	ldr	r0, [pc, #40]	; (80030fc <EN_DMA_IT+0x30>)
 80030d4:	2206      	movs	r2, #6
 80030d6:	f001 fb75 	bl	80047c4 <HAL_ADC_Start_DMA>
 80030da:	4621      	mov	r1, r4
 80030dc:	2206      	movs	r2, #6
 80030de:	4808      	ldr	r0, [pc, #32]	; (8003100 <EN_DMA_IT+0x34>)
 80030e0:	f001 fb70 	bl	80047c4 <HAL_ADC_Start_DMA>
 80030e4:	f104 010c 	add.w	r1, r4, #12
 80030e8:	4806      	ldr	r0, [pc, #24]	; (8003104 <EN_DMA_IT+0x38>)
 80030ea:	e8bd 4010 	ldmia.w	sp!, {r4, lr}
 80030ee:	2206      	movs	r2, #6
 80030f0:	f001 bb68 	b.w	80047c4 <HAL_ADC_Start_DMA>
 80030f4:	200005c0 	.word	0x200005c0
 80030f8:	20000158 	.word	0x20000158
 80030fc:	2000119c 	.word	0x2000119c
 8003100:	200011e4 	.word	0x200011e4
 8003104:	2000122c 	.word	0x2000122c

08003108 <Error_Handler>:
 8003108:	b508      	push	{r3, lr}
 800310a:	f7ff f823 	bl	8002154 <DIS_motors>
 800310e:	4805      	ldr	r0, [pc, #20]	; (8003124 <Error_Handler+0x1c>)
 8003110:	f005 f946 	bl	80083a0 <iprintf>
 8003114:	b672      	cpsid	i
 8003116:	4804      	ldr	r0, [pc, #16]	; (8003128 <Error_Handler+0x20>)
 8003118:	2201      	movs	r2, #1
 800311a:	2104      	movs	r1, #4
 800311c:	f001 ffe2 	bl	80050e4 <HAL_GPIO_WritePin>
 8003120:	e7fe      	b.n	8003120 <Error_Handler+0x18>
 8003122:	bf00      	nop
 8003124:	0800b4b5 	.word	0x0800b4b5
 8003128:	40021000 	.word	0x40021000

0800312c <SystemClock_Config>:
 800312c:	b510      	push	{r4, lr}
 800312e:	b094      	sub	sp, #80	; 0x50
 8003130:	2210      	movs	r2, #16
 8003132:	2100      	movs	r1, #0
 8003134:	a80a      	add	r0, sp, #40	; 0x28
 8003136:	f005 f84a 	bl	80081ce <memset>
 800313a:	2214      	movs	r2, #20
 800313c:	2100      	movs	r1, #0
 800313e:	a803      	add	r0, sp, #12
 8003140:	f005 f845 	bl	80081ce <memset>
 8003144:	4b1f      	ldr	r3, [pc, #124]	; (80031c4 <SystemClock_Config+0x98>)
 8003146:	2100      	movs	r1, #0
 8003148:	9101      	str	r1, [sp, #4]
 800314a:	6c1a      	ldr	r2, [r3, #64]	; 0x40
 800314c:	f042 5280 	orr.w	r2, r2, #268435456	; 0x10000000
 8003150:	641a      	str	r2, [r3, #64]	; 0x40
 8003152:	6c1b      	ldr	r3, [r3, #64]	; 0x40
 8003154:	f003 5380 	and.w	r3, r3, #268435456	; 0x10000000
 8003158:	9301      	str	r3, [sp, #4]
 800315a:	9b01      	ldr	r3, [sp, #4]
 800315c:	4b1a      	ldr	r3, [pc, #104]	; (80031c8 <SystemClock_Config+0x9c>)
 800315e:	9102      	str	r1, [sp, #8]
 8003160:	681a      	ldr	r2, [r3, #0]
 8003162:	f442 4280 	orr.w	r2, r2, #16384	; 0x4000
 8003166:	601a      	str	r2, [r3, #0]
 8003168:	681b      	ldr	r3, [r3, #0]
 800316a:	f403 4380 	and.w	r3, r3, #16384	; 0x4000
 800316e:	9302      	str	r3, [sp, #8]
 8003170:	9b02      	ldr	r3, [sp, #8]
 8003172:	2101      	movs	r1, #1
 8003174:	f44f 3380 	mov.w	r3, #65536	; 0x10000
 8003178:	2402      	movs	r4, #2
 800317a:	e9cd 1308 	strd	r1, r3, [sp, #32]
 800317e:	f44f 0380 	mov.w	r3, #4194304	; 0x400000
 8003182:	2008      	movs	r0, #8
 8003184:	e9cd 430e 	strd	r4, r3, [sp, #56]	; 0x38
 8003188:	23a8      	movs	r3, #168	; 0xa8
 800318a:	e9cd 0310 	strd	r0, r3, [sp, #64]	; 0x40
 800318e:	2307      	movs	r3, #7
 8003190:	a808      	add	r0, sp, #32
 8003192:	9412      	str	r4, [sp, #72]	; 0x48
 8003194:	9313      	str	r3, [sp, #76]	; 0x4c
 8003196:	f002 fcab 	bl	8005af0 <HAL_RCC_OscConfig>
 800319a:	b108      	cbz	r0, 80031a0 <SystemClock_Config+0x74>
 800319c:	f7ff ffb4 	bl	8003108 <Error_Handler>
 80031a0:	230f      	movs	r3, #15
 80031a2:	e9cd 3403 	strd	r3, r4, [sp, #12]
 80031a6:	9005      	str	r0, [sp, #20]
 80031a8:	f44f 52a0 	mov.w	r2, #5120	; 0x1400
 80031ac:	f44f 5380 	mov.w	r3, #4096	; 0x1000
 80031b0:	2105      	movs	r1, #5
 80031b2:	a803      	add	r0, sp, #12
 80031b4:	e9cd 2306 	strd	r2, r3, [sp, #24]
 80031b8:	f002 fe78 	bl	8005eac <HAL_RCC_ClockConfig>
 80031bc:	2800      	cmp	r0, #0
 80031be:	d1ed      	bne.n	800319c <SystemClock_Config+0x70>
 80031c0:	b014      	add	sp, #80	; 0x50
 80031c2:	bd10      	pop	{r4, pc}
 80031c4:	40023800 	.word	0x40023800
 80031c8:	40007000 	.word	0x40007000

080031cc <main>:
 80031cc:	e92d 47f0 	stmdb	sp!, {r4, r5, r6, r7, r8, r9, sl, lr}
 80031d0:	b0d6      	sub	sp, #344	; 0x158
 80031d2:	f001 fa11 	bl	80045f8 <HAL_Init>
 80031d6:	f640 30b8 	movw	r0, #3000	; 0xbb8
 80031da:	2400      	movs	r4, #0
 80031dc:	4d83      	ldr	r5, [pc, #524]	; (80033ec <main+0x220>)
 80031de:	f001 fa37 	bl	8004650 <HAL_Delay>
 80031e2:	f7ff ffa3 	bl	800312c <SystemClock_Config>
 80031e6:	2214      	movs	r2, #20
 80031e8:	2100      	movs	r1, #0
 80031ea:	a84e      	add	r0, sp, #312	; 0x138
 80031ec:	f004 ffef 	bl	80081ce <memset>
 80031f0:	9403      	str	r4, [sp, #12]
 80031f2:	6b2b      	ldr	r3, [r5, #48]	; 0x30
 80031f4:	487e      	ldr	r0, [pc, #504]	; (80033f0 <main+0x224>)
 80031f6:	f043 0310 	orr.w	r3, r3, #16
 80031fa:	632b      	str	r3, [r5, #48]	; 0x30
 80031fc:	6b2b      	ldr	r3, [r5, #48]	; 0x30
 80031fe:	f003 0310 	and.w	r3, r3, #16
 8003202:	9303      	str	r3, [sp, #12]
 8003204:	9b03      	ldr	r3, [sp, #12]
 8003206:	9404      	str	r4, [sp, #16]
 8003208:	6b2b      	ldr	r3, [r5, #48]	; 0x30
 800320a:	f043 0304 	orr.w	r3, r3, #4
 800320e:	632b      	str	r3, [r5, #48]	; 0x30
 8003210:	6b2b      	ldr	r3, [r5, #48]	; 0x30
 8003212:	f003 0304 	and.w	r3, r3, #4
 8003216:	9304      	str	r3, [sp, #16]
 8003218:	9b04      	ldr	r3, [sp, #16]
 800321a:	9405      	str	r4, [sp, #20]
 800321c:	6b2b      	ldr	r3, [r5, #48]	; 0x30
 800321e:	f043 0380 	orr.w	r3, r3, #128	; 0x80
 8003222:	632b      	str	r3, [r5, #48]	; 0x30
 8003224:	6b2b      	ldr	r3, [r5, #48]	; 0x30
 8003226:	f003 0380 	and.w	r3, r3, #128	; 0x80
 800322a:	9305      	str	r3, [sp, #20]
 800322c:	9b05      	ldr	r3, [sp, #20]
 800322e:	9406      	str	r4, [sp, #24]
 8003230:	6b2b      	ldr	r3, [r5, #48]	; 0x30
 8003232:	f043 0301 	orr.w	r3, r3, #1
 8003236:	632b      	str	r3, [r5, #48]	; 0x30
 8003238:	6b2b      	ldr	r3, [r5, #48]	; 0x30
 800323a:	f003 0301 	and.w	r3, r3, #1
 800323e:	9306      	str	r3, [sp, #24]
 8003240:	9b06      	ldr	r3, [sp, #24]
 8003242:	9407      	str	r4, [sp, #28]
 8003244:	6b2b      	ldr	r3, [r5, #48]	; 0x30
 8003246:	f043 0302 	orr.w	r3, r3, #2
 800324a:	632b      	str	r3, [r5, #48]	; 0x30
 800324c:	6b2b      	ldr	r3, [r5, #48]	; 0x30
 800324e:	f003 0302 	and.w	r3, r3, #2
 8003252:	9307      	str	r3, [sp, #28]
 8003254:	9b07      	ldr	r3, [sp, #28]
 8003256:	9408      	str	r4, [sp, #32]
 8003258:	6b2b      	ldr	r3, [r5, #48]	; 0x30
 800325a:	f043 0308 	orr.w	r3, r3, #8
 800325e:	632b      	str	r3, [r5, #48]	; 0x30
 8003260:	6b2b      	ldr	r3, [r5, #48]	; 0x30
 8003262:	f003 0308 	and.w	r3, r3, #8
 8003266:	9308      	str	r3, [sp, #32]
 8003268:	4622      	mov	r2, r4
 800326a:	210c      	movs	r1, #12
 800326c:	9b08      	ldr	r3, [sp, #32]
 800326e:	f001 ff39 	bl	80050e4 <HAL_GPIO_WritePin>
 8003272:	4860      	ldr	r0, [pc, #384]	; (80033f4 <main+0x228>)
 8003274:	4622      	mov	r2, r4
 8003276:	f44f 4160 	mov.w	r1, #57344	; 0xe000
 800327a:	f001 ff33 	bl	80050e4 <HAL_GPIO_WritePin>
 800327e:	485e      	ldr	r0, [pc, #376]	; (80033f8 <main+0x22c>)
 8003280:	4622      	mov	r2, r4
 8003282:	f44f 5180 	mov.w	r1, #4096	; 0x1000
 8003286:	f001 ff2d 	bl	80050e4 <HAL_GPIO_WritePin>
 800328a:	4622      	mov	r2, r4
 800328c:	485b      	ldr	r0, [pc, #364]	; (80033fc <main+0x230>)
 800328e:	f640 4101 	movw	r1, #3073	; 0xc01
 8003292:	f001 ff27 	bl	80050e4 <HAL_GPIO_WritePin>
 8003296:	2601      	movs	r6, #1
 8003298:	230c      	movs	r3, #12
 800329a:	4855      	ldr	r0, [pc, #340]	; (80033f0 <main+0x224>)
 800329c:	a94e      	add	r1, sp, #312	; 0x138
 800329e:	e9cd 364e 	strd	r3, r6, [sp, #312]	; 0x138
 80032a2:	e9cd 4450 	strd	r4, r4, [sp, #320]	; 0x140
 80032a6:	f001 fe3d 	bl	8004f24 <HAL_GPIO_Init>
 80032aa:	f44f 4360 	mov.w	r3, #57344	; 0xe000
 80032ae:	4851      	ldr	r0, [pc, #324]	; (80033f4 <main+0x228>)
 80032b0:	a94e      	add	r1, sp, #312	; 0x138
 80032b2:	e9cd 364e 	strd	r3, r6, [sp, #312]	; 0x138
 80032b6:	e9cd 4450 	strd	r4, r4, [sp, #320]	; 0x140
 80032ba:	f001 fe33 	bl	8004f24 <HAL_GPIO_Init>
 80032be:	f44f 5380 	mov.w	r3, #4096	; 0x1000
 80032c2:	484d      	ldr	r0, [pc, #308]	; (80033f8 <main+0x22c>)
 80032c4:	a94e      	add	r1, sp, #312	; 0x138
 80032c6:	f44f 1988 	mov.w	r9, #1114112	; 0x110000
 80032ca:	e9cd 364e 	strd	r3, r6, [sp, #312]	; 0x138
 80032ce:	2702      	movs	r7, #2
 80032d0:	e9cd 4450 	strd	r4, r4, [sp, #320]	; 0x140
 80032d4:	f001 fe26 	bl	8004f24 <HAL_GPIO_Init>
 80032d8:	f24e 0320 	movw	r3, #57376	; 0xe020
 80032dc:	4846      	ldr	r0, [pc, #280]	; (80033f8 <main+0x22c>)
 80032de:	9750      	str	r7, [sp, #320]	; 0x140
 80032e0:	a94e      	add	r1, sp, #312	; 0x138
 80032e2:	e9cd 394e 	strd	r3, r9, [sp, #312]	; 0x138
 80032e6:	f001 fe1d 	bl	8004f24 <HAL_GPIO_Init>
 80032ea:	f640 4301 	movw	r3, #3073	; 0xc01
 80032ee:	4843      	ldr	r0, [pc, #268]	; (80033fc <main+0x230>)
 80032f0:	a94e      	add	r1, sp, #312	; 0x138
 80032f2:	e9cd 364e 	strd	r3, r6, [sp, #312]	; 0x138
 80032f6:	e9cd 4450 	strd	r4, r4, [sp, #320]	; 0x140
 80032fa:	f001 fe13 	bl	8004f24 <HAL_GPIO_Init>
 80032fe:	f44f 7380 	mov.w	r3, #256	; 0x100
 8003302:	483f      	ldr	r0, [pc, #252]	; (8003400 <main+0x234>)
 8003304:	9450      	str	r4, [sp, #320]	; 0x140
 8003306:	a94e      	add	r1, sp, #312	; 0x138
 8003308:	e9cd 344e 	strd	r3, r4, [sp, #312]	; 0x138
 800330c:	f04f 0810 	mov.w	r8, #16
 8003310:	f001 fe08 	bl	8004f24 <HAL_GPIO_Init>
 8003314:	f44f 1344 	mov.w	r3, #3211264	; 0x310000
 8003318:	4838      	ldr	r0, [pc, #224]	; (80033fc <main+0x230>)
 800331a:	9450      	str	r4, [sp, #320]	; 0x140
 800331c:	a94e      	add	r1, sp, #312	; 0x138
 800331e:	e9cd 834e 	strd	r8, r3, [sp, #312]	; 0x138
 8003322:	f001 fdff 	bl	8004f24 <HAL_GPIO_Init>
 8003326:	2380      	movs	r3, #128	; 0x80
 8003328:	4834      	ldr	r0, [pc, #208]	; (80033fc <main+0x230>)
 800332a:	9750      	str	r7, [sp, #320]	; 0x140
 800332c:	a94e      	add	r1, sp, #312	; 0x138
 800332e:	e9cd 394e 	strd	r3, r9, [sp, #312]	; 0x138
 8003332:	f001 fdf7 	bl	8004f24 <HAL_GPIO_Init>
 8003336:	4622      	mov	r2, r4
 8003338:	4621      	mov	r1, r4
 800333a:	200a      	movs	r0, #10
 800333c:	f001 fbd8 	bl	8004af0 <HAL_NVIC_SetPriority>
 8003340:	200a      	movs	r0, #10
 8003342:	f001 fc07 	bl	8004b54 <HAL_NVIC_EnableIRQ>
 8003346:	4622      	mov	r2, r4
 8003348:	4621      	mov	r1, r4
 800334a:	2017      	movs	r0, #23
 800334c:	f001 fbd0 	bl	8004af0 <HAL_NVIC_SetPriority>
 8003350:	2017      	movs	r0, #23
 8003352:	f001 fbff 	bl	8004b54 <HAL_NVIC_EnableIRQ>
 8003356:	4622      	mov	r2, r4
 8003358:	4621      	mov	r1, r4
 800335a:	2028      	movs	r0, #40	; 0x28
 800335c:	f001 fbc8 	bl	8004af0 <HAL_NVIC_SetPriority>
 8003360:	2028      	movs	r0, #40	; 0x28
 8003362:	f001 fbf7 	bl	8004b54 <HAL_NVIC_EnableIRQ>
 8003366:	9402      	str	r4, [sp, #8]
 8003368:	6b2b      	ldr	r3, [r5, #48]	; 0x30
 800336a:	f8df 90a0 	ldr.w	r9, [pc, #160]	; 800340c <main+0x240>
 800336e:	f443 0380 	orr.w	r3, r3, #4194304	; 0x400000
 8003372:	632b      	str	r3, [r5, #48]	; 0x30
 8003374:	6b2b      	ldr	r3, [r5, #48]	; 0x30
 8003376:	4d23      	ldr	r5, [pc, #140]	; (8003404 <main+0x238>)
 8003378:	f403 0380 	and.w	r3, r3, #4194304	; 0x400000
 800337c:	4622      	mov	r2, r4
 800337e:	4621      	mov	r1, r4
 8003380:	9302      	str	r3, [sp, #8]
 8003382:	2038      	movs	r0, #56	; 0x38
 8003384:	9b02      	ldr	r3, [sp, #8]
 8003386:	f001 fbb3 	bl	8004af0 <HAL_NVIC_SetPriority>
 800338a:	2038      	movs	r0, #56	; 0x38
 800338c:	f001 fbe2 	bl	8004b54 <HAL_NVIC_EnableIRQ>
 8003390:	4622      	mov	r2, r4
 8003392:	4621      	mov	r1, r4
 8003394:	2039      	movs	r0, #57	; 0x39
 8003396:	f001 fbab 	bl	8004af0 <HAL_NVIC_SetPriority>
 800339a:	2039      	movs	r0, #57	; 0x39
 800339c:	f001 fbda 	bl	8004b54 <HAL_NVIC_EnableIRQ>
 80033a0:	4622      	mov	r2, r4
 80033a2:	4621      	mov	r1, r4
 80033a4:	203a      	movs	r0, #58	; 0x3a
 80033a6:	f001 fba3 	bl	8004af0 <HAL_NVIC_SetPriority>
 80033aa:	203a      	movs	r0, #58	; 0x3a
 80033ac:	f001 fbd2 	bl	8004b54 <HAL_NVIC_EnableIRQ>
 80033b0:	4642      	mov	r2, r8
 80033b2:	4621      	mov	r1, r4
 80033b4:	a827      	add	r0, sp, #156	; 0x9c
 80033b6:	f004 ff0a 	bl	80081ce <memset>
 80033ba:	4b13      	ldr	r3, [pc, #76]	; (8003408 <main+0x23c>)
 80033bc:	60ac      	str	r4, [r5, #8]
 80033be:	f44f 3a80 	mov.w	sl, #65536	; 0x10000
 80033c2:	4628      	mov	r0, r5
 80033c4:	e9c5 3a00 	strd	r3, sl, [r5]
 80033c8:	612e      	str	r6, [r5, #16]
 80033ca:	762e      	strb	r6, [r5, #24]
 80033cc:	f885 4020 	strb.w	r4, [r5, #32]
 80033d0:	62ec      	str	r4, [r5, #44]	; 0x2c
 80033d2:	f8c5 9028 	str.w	r9, [r5, #40]	; 0x28
 80033d6:	60ec      	str	r4, [r5, #12]
 80033d8:	61ee      	str	r6, [r5, #28]
 80033da:	f885 6030 	strb.w	r6, [r5, #48]	; 0x30
 80033de:	616e      	str	r6, [r5, #20]
 80033e0:	f001 f94a 	bl	8004678 <HAL_ADC_Init>
 80033e4:	b1a0      	cbz	r0, 8003410 <main+0x244>
 80033e6:	f7ff fe8f 	bl	8003108 <Error_Handler>
 80033ea:	bf00      	nop
 80033ec:	40023800 	.word	0x40023800
 80033f0:	40021000 	.word	0x40021000
 80033f4:	40020800 	.word	0x40020800
 80033f8:	40020400 	.word	0x40020400
 80033fc:	40020c00 	.word	0x40020c00
 8003400:	40020000 	.word	0x40020000
 8003404:	2000119c 	.word	0x2000119c
 8003408:	40012000 	.word	0x40012000
 800340c:	0f000001 	.word	0x0f000001
 8003410:	9029      	str	r0, [sp, #164]	; 0xa4
 8003412:	a927      	add	r1, sp, #156	; 0x9c
 8003414:	4628      	mov	r0, r5
 8003416:	e9cd 7627 	strd	r7, r6, [sp, #156]	; 0x9c
 800341a:	f001 fac5 	bl	80049a8 <HAL_ADC_ConfigChannel>
 800341e:	4605      	mov	r5, r0
 8003420:	2800      	cmp	r0, #0
 8003422:	d1e0      	bne.n	80033e6 <main+0x21a>
 8003424:	4cc9      	ldr	r4, [pc, #804]	; (800374c <main+0x580>)
 8003426:	4601      	mov	r1, r0
 8003428:	4642      	mov	r2, r8
 800342a:	a823      	add	r0, sp, #140	; 0x8c
 800342c:	f004 fecf 	bl	80081ce <memset>
 8003430:	4bc7      	ldr	r3, [pc, #796]	; (8003750 <main+0x584>)
 8003432:	60a5      	str	r5, [r4, #8]
 8003434:	e9c4 950a 	strd	r9, r5, [r4, #40]	; 0x28
 8003438:	f884 5020 	strb.w	r5, [r4, #32]
 800343c:	60e5      	str	r5, [r4, #12]
 800343e:	4620      	mov	r0, r4
 8003440:	2506      	movs	r5, #6
 8003442:	e9c4 3a00 	strd	r3, sl, [r4]
 8003446:	6126      	str	r6, [r4, #16]
 8003448:	7626      	strb	r6, [r4, #24]
 800344a:	61e5      	str	r5, [r4, #28]
 800344c:	f884 6030 	strb.w	r6, [r4, #48]	; 0x30
 8003450:	6166      	str	r6, [r4, #20]
 8003452:	f001 f911 	bl	8004678 <HAL_ADC_Init>
 8003456:	2800      	cmp	r0, #0
 8003458:	d1c5      	bne.n	80033e6 <main+0x21a>
 800345a:	f04f 0805 	mov.w	r8, #5
 800345e:	e9cd 8623 	strd	r8, r6, [sp, #140]	; 0x8c
 8003462:	a923      	add	r1, sp, #140	; 0x8c
 8003464:	2607      	movs	r6, #7
 8003466:	4620      	mov	r0, r4
 8003468:	9625      	str	r6, [sp, #148]	; 0x94
 800346a:	f001 fa9d 	bl	80049a8 <HAL_ADC_ConfigChannel>
 800346e:	2800      	cmp	r0, #0
 8003470:	d1b9      	bne.n	80033e6 <main+0x21a>
 8003472:	a923      	add	r1, sp, #140	; 0x8c
 8003474:	4620      	mov	r0, r4
 8003476:	e9cd 6723 	strd	r6, r7, [sp, #140]	; 0x8c
 800347a:	f001 fa95 	bl	80049a8 <HAL_ADC_ConfigChannel>
 800347e:	2800      	cmp	r0, #0
 8003480:	d1b1      	bne.n	80033e6 <main+0x21a>
 8003482:	2008      	movs	r0, #8
 8003484:	2303      	movs	r3, #3
 8003486:	e9cd 0323 	strd	r0, r3, [sp, #140]	; 0x8c
 800348a:	a923      	add	r1, sp, #140	; 0x8c
 800348c:	4620      	mov	r0, r4
 800348e:	f001 fa8b 	bl	80049a8 <HAL_ADC_ConfigChannel>
 8003492:	2800      	cmp	r0, #0
 8003494:	d1a7      	bne.n	80033e6 <main+0x21a>
 8003496:	2109      	movs	r1, #9
 8003498:	2304      	movs	r3, #4
 800349a:	e9cd 1323 	strd	r1, r3, [sp, #140]	; 0x8c
 800349e:	4620      	mov	r0, r4
 80034a0:	a923      	add	r1, sp, #140	; 0x8c
 80034a2:	f001 fa81 	bl	80049a8 <HAL_ADC_ConfigChannel>
 80034a6:	2800      	cmp	r0, #0
 80034a8:	d19d      	bne.n	80033e6 <main+0x21a>
 80034aa:	230e      	movs	r3, #14
 80034ac:	a923      	add	r1, sp, #140	; 0x8c
 80034ae:	4620      	mov	r0, r4
 80034b0:	e9cd 3823 	strd	r3, r8, [sp, #140]	; 0x8c
 80034b4:	f001 fa78 	bl	80049a8 <HAL_ADC_ConfigChannel>
 80034b8:	2800      	cmp	r0, #0
 80034ba:	d194      	bne.n	80033e6 <main+0x21a>
 80034bc:	230f      	movs	r3, #15
 80034be:	a923      	add	r1, sp, #140	; 0x8c
 80034c0:	4620      	mov	r0, r4
 80034c2:	e9cd 3523 	strd	r3, r5, [sp, #140]	; 0x8c
 80034c6:	f001 fa6f 	bl	80049a8 <HAL_ADC_ConfigChannel>
 80034ca:	2800      	cmp	r0, #0
 80034cc:	d18b      	bne.n	80033e6 <main+0x21a>
 80034ce:	4ba1      	ldr	r3, [pc, #644]	; (8003754 <main+0x588>)
 80034d0:	4aa1      	ldr	r2, [pc, #644]	; (8003758 <main+0x58c>)
 80034d2:	6198      	str	r0, [r3, #24]
 80034d4:	e9c3 2000 	strd	r2, r0, [r3]
 80034d8:	e9c3 0002 	strd	r0, r0, [r3, #8]
 80034dc:	e9c3 0004 	strd	r0, r0, [r3, #16]
 80034e0:	6218      	str	r0, [r3, #32]
 80034e2:	4618      	mov	r0, r3
 80034e4:	f001 fb56 	bl	8004b94 <HAL_DCMI_Init>
 80034e8:	2800      	cmp	r0, #0
 80034ea:	f47f af7c 	bne.w	80033e6 <main+0x21a>
 80034ee:	489b      	ldr	r0, [pc, #620]	; (800375c <main+0x590>)
 80034f0:	4a9b      	ldr	r2, [pc, #620]	; (8003760 <main+0x594>)
 80034f2:	4b9c      	ldr	r3, [pc, #624]	; (8003764 <main+0x598>)
 80034f4:	e9c0 2300 	strd	r2, r3, [r0]
 80034f8:	2300      	movs	r3, #0
 80034fa:	f44f 4280 	mov.w	r2, #16384	; 0x4000
 80034fe:	e9c0 3302 	strd	r3, r3, [r0, #8]
 8003502:	e9c0 2304 	strd	r2, r3, [r0, #16]
 8003506:	e9c0 3306 	strd	r3, r3, [r0, #24]
 800350a:	6203      	str	r3, [r0, #32]
 800350c:	f001 ffd8 	bl	80054c0 <HAL_I2C_Init>
 8003510:	4604      	mov	r4, r0
 8003512:	2800      	cmp	r0, #0
 8003514:	f47f af67 	bne.w	80033e6 <main+0x21a>
 8003518:	4b93      	ldr	r3, [pc, #588]	; (8003768 <main+0x59c>)
 800351a:	4a94      	ldr	r2, [pc, #592]	; (800376c <main+0x5a0>)
 800351c:	6198      	str	r0, [r3, #24]
 800351e:	e9c3 2000 	strd	r2, r0, [r3]
 8003522:	e9c3 0002 	strd	r0, r0, [r3, #8]
 8003526:	e9c3 0004 	strd	r0, r0, [r3, #16]
 800352a:	4601      	mov	r1, r0
 800352c:	2210      	movs	r2, #16
 800352e:	a81f      	add	r0, sp, #124	; 0x7c
 8003530:	f004 fe4d 	bl	80081ce <memset>
 8003534:	221c      	movs	r2, #28
 8003536:	4621      	mov	r1, r4
 8003538:	a847      	add	r0, sp, #284	; 0x11c
 800353a:	4d8d      	ldr	r5, [pc, #564]	; (8003770 <main+0x5a4>)
 800353c:	f8df a248 	ldr.w	sl, [pc, #584]	; 8003788 <main+0x5bc>
 8003540:	e9cd 4411 	strd	r4, r4, [sp, #68]	; 0x44
 8003544:	f004 fe43 	bl	80081ce <memset>
 8003548:	2220      	movs	r2, #32
 800354a:	4621      	mov	r1, r4
 800354c:	a84e      	add	r0, sp, #312	; 0x138
 800354e:	f004 fe3e 	bl	80081ce <memset>
 8003552:	2337      	movs	r3, #55	; 0x37
 8003554:	e9c5 a300 	strd	sl, r3, [r5]
 8003558:	4628      	mov	r0, r5
 800355a:	f64e 235f 	movw	r3, #59999	; 0xea5f
 800355e:	e9c5 3403 	strd	r3, r4, [r5, #12]
 8003562:	e9c5 4405 	strd	r4, r4, [r5, #20]
 8003566:	60ac      	str	r4, [r5, #8]
 8003568:	f003 fc06 	bl	8006d78 <HAL_TIM_Base_Init>
 800356c:	2800      	cmp	r0, #0
 800356e:	f47f af3a 	bne.w	80033e6 <main+0x21a>
 8003572:	f44f 5380 	mov.w	r3, #4096	; 0x1000
 8003576:	a91f      	add	r1, sp, #124	; 0x7c
 8003578:	4628      	mov	r0, r5
 800357a:	931f      	str	r3, [sp, #124]	; 0x7c
 800357c:	f003 fcf0 	bl	8006f60 <HAL_TIM_ConfigClockSource>
 8003580:	2800      	cmp	r0, #0
 8003582:	f47f af30 	bne.w	80033e6 <main+0x21a>
 8003586:	4628      	mov	r0, r5
 8003588:	f003 fc22 	bl	8006dd0 <HAL_TIM_PWM_Init>
 800358c:	2800      	cmp	r0, #0
 800358e:	f47f af2a 	bne.w	80033e6 <main+0x21a>
 8003592:	e9cd 0011 	strd	r0, r0, [sp, #68]	; 0x44
 8003596:	a911      	add	r1, sp, #68	; 0x44
 8003598:	4628      	mov	r0, r5
 800359a:	f003 fdf5 	bl	8007188 <HAL_TIMEx_MasterConfigSynchronization>
 800359e:	4602      	mov	r2, r0
 80035a0:	2800      	cmp	r0, #0
 80035a2:	f47f af20 	bne.w	80033e6 <main+0x21a>
 80035a6:	2360      	movs	r3, #96	; 0x60
 80035a8:	e9cd 3047 	strd	r3, r0, [sp, #284]	; 0x11c
 80035ac:	e9cd 0049 	strd	r0, r0, [sp, #292]	; 0x124
 80035b0:	e9cd 004b 	strd	r0, r0, [sp, #300]	; 0x12c
 80035b4:	904d      	str	r0, [sp, #308]	; 0x134
 80035b6:	a947      	add	r1, sp, #284	; 0x11c
 80035b8:	4628      	mov	r0, r5
 80035ba:	f003 fc6b 	bl	8006e94 <HAL_TIM_PWM_ConfigChannel>
 80035be:	2800      	cmp	r0, #0
 80035c0:	f47f af11 	bne.w	80033e6 <main+0x21a>
 80035c4:	2204      	movs	r2, #4
 80035c6:	a947      	add	r1, sp, #284	; 0x11c
 80035c8:	4628      	mov	r0, r5
 80035ca:	f003 fc63 	bl	8006e94 <HAL_TIM_PWM_ConfigChannel>
 80035ce:	2800      	cmp	r0, #0
 80035d0:	f47f af09 	bne.w	80033e6 <main+0x21a>
 80035d4:	2208      	movs	r2, #8
 80035d6:	a947      	add	r1, sp, #284	; 0x11c
 80035d8:	4628      	mov	r0, r5
 80035da:	f003 fc5b 	bl	8006e94 <HAL_TIM_PWM_ConfigChannel>
 80035de:	2800      	cmp	r0, #0
 80035e0:	f47f af01 	bne.w	80033e6 <main+0x21a>
 80035e4:	220c      	movs	r2, #12
 80035e6:	a947      	add	r1, sp, #284	; 0x11c
 80035e8:	4628      	mov	r0, r5
 80035ea:	f003 fc53 	bl	8006e94 <HAL_TIM_PWM_ConfigChannel>
 80035ee:	2800      	cmp	r0, #0
 80035f0:	f47f aef9 	bne.w	80033e6 <main+0x21a>
 80035f4:	e9cd 004e 	strd	r0, r0, [sp, #312]	; 0x138
 80035f8:	e9cd 0050 	strd	r0, r0, [sp, #320]	; 0x140
 80035fc:	9052      	str	r0, [sp, #328]	; 0x148
 80035fe:	f44f 5300 	mov.w	r3, #8192	; 0x2000
 8003602:	9055      	str	r0, [sp, #340]	; 0x154
 8003604:	a94e      	add	r1, sp, #312	; 0x138
 8003606:	4628      	mov	r0, r5
 8003608:	9353      	str	r3, [sp, #332]	; 0x14c
 800360a:	f003 fdfb 	bl	8007204 <HAL_TIMEx_ConfigBreakDeadTime>
 800360e:	2800      	cmp	r0, #0
 8003610:	f47f aee9 	bne.w	80033e6 <main+0x21a>
 8003614:	4628      	mov	r0, r5
 8003616:	f000 fdc3 	bl	80041a0 <HAL_TIM_MspPostInit>
 800361a:	4c56      	ldr	r4, [pc, #344]	; (8003774 <main+0x5a8>)
 800361c:	2500      	movs	r5, #0
 800361e:	2210      	movs	r2, #16
 8003620:	2100      	movs	r1, #0
 8003622:	a81b      	add	r0, sp, #108	; 0x6c
 8003624:	f004 fdd3 	bl	80081ce <memset>
 8003628:	221c      	movs	r2, #28
 800362a:	4629      	mov	r1, r5
 800362c:	a840      	add	r0, sp, #256	; 0x100
 800362e:	e9cd 550f 	strd	r5, r5, [sp, #60]	; 0x3c
 8003632:	f04f 081b 	mov.w	r8, #27
 8003636:	f004 fdca 	bl	80081ce <memset>
 800363a:	f64e 275f 	movw	r7, #59999	; 0xea5f
 800363e:	f04f 4380 	mov.w	r3, #1073741824	; 0x40000000
 8003642:	4620      	mov	r0, r4
 8003644:	e9c4 3800 	strd	r3, r8, [r4]
 8003648:	e9c4 7503 	strd	r7, r5, [r4, #12]
 800364c:	60a5      	str	r5, [r4, #8]
 800364e:	61a5      	str	r5, [r4, #24]
 8003650:	f003 fb92 	bl	8006d78 <HAL_TIM_Base_Init>
 8003654:	2800      	cmp	r0, #0
 8003656:	f47f aec6 	bne.w	80033e6 <main+0x21a>
 800365a:	f44f 5380 	mov.w	r3, #4096	; 0x1000
 800365e:	a91b      	add	r1, sp, #108	; 0x6c
 8003660:	4620      	mov	r0, r4
 8003662:	931b      	str	r3, [sp, #108]	; 0x6c
 8003664:	f003 fc7c 	bl	8006f60 <HAL_TIM_ConfigClockSource>
 8003668:	2800      	cmp	r0, #0
 800366a:	f47f aebc 	bne.w	80033e6 <main+0x21a>
 800366e:	4620      	mov	r0, r4
 8003670:	f003 fbae 	bl	8006dd0 <HAL_TIM_PWM_Init>
 8003674:	2800      	cmp	r0, #0
 8003676:	f47f aeb6 	bne.w	80033e6 <main+0x21a>
 800367a:	e9cd 000f 	strd	r0, r0, [sp, #60]	; 0x3c
 800367e:	a90f      	add	r1, sp, #60	; 0x3c
 8003680:	4620      	mov	r0, r4
 8003682:	f003 fd81 	bl	8007188 <HAL_TIMEx_MasterConfigSynchronization>
 8003686:	4602      	mov	r2, r0
 8003688:	2800      	cmp	r0, #0
 800368a:	f47f aeac 	bne.w	80033e6 <main+0x21a>
 800368e:	2660      	movs	r6, #96	; 0x60
 8003690:	e9cd 6040 	strd	r6, r0, [sp, #256]	; 0x100
 8003694:	9042      	str	r0, [sp, #264]	; 0x108
 8003696:	9044      	str	r0, [sp, #272]	; 0x110
 8003698:	a940      	add	r1, sp, #256	; 0x100
 800369a:	4620      	mov	r0, r4
 800369c:	f003 fbfa 	bl	8006e94 <HAL_TIM_PWM_ConfigChannel>
 80036a0:	2800      	cmp	r0, #0
 80036a2:	f47f aea0 	bne.w	80033e6 <main+0x21a>
 80036a6:	2204      	movs	r2, #4
 80036a8:	a940      	add	r1, sp, #256	; 0x100
 80036aa:	4620      	mov	r0, r4
 80036ac:	f003 fbf2 	bl	8006e94 <HAL_TIM_PWM_ConfigChannel>
 80036b0:	4605      	mov	r5, r0
 80036b2:	2800      	cmp	r0, #0
 80036b4:	f47f ae97 	bne.w	80033e6 <main+0x21a>
 80036b8:	4620      	mov	r0, r4
 80036ba:	f000 fd71 	bl	80041a0 <HAL_TIM_MspPostInit>
 80036be:	4c2e      	ldr	r4, [pc, #184]	; (8003778 <main+0x5ac>)
 80036c0:	221c      	movs	r2, #28
 80036c2:	4629      	mov	r1, r5
 80036c4:	a839      	add	r0, sp, #228	; 0xe4
 80036c6:	e9cd 550d 	strd	r5, r5, [sp, #52]	; 0x34
 80036ca:	f004 fd80 	bl	80081ce <memset>
 80036ce:	4b2b      	ldr	r3, [pc, #172]	; (800377c <main+0x5b0>)
 80036d0:	6125      	str	r5, [r4, #16]
 80036d2:	4620      	mov	r0, r4
 80036d4:	e9c4 3800 	strd	r3, r8, [r4]
 80036d8:	e9c4 5702 	strd	r5, r7, [r4, #8]
 80036dc:	61a5      	str	r5, [r4, #24]
 80036de:	f003 fb77 	bl	8006dd0 <HAL_TIM_PWM_Init>
 80036e2:	2800      	cmp	r0, #0
 80036e4:	f47f ae7f 	bne.w	80033e6 <main+0x21a>
 80036e8:	e9cd 000d 	strd	r0, r0, [sp, #52]	; 0x34
 80036ec:	a90d      	add	r1, sp, #52	; 0x34
 80036ee:	4620      	mov	r0, r4
 80036f0:	f003 fd4a 	bl	8007188 <HAL_TIMEx_MasterConfigSynchronization>
 80036f4:	4602      	mov	r2, r0
 80036f6:	2800      	cmp	r0, #0
 80036f8:	f47f ae75 	bne.w	80033e6 <main+0x21a>
 80036fc:	e9cd 6039 	strd	r6, r0, [sp, #228]	; 0xe4
 8003700:	903b      	str	r0, [sp, #236]	; 0xec
 8003702:	903d      	str	r0, [sp, #244]	; 0xf4
 8003704:	a939      	add	r1, sp, #228	; 0xe4
 8003706:	4620      	mov	r0, r4
 8003708:	f003 fbc4 	bl	8006e94 <HAL_TIM_PWM_ConfigChannel>
 800370c:	2800      	cmp	r0, #0
 800370e:	f47f ae6a 	bne.w	80033e6 <main+0x21a>
 8003712:	2204      	movs	r2, #4
 8003714:	a939      	add	r1, sp, #228	; 0xe4
 8003716:	4620      	mov	r0, r4
 8003718:	f003 fbbc 	bl	8006e94 <HAL_TIM_PWM_ConfigChannel>
 800371c:	2800      	cmp	r0, #0
 800371e:	f47f ae62 	bne.w	80033e6 <main+0x21a>
 8003722:	4620      	mov	r0, r4
 8003724:	f000 fd3c 	bl	80041a0 <HAL_TIM_MspPostInit>
 8003728:	4c15      	ldr	r4, [pc, #84]	; (8003780 <main+0x5b4>)
 800372a:	2210      	movs	r2, #16
 800372c:	2100      	movs	r1, #0
 800372e:	a817      	add	r0, sp, #92	; 0x5c
 8003730:	f004 fd4d 	bl	80081ce <memset>
 8003734:	221c      	movs	r2, #28
 8003736:	4629      	mov	r1, r5
 8003738:	a832      	add	r0, sp, #200	; 0xc8
 800373a:	e9cd 550b 	strd	r5, r5, [sp, #44]	; 0x2c
 800373e:	f004 fd46 	bl	80081ce <memset>
 8003742:	4b10      	ldr	r3, [pc, #64]	; (8003784 <main+0x5b8>)
 8003744:	6023      	str	r3, [r4, #0]
 8003746:	4620      	mov	r0, r4
 8003748:	e020      	b.n	800378c <main+0x5c0>
 800374a:	bf00      	nop
 800374c:	200011e4 	.word	0x200011e4
 8003750:	40012100 	.word	0x40012100
 8003754:	20001274 	.word	0x20001274
 8003758:	50050000 	.word	0x50050000
 800375c:	20001428 	.word	0x20001428
 8003760:	40005800 	.word	0x40005800
 8003764:	00061a80 	.word	0x00061a80
 8003768:	2000147c 	.word	0x2000147c
 800376c:	40012c00 	.word	0x40012c00
 8003770:	20001500 	.word	0x20001500
 8003774:	200015d8 	.word	0x200015d8
 8003778:	20001620 	.word	0x20001620
 800377c:	40000400 	.word	0x40000400
 8003780:	20001668 	.word	0x20001668
 8003784:	40000800 	.word	0x40000800
 8003788:	40010000 	.word	0x40010000
 800378c:	e9c4 8501 	strd	r8, r5, [r4, #4]
 8003790:	e9c4 7503 	strd	r7, r5, [r4, #12]
 8003794:	61a5      	str	r5, [r4, #24]
 8003796:	f003 faef 	bl	8006d78 <HAL_TIM_Base_Init>
 800379a:	2800      	cmp	r0, #0
 800379c:	f47f ae23 	bne.w	80033e6 <main+0x21a>
 80037a0:	f44f 5380 	mov.w	r3, #4096	; 0x1000
 80037a4:	a917      	add	r1, sp, #92	; 0x5c
 80037a6:	4620      	mov	r0, r4
 80037a8:	9317      	str	r3, [sp, #92]	; 0x5c
 80037aa:	f003 fbd9 	bl	8006f60 <HAL_TIM_ConfigClockSource>
 80037ae:	2800      	cmp	r0, #0
 80037b0:	f47f ae19 	bne.w	80033e6 <main+0x21a>
 80037b4:	4620      	mov	r0, r4
 80037b6:	f003 fb0b 	bl	8006dd0 <HAL_TIM_PWM_Init>
 80037ba:	2800      	cmp	r0, #0
 80037bc:	f47f ae13 	bne.w	80033e6 <main+0x21a>
 80037c0:	e9cd 000b 	strd	r0, r0, [sp, #44]	; 0x2c
 80037c4:	a90b      	add	r1, sp, #44	; 0x2c
 80037c6:	4620      	mov	r0, r4
 80037c8:	f003 fcde 	bl	8007188 <HAL_TIMEx_MasterConfigSynchronization>
 80037cc:	4602      	mov	r2, r0
 80037ce:	2800      	cmp	r0, #0
 80037d0:	f47f ae09 	bne.w	80033e6 <main+0x21a>
 80037d4:	e9cd 6032 	strd	r6, r0, [sp, #200]	; 0xc8
 80037d8:	9034      	str	r0, [sp, #208]	; 0xd0
 80037da:	9036      	str	r0, [sp, #216]	; 0xd8
 80037dc:	a932      	add	r1, sp, #200	; 0xc8
 80037de:	4620      	mov	r0, r4
 80037e0:	f003 fb58 	bl	8006e94 <HAL_TIM_PWM_ConfigChannel>
 80037e4:	2800      	cmp	r0, #0
 80037e6:	f47f adfe 	bne.w	80033e6 <main+0x21a>
 80037ea:	2204      	movs	r2, #4
 80037ec:	a932      	add	r1, sp, #200	; 0xc8
 80037ee:	4620      	mov	r0, r4
 80037f0:	f003 fb50 	bl	8006e94 <HAL_TIM_PWM_ConfigChannel>
 80037f4:	2800      	cmp	r0, #0
 80037f6:	f47f adf6 	bne.w	80033e6 <main+0x21a>
 80037fa:	2208      	movs	r2, #8
 80037fc:	a932      	add	r1, sp, #200	; 0xc8
 80037fe:	4620      	mov	r0, r4
 8003800:	f003 fb48 	bl	8006e94 <HAL_TIM_PWM_ConfigChannel>
 8003804:	2800      	cmp	r0, #0
 8003806:	f47f adee 	bne.w	80033e6 <main+0x21a>
 800380a:	220c      	movs	r2, #12
 800380c:	a932      	add	r1, sp, #200	; 0xc8
 800380e:	4620      	mov	r0, r4
 8003810:	f003 fb40 	bl	8006e94 <HAL_TIM_PWM_ConfigChannel>
 8003814:	4605      	mov	r5, r0
 8003816:	2800      	cmp	r0, #0
 8003818:	f47f ade5 	bne.w	80033e6 <main+0x21a>
 800381c:	4620      	mov	r0, r4
 800381e:	f000 fcbf 	bl	80041a0 <HAL_TIM_MspPostInit>
 8003822:	f8df 93ac 	ldr.w	r9, [pc, #940]	; 8003bd0 <main+0xa04>
 8003826:	48c9      	ldr	r0, [pc, #804]	; (8003b4c <main+0x980>)
 8003828:	f44f 33e1 	mov.w	r3, #115200	; 0x1c200
 800382c:	e9c0 9300 	strd	r9, r3, [r0]
 8003830:	230c      	movs	r3, #12
 8003832:	e9c0 5502 	strd	r5, r5, [r0, #8]
 8003836:	e9c0 3505 	strd	r3, r5, [r0, #20]
 800383a:	6105      	str	r5, [r0, #16]
 800383c:	61c5      	str	r5, [r0, #28]
 800383e:	f003 fd67 	bl	8007310 <HAL_UART_Init>
 8003842:	4604      	mov	r4, r0
 8003844:	2800      	cmp	r0, #0
 8003846:	f47f adce 	bne.w	80033e6 <main+0x21a>
 800384a:	f004 f8cb 	bl	80079e4 <MX_FATFS_Init>
 800384e:	f004 f9a7 	bl	8007ba0 <MX_LIBJPEG_Init>
 8003852:	2210      	movs	r2, #16
 8003854:	4621      	mov	r1, r4
 8003856:	a813      	add	r0, sp, #76	; 0x4c
 8003858:	f004 fcb9 	bl	80081ce <memset>
 800385c:	f8df 8374 	ldr.w	r8, [pc, #884]	; 8003bd4 <main+0xa08>
 8003860:	48bb      	ldr	r0, [pc, #748]	; (8003b50 <main+0x984>)
 8003862:	f44f 3380 	mov.w	r3, #65536	; 0x10000
 8003866:	e9c0 8300 	strd	r8, r3, [r0]
 800386a:	4bba      	ldr	r3, [pc, #744]	; (8003b54 <main+0x988>)
 800386c:	6283      	str	r3, [r0, #40]	; 0x28
 800386e:	2501      	movs	r5, #1
 8003870:	2306      	movs	r3, #6
 8003872:	6084      	str	r4, [r0, #8]
 8003874:	6105      	str	r5, [r0, #16]
 8003876:	7605      	strb	r5, [r0, #24]
 8003878:	f880 4020 	strb.w	r4, [r0, #32]
 800387c:	62c4      	str	r4, [r0, #44]	; 0x2c
 800387e:	60c4      	str	r4, [r0, #12]
 8003880:	61c3      	str	r3, [r0, #28]
 8003882:	f880 5030 	strb.w	r5, [r0, #48]	; 0x30
 8003886:	6145      	str	r5, [r0, #20]
 8003888:	f000 fef6 	bl	8004678 <HAL_ADC_Init>
 800388c:	2800      	cmp	r0, #0
 800388e:	f47f adaa 	bne.w	80033e6 <main+0x21a>
 8003892:	2300      	movs	r3, #0
 8003894:	2607      	movs	r6, #7
 8003896:	48ae      	ldr	r0, [pc, #696]	; (8003b50 <main+0x984>)
 8003898:	9615      	str	r6, [sp, #84]	; 0x54
 800389a:	a913      	add	r1, sp, #76	; 0x4c
 800389c:	e9cd 3513 	strd	r3, r5, [sp, #76]	; 0x4c
 80038a0:	f001 f882 	bl	80049a8 <HAL_ADC_ConfigChannel>
 80038a4:	2800      	cmp	r0, #0
 80038a6:	f47f ad9e 	bne.w	80033e6 <main+0x21a>
 80038aa:	2403      	movs	r4, #3
 80038ac:	2302      	movs	r3, #2
 80038ae:	48a8      	ldr	r0, [pc, #672]	; (8003b50 <main+0x984>)
 80038b0:	a913      	add	r1, sp, #76	; 0x4c
 80038b2:	e9cd 4313 	strd	r4, r3, [sp, #76]	; 0x4c
 80038b6:	f001 f877 	bl	80049a8 <HAL_ADC_ConfigChannel>
 80038ba:	2800      	cmp	r0, #0
 80038bc:	f47f ad93 	bne.w	80033e6 <main+0x21a>
 80038c0:	230a      	movs	r3, #10
 80038c2:	48a3      	ldr	r0, [pc, #652]	; (8003b50 <main+0x984>)
 80038c4:	a913      	add	r1, sp, #76	; 0x4c
 80038c6:	e9cd 3413 	strd	r3, r4, [sp, #76]	; 0x4c
 80038ca:	f001 f86d 	bl	80049a8 <HAL_ADC_ConfigChannel>
 80038ce:	2800      	cmp	r0, #0
 80038d0:	f47f ad89 	bne.w	80033e6 <main+0x21a>
 80038d4:	f04f 0e0b 	mov.w	lr, #11
 80038d8:	2304      	movs	r3, #4
 80038da:	489d      	ldr	r0, [pc, #628]	; (8003b50 <main+0x984>)
 80038dc:	a913      	add	r1, sp, #76	; 0x4c
 80038de:	e9cd e313 	strd	lr, r3, [sp, #76]	; 0x4c
 80038e2:	f001 f861 	bl	80049a8 <HAL_ADC_ConfigChannel>
 80038e6:	2800      	cmp	r0, #0
 80038e8:	f47f ad7d 	bne.w	80033e6 <main+0x21a>
 80038ec:	250c      	movs	r5, #12
 80038ee:	2305      	movs	r3, #5
 80038f0:	4897      	ldr	r0, [pc, #604]	; (8003b50 <main+0x984>)
 80038f2:	9415      	str	r4, [sp, #84]	; 0x54
 80038f4:	a913      	add	r1, sp, #76	; 0x4c
 80038f6:	e9cd 5313 	strd	r5, r3, [sp, #76]	; 0x4c
 80038fa:	f001 f855 	bl	80049a8 <HAL_ADC_ConfigChannel>
 80038fe:	2800      	cmp	r0, #0
 8003900:	f47f ad71 	bne.w	80033e6 <main+0x21a>
 8003904:	2306      	movs	r3, #6
 8003906:	f04f 0c0d 	mov.w	ip, #13
 800390a:	4891      	ldr	r0, [pc, #580]	; (8003b50 <main+0x984>)
 800390c:	9615      	str	r6, [sp, #84]	; 0x54
 800390e:	a913      	add	r1, sp, #76	; 0x4c
 8003910:	e9cd c313 	strd	ip, r3, [sp, #76]	; 0x4c
 8003914:	f001 f848 	bl	80049a8 <HAL_ADC_ConfigChannel>
 8003918:	4603      	mov	r3, r0
 800391a:	2800      	cmp	r0, #0
 800391c:	f47f ad63 	bne.w	80033e6 <main+0x21a>
 8003920:	488d      	ldr	r0, [pc, #564]	; (8003b58 <main+0x98c>)
 8003922:	4e8e      	ldr	r6, [pc, #568]	; (8003b5c <main+0x990>)
 8003924:	f44f 32e1 	mov.w	r2, #115200	; 0x1c200
 8003928:	e9c0 6200 	strd	r6, r2, [r0]
 800392c:	e9c0 3302 	strd	r3, r3, [r0, #8]
 8003930:	e9c0 3504 	strd	r3, r5, [r0, #16]
 8003934:	e9c0 3306 	strd	r3, r3, [r0, #24]
 8003938:	f003 fcea 	bl	8007310 <HAL_UART_Init>
 800393c:	2800      	cmp	r0, #0
 800393e:	f47f ad52 	bne.w	80033e6 <main+0x21a>
 8003942:	4c87      	ldr	r4, [pc, #540]	; (8003b60 <main+0x994>)
 8003944:	4d87      	ldr	r5, [pc, #540]	; (8003b64 <main+0x998>)
 8003946:	60a0      	str	r0, [r4, #8]
 8003948:	e9cd 0009 	strd	r0, r0, [sp, #36]	; 0x24
 800394c:	2314      	movs	r3, #20
 800394e:	61a0      	str	r0, [r4, #24]
 8003950:	4620      	mov	r0, r4
 8003952:	e9c4 5300 	strd	r5, r3, [r4]
 8003956:	60e7      	str	r7, [r4, #12]
 8003958:	f003 fa0e 	bl	8006d78 <HAL_TIM_Base_Init>
 800395c:	2800      	cmp	r0, #0
 800395e:	f47f ad42 	bne.w	80033e6 <main+0x21a>
 8003962:	e9cd 0009 	strd	r0, r0, [sp, #36]	; 0x24
 8003966:	a909      	add	r1, sp, #36	; 0x24
 8003968:	4620      	mov	r0, r4
 800396a:	f003 fc0d 	bl	8007188 <HAL_TIMEx_MasterConfigSynchronization>
 800396e:	2800      	cmp	r0, #0
 8003970:	f47f ad39 	bne.w	80033e6 <main+0x21a>
 8003974:	f64f 73ff 	movw	r3, #65535	; 0xffff
 8003978:	6060      	str	r0, [r4, #4]
 800397a:	60e3      	str	r3, [r4, #12]
 800397c:	497a      	ldr	r1, [pc, #488]	; (8003b68 <main+0x99c>)
 800397e:	4c7b      	ldr	r4, [pc, #492]	; (8003b6c <main+0x9a0>)
 8003980:	4b7b      	ldr	r3, [pc, #492]	; (8003b70 <main+0x9a4>)
 8003982:	6220      	str	r0, [r4, #32]
 8003984:	e9c4 1300 	strd	r1, r3, [r4]
 8003988:	f44f 4380 	mov.w	r3, #16384	; 0x4000
 800398c:	e9c4 0002 	strd	r0, r0, [r4, #8]
 8003990:	e9c4 3004 	strd	r3, r0, [r4, #16]
 8003994:	e9c4 0006 	strd	r0, r0, [r4, #24]
 8003998:	4620      	mov	r0, r4
 800399a:	f001 fd91 	bl	80054c0 <HAL_I2C_Init>
 800399e:	2800      	cmp	r0, #0
 80039a0:	f47f ad21 	bne.w	80033e6 <main+0x21a>
 80039a4:	221c      	movs	r2, #28
 80039a6:	2100      	movs	r1, #0
 80039a8:	a82b      	add	r0, sp, #172	; 0xac
 80039aa:	f004 fc10 	bl	80081ce <memset>
 80039ae:	4d71      	ldr	r5, [pc, #452]	; (8003b74 <main+0x9a8>)
 80039b0:	4a71      	ldr	r2, [pc, #452]	; (8003b78 <main+0x9ac>)
 80039b2:	2304      	movs	r3, #4
 80039b4:	e9c5 2300 	strd	r2, r3, [r5]
 80039b8:	4628      	mov	r0, r5
 80039ba:	2300      	movs	r3, #0
 80039bc:	e9c5 7303 	strd	r7, r3, [r5, #12]
 80039c0:	60ab      	str	r3, [r5, #8]
 80039c2:	61ab      	str	r3, [r5, #24]
 80039c4:	f003 f9d8 	bl	8006d78 <HAL_TIM_Base_Init>
 80039c8:	2800      	cmp	r0, #0
 80039ca:	f47f ad0c 	bne.w	80033e6 <main+0x21a>
 80039ce:	4628      	mov	r0, r5
 80039d0:	f003 f9fe 	bl	8006dd0 <HAL_TIM_PWM_Init>
 80039d4:	4602      	mov	r2, r0
 80039d6:	2800      	cmp	r0, #0
 80039d8:	f47f ad05 	bne.w	80033e6 <main+0x21a>
 80039dc:	2360      	movs	r3, #96	; 0x60
 80039de:	e9cd 302b 	strd	r3, r0, [sp, #172]	; 0xac
 80039e2:	902d      	str	r0, [sp, #180]	; 0xb4
 80039e4:	902f      	str	r0, [sp, #188]	; 0xbc
 80039e6:	a92b      	add	r1, sp, #172	; 0xac
 80039e8:	4628      	mov	r0, r5
 80039ea:	f003 fa53 	bl	8006e94 <HAL_TIM_PWM_ConfigChannel>
 80039ee:	4603      	mov	r3, r0
 80039f0:	2800      	cmp	r0, #0
 80039f2:	f47f acf8 	bne.w	80033e6 <main+0x21a>
 80039f6:	4861      	ldr	r0, [pc, #388]	; (8003b7c <main+0x9b0>)
 80039f8:	4a61      	ldr	r2, [pc, #388]	; (8003b80 <main+0x9b4>)
 80039fa:	6083      	str	r3, [r0, #8]
 80039fc:	e9c0 2300 	strd	r2, r3, [r0]
 8003a00:	f64f 72ff 	movw	r2, #65535	; 0xffff
 8003a04:	e9c0 2303 	strd	r2, r3, [r0, #12]
 8003a08:	6183      	str	r3, [r0, #24]
 8003a0a:	f003 f9b5 	bl	8006d78 <HAL_TIM_Base_Init>
 8003a0e:	2800      	cmp	r0, #0
 8003a10:	f47f ace9 	bne.w	80033e6 <main+0x21a>
 8003a14:	f7fe fb9e 	bl	8002154 <DIS_motors>
 8003a18:	2664      	movs	r6, #100	; 0x64
 8003a1a:	f44f 777a 	mov.w	r7, #1000	; 0x3e8
 8003a1e:	4625      	mov	r5, r4
 8003a20:	2200      	movs	r2, #0
 8003a22:	9700      	str	r7, [sp, #0]
 8003a24:	2301      	movs	r3, #1
 8003a26:	4611      	mov	r1, r2
 8003a28:	4628      	mov	r0, r5
 8003a2a:	f001 fdf1 	bl	8005610 <HAL_I2C_Master_Transmit>
 8003a2e:	3e01      	subs	r6, #1
 8003a30:	d1f6      	bne.n	8003a20 <main+0x854>
 8003a32:	484e      	ldr	r0, [pc, #312]	; (8003b6c <main+0x9a0>)
 8003a34:	4f53      	ldr	r7, [pc, #332]	; (8003b84 <main+0x9b8>)
 8003a36:	4d54      	ldr	r5, [pc, #336]	; (8003b88 <main+0x9bc>)
 8003a38:	f8df 819c 	ldr.w	r8, [pc, #412]	; 8003bd8 <main+0xa0c>
 8003a3c:	f7ff f840 	bl	8002ac0 <I2C1_ClearBusyFlagErratum>
 8003a40:	4b52      	ldr	r3, [pc, #328]	; (8003b8c <main+0x9c0>)
 8003a42:	4a53      	ldr	r2, [pc, #332]	; (8003b90 <main+0x9c4>)
 8003a44:	601a      	str	r2, [r3, #0]
 8003a46:	4a53      	ldr	r2, [pc, #332]	; (8003b94 <main+0x9c8>)
 8003a48:	e9c3 2401 	strd	r2, r4, [r3, #4]
 8003a4c:	f7fe fd5a 	bl	8002504 <LSM_init>
 8003a50:	4631      	mov	r1, r6
 8003a52:	4851      	ldr	r0, [pc, #324]	; (8003b98 <main+0x9cc>)
 8003a54:	f003 fb96 	bl	8007184 <HAL_TIM_PWM_Start>
 8003a58:	2104      	movs	r1, #4
 8003a5a:	484f      	ldr	r0, [pc, #316]	; (8003b98 <main+0x9cc>)
 8003a5c:	f003 fb92 	bl	8007184 <HAL_TIM_PWM_Start>
 8003a60:	2108      	movs	r1, #8
 8003a62:	484d      	ldr	r0, [pc, #308]	; (8003b98 <main+0x9cc>)
 8003a64:	f003 fb8e 	bl	8007184 <HAL_TIM_PWM_Start>
 8003a68:	210c      	movs	r1, #12
 8003a6a:	484b      	ldr	r0, [pc, #300]	; (8003b98 <main+0x9cc>)
 8003a6c:	f003 fb8a 	bl	8007184 <HAL_TIM_PWM_Start>
 8003a70:	4631      	mov	r1, r6
 8003a72:	484a      	ldr	r0, [pc, #296]	; (8003b9c <main+0x9d0>)
 8003a74:	f003 fb86 	bl	8007184 <HAL_TIM_PWM_Start>
 8003a78:	2104      	movs	r1, #4
 8003a7a:	4848      	ldr	r0, [pc, #288]	; (8003b9c <main+0x9d0>)
 8003a7c:	f003 fb82 	bl	8007184 <HAL_TIM_PWM_Start>
 8003a80:	4631      	mov	r1, r6
 8003a82:	4847      	ldr	r0, [pc, #284]	; (8003ba0 <main+0x9d4>)
 8003a84:	f003 fb7e 	bl	8007184 <HAL_TIM_PWM_Start>
 8003a88:	2104      	movs	r1, #4
 8003a8a:	4845      	ldr	r0, [pc, #276]	; (8003ba0 <main+0x9d4>)
 8003a8c:	f003 fb7a 	bl	8007184 <HAL_TIM_PWM_Start>
 8003a90:	4631      	mov	r1, r6
 8003a92:	4844      	ldr	r0, [pc, #272]	; (8003ba4 <main+0x9d8>)
 8003a94:	f003 fb76 	bl	8007184 <HAL_TIM_PWM_Start>
 8003a98:	2104      	movs	r1, #4
 8003a9a:	4842      	ldr	r0, [pc, #264]	; (8003ba4 <main+0x9d8>)
 8003a9c:	f003 fb72 	bl	8007184 <HAL_TIM_PWM_Start>
 8003aa0:	2108      	movs	r1, #8
 8003aa2:	4840      	ldr	r0, [pc, #256]	; (8003ba4 <main+0x9d8>)
 8003aa4:	f003 fb6e 	bl	8007184 <HAL_TIM_PWM_Start>
 8003aa8:	210c      	movs	r1, #12
 8003aaa:	483e      	ldr	r0, [pc, #248]	; (8003ba4 <main+0x9d8>)
 8003aac:	f003 fb6a 	bl	8007184 <HAL_TIM_PWM_Start>
 8003ab0:	4638      	mov	r0, r7
 8003ab2:	f7fe fd6f 	bl	8002594 <Rodog_init>
 8003ab6:	4628      	mov	r0, r5
 8003ab8:	f7fe fb92 	bl	80021e0 <Joints_init>
 8003abc:	2204      	movs	r2, #4
 8003abe:	4611      	mov	r1, r2
 8003ac0:	4b39      	ldr	r3, [pc, #228]	; (8003ba8 <main+0x9dc>)
 8003ac2:	483a      	ldr	r0, [pc, #232]	; (8003bac <main+0x9e0>)
 8003ac4:	f004 faf6 	bl	80080b4 <arm_mat_init_f32>
 8003ac8:	2204      	movs	r2, #4
 8003aca:	4611      	mov	r1, r2
 8003acc:	4b38      	ldr	r3, [pc, #224]	; (8003bb0 <main+0x9e4>)
 8003ace:	4839      	ldr	r0, [pc, #228]	; (8003bb4 <main+0x9e8>)
 8003ad0:	f004 faf0 	bl	80080b4 <arm_mat_init_f32>
 8003ad4:	2204      	movs	r2, #4
 8003ad6:	2401      	movs	r4, #1
 8003ad8:	4611      	mov	r1, r2
 8003ada:	4b37      	ldr	r3, [pc, #220]	; (8003bb8 <main+0x9ec>)
 8003adc:	4837      	ldr	r0, [pc, #220]	; (8003bbc <main+0x9f0>)
 8003ade:	f004 fae9 	bl	80080b4 <arm_mat_init_f32>
 8003ae2:	f885 4020 	strb.w	r4, [r5, #32]
 8003ae6:	f885 4044 	strb.w	r4, [r5, #68]	; 0x44
 8003aea:	f885 4068 	strb.w	r4, [r5, #104]	; 0x68
 8003aee:	f885 408c 	strb.w	r4, [r5, #140]	; 0x8c
 8003af2:	f885 40b0 	strb.w	r4, [r5, #176]	; 0xb0
 8003af6:	f885 40d4 	strb.w	r4, [r5, #212]	; 0xd4
 8003afa:	f885 40f8 	strb.w	r4, [r5, #248]	; 0xf8
 8003afe:	f885 411c 	strb.w	r4, [r5, #284]	; 0x11c
 8003b02:	f885 4140 	strb.w	r4, [r5, #320]	; 0x140
 8003b06:	f885 4164 	strb.w	r4, [r5, #356]	; 0x164
 8003b0a:	f885 4188 	strb.w	r4, [r5, #392]	; 0x188
 8003b0e:	f885 41ac 	strb.w	r4, [r5, #428]	; 0x1ac
 8003b12:	f7fe fb11 	bl	8002138 <EN_motors>
 8003b16:	f7ff fad9 	bl	80030cc <EN_DMA_IT>
 8003b1a:	f44f 60fa 	mov.w	r0, #2000	; 0x7d0
 8003b1e:	f000 fd97 	bl	8004650 <HAL_Delay>
 8003b22:	f7fe ff7f 	bl	8002a24 <Home>
 8003b26:	4b26      	ldr	r3, [pc, #152]	; (8003bc0 <main+0x9f4>)
 8003b28:	4814      	ldr	r0, [pc, #80]	; (8003b7c <main+0x9b0>)
 8003b2a:	607b      	str	r3, [r7, #4]
 8003b2c:	f8c7 800c 	str.w	r8, [r7, #12]
 8003b30:	f002 ffc4 	bl	8006abc <HAL_TIM_Base_Start_IT>
 8003b34:	480f      	ldr	r0, [pc, #60]	; (8003b74 <main+0x9a8>)
 8003b36:	4d23      	ldr	r5, [pc, #140]	; (8003bc4 <main+0x9f8>)
 8003b38:	f002 ffc0 	bl	8006abc <HAL_TIM_Base_Start_IT>
 8003b3c:	4808      	ldr	r0, [pc, #32]	; (8003b60 <main+0x994>)
 8003b3e:	f002 ffbd 	bl	8006abc <HAL_TIM_Base_Start_IT>
 8003b42:	4821      	ldr	r0, [pc, #132]	; (8003bc8 <main+0x9fc>)
 8003b44:	4b21      	ldr	r3, [pc, #132]	; (8003bcc <main+0xa00>)
 8003b46:	6203      	str	r3, [r0, #32]
 8003b48:	e048      	b.n	8003bdc <main+0xa10>
 8003b4a:	bf00      	nop
 8003b4c:	200016f8 	.word	0x200016f8
 8003b50:	2000122c 	.word	0x2000122c
 8003b54:	0f000001 	.word	0x0f000001
 8003b58:	2000173c 	.word	0x2000173c
 8003b5c:	40004800 	.word	0x40004800
 8003b60:	200016b0 	.word	0x200016b0
 8003b64:	40001400 	.word	0x40001400
 8003b68:	40005400 	.word	0x40005400
 8003b6c:	200013d4 	.word	0x200013d4
 8003b70:	00061a80 	.word	0x00061a80
 8003b74:	20001590 	.word	0x20001590
 8003b78:	40014800 	.word	0x40014800
 8003b7c:	20001548 	.word	0x20001548
 8003b80:	40014400 	.word	0x40014400
 8003b84:	200017d0 	.word	0x200017d0
 8003b88:	200001ac 	.word	0x200001ac
 8003b8c:	20001190 	.word	0x20001190
 8003b90:	08002105 	.word	0x08002105
 8003b94:	0800211f 	.word	0x0800211f
 8003b98:	20001500 	.word	0x20001500
 8003b9c:	200015d8 	.word	0x200015d8
 8003ba0:	20001620 	.word	0x20001620
 8003ba4:	20001668 	.word	0x20001668
 8003ba8:	20000000 	.word	0x20000000
 8003bac:	20000150 	.word	0x20000150
 8003bb0:	20000040 	.word	0x20000040
 8003bb4:	20000164 	.word	0x20000164
 8003bb8:	20000080 	.word	0x20000080
 8003bbc:	20000374 	.word	0x20000374
 8003bc0:	c0e00000 	.word	0xc0e00000
 8003bc4:	200017a8 	.word	0x200017a8
 8003bc8:	20001784 	.word	0x20001784
 8003bcc:	3d23d70a 	.word	0x3d23d70a
 8003bd0:	40004400 	.word	0x40004400
 8003bd4:	40012200 	.word	0x40012200
 8003bd8:	3ca3d70a 	.word	0x3ca3d70a
 8003bdc:	4b0b      	ldr	r3, [pc, #44]	; (8003c0c <main+0xa40>)
 8003bde:	6183      	str	r3, [r0, #24]
 8003be0:	4621      	mov	r1, r4
 8003be2:	4b0b      	ldr	r3, [pc, #44]	; (8003c10 <main+0xa44>)
 8003be4:	622b      	str	r3, [r5, #32]
 8003be6:	61ab      	str	r3, [r5, #24]
 8003be8:	f8c0 801c 	str.w	r8, [r0, #28]
 8003bec:	f8c5 801c 	str.w	r8, [r5, #28]
 8003bf0:	f003 fffc 	bl	8007bec <arm_pid_init_f32>
 8003bf4:	4621      	mov	r1, r4
 8003bf6:	4628      	mov	r0, r5
 8003bf8:	f003 fff8 	bl	8007bec <arm_pid_init_f32>
 8003bfc:	f44f 707a 	mov.w	r0, #1000	; 0x3e8
 8003c00:	f000 fd26 	bl	8004650 <HAL_Delay>
 8003c04:	f887 6034 	strb.w	r6, [r7, #52]	; 0x34
 8003c08:	e7fe      	b.n	8003c08 <main+0xa3c>
 8003c0a:	bf00      	nop
 8003c0c:	3da3d70a 	.word	0x3da3d70a
 8003c10:	3ccccccd 	.word	0x3ccccccd

08003c14 <HAL_MspInit>:
 8003c14:	b082      	sub	sp, #8
 8003c16:	4b0c      	ldr	r3, [pc, #48]	; (8003c48 <HAL_MspInit+0x34>)
 8003c18:	2100      	movs	r1, #0
 8003c1a:	9100      	str	r1, [sp, #0]
 8003c1c:	6c5a      	ldr	r2, [r3, #68]	; 0x44
 8003c1e:	f442 4280 	orr.w	r2, r2, #16384	; 0x4000
 8003c22:	645a      	str	r2, [r3, #68]	; 0x44
 8003c24:	6c5a      	ldr	r2, [r3, #68]	; 0x44
 8003c26:	f402 4280 	and.w	r2, r2, #16384	; 0x4000
 8003c2a:	9200      	str	r2, [sp, #0]
 8003c2c:	9a00      	ldr	r2, [sp, #0]
 8003c2e:	9101      	str	r1, [sp, #4]
 8003c30:	6c1a      	ldr	r2, [r3, #64]	; 0x40
 8003c32:	f042 5280 	orr.w	r2, r2, #268435456	; 0x10000000
 8003c36:	641a      	str	r2, [r3, #64]	; 0x40
 8003c38:	6c1b      	ldr	r3, [r3, #64]	; 0x40
 8003c3a:	f003 5380 	and.w	r3, r3, #268435456	; 0x10000000
 8003c3e:	9301      	str	r3, [sp, #4]
 8003c40:	9b01      	ldr	r3, [sp, #4]
 8003c42:	b002      	add	sp, #8
 8003c44:	4770      	bx	lr
 8003c46:	bf00      	nop
 8003c48:	40023800 	.word	0x40023800

08003c4c <HAL_ADC_MspInit>:
 8003c4c:	e92d 41f0 	stmdb	sp!, {r4, r5, r6, r7, r8, lr}
 8003c50:	4606      	mov	r6, r0
 8003c52:	b08e      	sub	sp, #56	; 0x38
 8003c54:	2214      	movs	r2, #20
 8003c56:	2100      	movs	r1, #0
 8003c58:	a809      	add	r0, sp, #36	; 0x24
 8003c5a:	f004 fab8 	bl	80081ce <memset>
 8003c5e:	6833      	ldr	r3, [r6, #0]
 8003c60:	4a6c      	ldr	r2, [pc, #432]	; (8003e14 <HAL_ADC_MspInit+0x1c8>)
 8003c62:	4293      	cmp	r3, r2
 8003c64:	d140      	bne.n	8003ce8 <HAL_ADC_MspInit+0x9c>
 8003c66:	4b6c      	ldr	r3, [pc, #432]	; (8003e18 <HAL_ADC_MspInit+0x1cc>)
 8003c68:	486c      	ldr	r0, [pc, #432]	; (8003e1c <HAL_ADC_MspInit+0x1d0>)
 8003c6a:	4c6d      	ldr	r4, [pc, #436]	; (8003e20 <HAL_ADC_MspInit+0x1d4>)
 8003c6c:	2500      	movs	r5, #0
 8003c6e:	9500      	str	r5, [sp, #0]
 8003c70:	6c5a      	ldr	r2, [r3, #68]	; 0x44
 8003c72:	f442 7280 	orr.w	r2, r2, #256	; 0x100
 8003c76:	645a      	str	r2, [r3, #68]	; 0x44
 8003c78:	6c5a      	ldr	r2, [r3, #68]	; 0x44
 8003c7a:	f402 7280 	and.w	r2, r2, #256	; 0x100
 8003c7e:	9200      	str	r2, [sp, #0]
 8003c80:	9a00      	ldr	r2, [sp, #0]
 8003c82:	9501      	str	r5, [sp, #4]
 8003c84:	6b1a      	ldr	r2, [r3, #48]	; 0x30
 8003c86:	f042 0201 	orr.w	r2, r2, #1
 8003c8a:	631a      	str	r2, [r3, #48]	; 0x30
 8003c8c:	6b1b      	ldr	r3, [r3, #48]	; 0x30
 8003c8e:	f003 0301 	and.w	r3, r3, #1
 8003c92:	9301      	str	r3, [sp, #4]
 8003c94:	f04f 0804 	mov.w	r8, #4
 8003c98:	2703      	movs	r7, #3
 8003c9a:	a909      	add	r1, sp, #36	; 0x24
 8003c9c:	9b01      	ldr	r3, [sp, #4]
 8003c9e:	e9cd 8709 	strd	r8, r7, [sp, #36]	; 0x24
 8003ca2:	f001 f93f 	bl	8004f24 <HAL_GPIO_Init>
 8003ca6:	4b5f      	ldr	r3, [pc, #380]	; (8003e24 <HAL_ADC_MspInit+0x1d8>)
 8003ca8:	f44f 6080 	mov.w	r0, #1024	; 0x400
 8003cac:	e9c4 3500 	strd	r3, r5, [r4]
 8003cb0:	f44f 6300 	mov.w	r3, #2048	; 0x800
 8003cb4:	e9c4 0304 	strd	r0, r3, [r4, #16]
 8003cb8:	f44f 5c00 	mov.w	ip, #8192	; 0x2000
 8003cbc:	f44f 7380 	mov.w	r3, #256	; 0x100
 8003cc0:	e9c4 5502 	strd	r5, r5, [r4, #8]
 8003cc4:	e9c4 c306 	strd	ip, r3, [r4, #24]
 8003cc8:	e9c4 5808 	strd	r5, r8, [r4, #32]
 8003ccc:	e9c4 750a 	strd	r7, r5, [r4, #40]	; 0x28
 8003cd0:	6325      	str	r5, [r4, #48]	; 0x30
 8003cd2:	4620      	mov	r0, r4
 8003cd4:	f000 ffae 	bl	8004c34 <HAL_DMA_Init>
 8003cd8:	b108      	cbz	r0, 8003cde <HAL_ADC_MspInit+0x92>
 8003cda:	f7ff fa15 	bl	8003108 <Error_Handler>
 8003cde:	63b4      	str	r4, [r6, #56]	; 0x38
 8003ce0:	63a6      	str	r6, [r4, #56]	; 0x38
 8003ce2:	b00e      	add	sp, #56	; 0x38
 8003ce4:	e8bd 81f0 	ldmia.w	sp!, {r4, r5, r6, r7, r8, pc}
 8003ce8:	4a4f      	ldr	r2, [pc, #316]	; (8003e28 <HAL_ADC_MspInit+0x1dc>)
 8003cea:	4293      	cmp	r3, r2
 8003cec:	d158      	bne.n	8003da0 <HAL_ADC_MspInit+0x154>
 8003cee:	4b4a      	ldr	r3, [pc, #296]	; (8003e18 <HAL_ADC_MspInit+0x1cc>)
 8003cf0:	484a      	ldr	r0, [pc, #296]	; (8003e1c <HAL_ADC_MspInit+0x1d0>)
 8003cf2:	4c4e      	ldr	r4, [pc, #312]	; (8003e2c <HAL_ADC_MspInit+0x1e0>)
 8003cf4:	2500      	movs	r5, #0
 8003cf6:	9502      	str	r5, [sp, #8]
 8003cf8:	6c5a      	ldr	r2, [r3, #68]	; 0x44
 8003cfa:	f442 7200 	orr.w	r2, r2, #512	; 0x200
 8003cfe:	645a      	str	r2, [r3, #68]	; 0x44
 8003d00:	6c5a      	ldr	r2, [r3, #68]	; 0x44
 8003d02:	f402 7200 	and.w	r2, r2, #512	; 0x200
 8003d06:	9202      	str	r2, [sp, #8]
 8003d08:	9a02      	ldr	r2, [sp, #8]
 8003d0a:	9503      	str	r5, [sp, #12]
 8003d0c:	6b1a      	ldr	r2, [r3, #48]	; 0x30
 8003d0e:	f042 0201 	orr.w	r2, r2, #1
 8003d12:	631a      	str	r2, [r3, #48]	; 0x30
 8003d14:	6b1a      	ldr	r2, [r3, #48]	; 0x30
 8003d16:	f002 0201 	and.w	r2, r2, #1
 8003d1a:	9203      	str	r2, [sp, #12]
 8003d1c:	9a03      	ldr	r2, [sp, #12]
 8003d1e:	9504      	str	r5, [sp, #16]
 8003d20:	6b1a      	ldr	r2, [r3, #48]	; 0x30
 8003d22:	f042 0204 	orr.w	r2, r2, #4
 8003d26:	631a      	str	r2, [r3, #48]	; 0x30
 8003d28:	6b1a      	ldr	r2, [r3, #48]	; 0x30
 8003d2a:	f002 0204 	and.w	r2, r2, #4
 8003d2e:	9204      	str	r2, [sp, #16]
 8003d30:	9a04      	ldr	r2, [sp, #16]
 8003d32:	9505      	str	r5, [sp, #20]
 8003d34:	6b1a      	ldr	r2, [r3, #48]	; 0x30
 8003d36:	f042 0202 	orr.w	r2, r2, #2
 8003d3a:	631a      	str	r2, [r3, #48]	; 0x30
 8003d3c:	6b1b      	ldr	r3, [r3, #48]	; 0x30
 8003d3e:	f003 0302 	and.w	r3, r3, #2
 8003d42:	9305      	str	r3, [sp, #20]
 8003d44:	2703      	movs	r7, #3
 8003d46:	9b05      	ldr	r3, [sp, #20]
 8003d48:	a909      	add	r1, sp, #36	; 0x24
 8003d4a:	23a0      	movs	r3, #160	; 0xa0
 8003d4c:	e9cd 3709 	strd	r3, r7, [sp, #36]	; 0x24
 8003d50:	f001 f8e8 	bl	8004f24 <HAL_GPIO_Init>
 8003d54:	2330      	movs	r3, #48	; 0x30
 8003d56:	4836      	ldr	r0, [pc, #216]	; (8003e30 <HAL_ADC_MspInit+0x1e4>)
 8003d58:	950b      	str	r5, [sp, #44]	; 0x2c
 8003d5a:	a909      	add	r1, sp, #36	; 0x24
 8003d5c:	e9cd 3709 	strd	r3, r7, [sp, #36]	; 0x24
 8003d60:	f001 f8e0 	bl	8004f24 <HAL_GPIO_Init>
 8003d64:	4833      	ldr	r0, [pc, #204]	; (8003e34 <HAL_ADC_MspInit+0x1e8>)
 8003d66:	950b      	str	r5, [sp, #44]	; 0x2c
 8003d68:	a909      	add	r1, sp, #36	; 0x24
 8003d6a:	e9cd 7709 	strd	r7, r7, [sp, #36]	; 0x24
 8003d6e:	f001 f8d9 	bl	8004f24 <HAL_GPIO_Init>
 8003d72:	4b31      	ldr	r3, [pc, #196]	; (8003e38 <HAL_ADC_MspInit+0x1ec>)
 8003d74:	6023      	str	r3, [r4, #0]
 8003d76:	f04f 7300 	mov.w	r3, #33554432	; 0x2000000
 8003d7a:	e9c4 3501 	strd	r3, r5, [r4, #4]
 8003d7e:	f44f 6280 	mov.w	r2, #1024	; 0x400
 8003d82:	f44f 6300 	mov.w	r3, #2048	; 0x800
 8003d86:	e9c4 2304 	strd	r2, r3, [r4, #16]
 8003d8a:	f44f 5100 	mov.w	r1, #8192	; 0x2000
 8003d8e:	f44f 7380 	mov.w	r3, #256	; 0x100
 8003d92:	e9c4 1306 	strd	r1, r3, [r4, #24]
 8003d96:	2304      	movs	r3, #4
 8003d98:	60e5      	str	r5, [r4, #12]
 8003d9a:	6225      	str	r5, [r4, #32]
 8003d9c:	6263      	str	r3, [r4, #36]	; 0x24
 8003d9e:	e795      	b.n	8003ccc <HAL_ADC_MspInit+0x80>
 8003da0:	4a26      	ldr	r2, [pc, #152]	; (8003e3c <HAL_ADC_MspInit+0x1f0>)
 8003da2:	4293      	cmp	r3, r2
 8003da4:	d19d      	bne.n	8003ce2 <HAL_ADC_MspInit+0x96>
 8003da6:	4b1c      	ldr	r3, [pc, #112]	; (8003e18 <HAL_ADC_MspInit+0x1cc>)
 8003da8:	4821      	ldr	r0, [pc, #132]	; (8003e30 <HAL_ADC_MspInit+0x1e4>)
 8003daa:	4c25      	ldr	r4, [pc, #148]	; (8003e40 <HAL_ADC_MspInit+0x1f4>)
 8003dac:	2500      	movs	r5, #0
 8003dae:	9506      	str	r5, [sp, #24]
 8003db0:	6c5a      	ldr	r2, [r3, #68]	; 0x44
 8003db2:	f442 6280 	orr.w	r2, r2, #1024	; 0x400
 8003db6:	645a      	str	r2, [r3, #68]	; 0x44
 8003db8:	6c5a      	ldr	r2, [r3, #68]	; 0x44
 8003dba:	f402 6280 	and.w	r2, r2, #1024	; 0x400
 8003dbe:	9206      	str	r2, [sp, #24]
 8003dc0:	9a06      	ldr	r2, [sp, #24]
 8003dc2:	9507      	str	r5, [sp, #28]
 8003dc4:	6b1a      	ldr	r2, [r3, #48]	; 0x30
 8003dc6:	f042 0204 	orr.w	r2, r2, #4
 8003dca:	631a      	str	r2, [r3, #48]	; 0x30
 8003dcc:	6b1a      	ldr	r2, [r3, #48]	; 0x30
 8003dce:	f002 0204 	and.w	r2, r2, #4
 8003dd2:	9207      	str	r2, [sp, #28]
 8003dd4:	9a07      	ldr	r2, [sp, #28]
 8003dd6:	9508      	str	r5, [sp, #32]
 8003dd8:	6b1a      	ldr	r2, [r3, #48]	; 0x30
 8003dda:	f042 0201 	orr.w	r2, r2, #1
 8003dde:	631a      	str	r2, [r3, #48]	; 0x30
 8003de0:	6b1b      	ldr	r3, [r3, #48]	; 0x30
 8003de2:	f003 0301 	and.w	r3, r3, #1
 8003de6:	9308      	str	r3, [sp, #32]
 8003de8:	9b08      	ldr	r3, [sp, #32]
 8003dea:	2703      	movs	r7, #3
 8003dec:	230f      	movs	r3, #15
 8003dee:	a909      	add	r1, sp, #36	; 0x24
 8003df0:	e9cd 3709 	strd	r3, r7, [sp, #36]	; 0x24
 8003df4:	f001 f896 	bl	8004f24 <HAL_GPIO_Init>
 8003df8:	2309      	movs	r3, #9
 8003dfa:	4808      	ldr	r0, [pc, #32]	; (8003e1c <HAL_ADC_MspInit+0x1d0>)
 8003dfc:	950b      	str	r5, [sp, #44]	; 0x2c
 8003dfe:	a909      	add	r1, sp, #36	; 0x24
 8003e00:	e9cd 3709 	strd	r3, r7, [sp, #36]	; 0x24
 8003e04:	f001 f88e 	bl	8004f24 <HAL_GPIO_Init>
 8003e08:	4b0e      	ldr	r3, [pc, #56]	; (8003e44 <HAL_ADC_MspInit+0x1f8>)
 8003e0a:	6023      	str	r3, [r4, #0]
 8003e0c:	f04f 6380 	mov.w	r3, #67108864	; 0x4000000
 8003e10:	e7b3      	b.n	8003d7a <HAL_ADC_MspInit+0x12e>
 8003e12:	bf00      	nop
 8003e14:	40012000 	.word	0x40012000
 8003e18:	40023800 	.word	0x40023800
 8003e1c:	40020000 	.word	0x40020000
 8003e20:	200012b4 	.word	0x200012b4
 8003e24:	40026410 	.word	0x40026410
 8003e28:	40012100 	.word	0x40012100
 8003e2c:	20001314 	.word	0x20001314
 8003e30:	40020800 	.word	0x40020800
 8003e34:	40020400 	.word	0x40020400
 8003e38:	40026440 	.word	0x40026440
 8003e3c:	40012200 	.word	0x40012200
 8003e40:	20001374 	.word	0x20001374
 8003e44:	40026428 	.word	0x40026428

08003e48 <HAL_DCMI_MspInit>:
 8003e48:	b570      	push	{r4, r5, r6, lr}
 8003e4a:	2214      	movs	r2, #20
 8003e4c:	b08a      	sub	sp, #40	; 0x28
 8003e4e:	4604      	mov	r4, r0
 8003e50:	2100      	movs	r1, #0
 8003e52:	eb0d 0002 	add.w	r0, sp, r2
 8003e56:	f004 f9ba 	bl	80081ce <memset>
 8003e5a:	6822      	ldr	r2, [r4, #0]
 8003e5c:	4b26      	ldr	r3, [pc, #152]	; (8003ef8 <HAL_DCMI_MspInit+0xb0>)
 8003e5e:	429a      	cmp	r2, r3
 8003e60:	d148      	bne.n	8003ef4 <HAL_DCMI_MspInit+0xac>
 8003e62:	4b26      	ldr	r3, [pc, #152]	; (8003efc <HAL_DCMI_MspInit+0xb4>)
 8003e64:	4826      	ldr	r0, [pc, #152]	; (8003f00 <HAL_DCMI_MspInit+0xb8>)
 8003e66:	2400      	movs	r4, #0
 8003e68:	9401      	str	r4, [sp, #4]
 8003e6a:	6b5a      	ldr	r2, [r3, #52]	; 0x34
 8003e6c:	f042 0201 	orr.w	r2, r2, #1
 8003e70:	635a      	str	r2, [r3, #52]	; 0x34
 8003e72:	6b5a      	ldr	r2, [r3, #52]	; 0x34
 8003e74:	f002 0201 	and.w	r2, r2, #1
 8003e78:	9201      	str	r2, [sp, #4]
 8003e7a:	9a01      	ldr	r2, [sp, #4]
 8003e7c:	9402      	str	r4, [sp, #8]
 8003e7e:	6b1a      	ldr	r2, [r3, #48]	; 0x30
 8003e80:	f042 0210 	orr.w	r2, r2, #16
 8003e84:	631a      	str	r2, [r3, #48]	; 0x30
 8003e86:	6b1a      	ldr	r2, [r3, #48]	; 0x30
 8003e88:	f002 0210 	and.w	r2, r2, #16
 8003e8c:	9202      	str	r2, [sp, #8]
 8003e8e:	9a02      	ldr	r2, [sp, #8]
 8003e90:	9403      	str	r4, [sp, #12]
 8003e92:	6b1a      	ldr	r2, [r3, #48]	; 0x30
 8003e94:	f042 0201 	orr.w	r2, r2, #1
 8003e98:	631a      	str	r2, [r3, #48]	; 0x30
 8003e9a:	6b1a      	ldr	r2, [r3, #48]	; 0x30
 8003e9c:	f002 0201 	and.w	r2, r2, #1
 8003ea0:	9203      	str	r2, [sp, #12]
 8003ea2:	9a03      	ldr	r2, [sp, #12]
 8003ea4:	9404      	str	r4, [sp, #16]
 8003ea6:	6b1a      	ldr	r2, [r3, #48]	; 0x30
 8003ea8:	f042 0202 	orr.w	r2, r2, #2
 8003eac:	631a      	str	r2, [r3, #48]	; 0x30
 8003eae:	6b1b      	ldr	r3, [r3, #48]	; 0x30
 8003eb0:	f003 0302 	and.w	r3, r3, #2
 8003eb4:	9304      	str	r3, [sp, #16]
 8003eb6:	2602      	movs	r6, #2
 8003eb8:	250d      	movs	r5, #13
 8003eba:	9b04      	ldr	r3, [sp, #16]
 8003ebc:	9509      	str	r5, [sp, #36]	; 0x24
 8003ebe:	2373      	movs	r3, #115	; 0x73
 8003ec0:	a905      	add	r1, sp, #20
 8003ec2:	e9cd 3605 	strd	r3, r6, [sp, #20]
 8003ec6:	f001 f82d 	bl	8004f24 <HAL_GPIO_Init>
 8003eca:	f44f 63ca 	mov.w	r3, #1616	; 0x650
 8003ece:	480d      	ldr	r0, [pc, #52]	; (8003f04 <HAL_DCMI_MspInit+0xbc>)
 8003ed0:	9509      	str	r5, [sp, #36]	; 0x24
 8003ed2:	a905      	add	r1, sp, #20
 8003ed4:	e9cd 3605 	strd	r3, r6, [sp, #20]
 8003ed8:	e9cd 4407 	strd	r4, r4, [sp, #28]
 8003edc:	f001 f822 	bl	8004f24 <HAL_GPIO_Init>
 8003ee0:	23c0      	movs	r3, #192	; 0xc0
 8003ee2:	4809      	ldr	r0, [pc, #36]	; (8003f08 <HAL_DCMI_MspInit+0xc0>)
 8003ee4:	9509      	str	r5, [sp, #36]	; 0x24
 8003ee6:	a905      	add	r1, sp, #20
 8003ee8:	e9cd 3605 	strd	r3, r6, [sp, #20]
 8003eec:	e9cd 4407 	strd	r4, r4, [sp, #28]
 8003ef0:	f001 f818 	bl	8004f24 <HAL_GPIO_Init>
 8003ef4:	b00a      	add	sp, #40	; 0x28
 8003ef6:	bd70      	pop	{r4, r5, r6, pc}
 8003ef8:	50050000 	.word	0x50050000
 8003efc:	40023800 	.word	0x40023800
 8003f00:	40021000 	.word	0x40021000
 8003f04:	40020000 	.word	0x40020000
 8003f08:	40020400 	.word	0x40020400

08003f0c <HAL_I2C_MspInit>:
 8003f0c:	b530      	push	{r4, r5, lr}
 8003f0e:	2214      	movs	r2, #20
 8003f10:	b08b      	sub	sp, #44	; 0x2c
 8003f12:	4604      	mov	r4, r0
 8003f14:	2100      	movs	r1, #0
 8003f16:	eb0d 0002 	add.w	r0, sp, r2
 8003f1a:	f004 f958 	bl	80081ce <memset>
 8003f1e:	6823      	ldr	r3, [r4, #0]
 8003f20:	4a29      	ldr	r2, [pc, #164]	; (8003fc8 <HAL_I2C_MspInit+0xbc>)
 8003f22:	4293      	cmp	r3, r2
 8003f24:	d127      	bne.n	8003f76 <HAL_I2C_MspInit+0x6a>
 8003f26:	4c29      	ldr	r4, [pc, #164]	; (8003fcc <HAL_I2C_MspInit+0xc0>)
 8003f28:	2500      	movs	r5, #0
 8003f2a:	9501      	str	r5, [sp, #4]
 8003f2c:	6b23      	ldr	r3, [r4, #48]	; 0x30
 8003f2e:	f043 0302 	orr.w	r3, r3, #2
 8003f32:	6323      	str	r3, [r4, #48]	; 0x30
 8003f34:	6b23      	ldr	r3, [r4, #48]	; 0x30
 8003f36:	f003 0302 	and.w	r3, r3, #2
 8003f3a:	9301      	str	r3, [sp, #4]
 8003f3c:	9b01      	ldr	r3, [sp, #4]
 8003f3e:	f44f 7040 	mov.w	r0, #768	; 0x300
 8003f42:	2312      	movs	r3, #18
 8003f44:	e9cd 0305 	strd	r0, r3, [sp, #20]
 8003f48:	f04f 0c01 	mov.w	ip, #1
 8003f4c:	2303      	movs	r3, #3
 8003f4e:	e9cd c307 	strd	ip, r3, [sp, #28]
 8003f52:	481f      	ldr	r0, [pc, #124]	; (8003fd0 <HAL_I2C_MspInit+0xc4>)
 8003f54:	2304      	movs	r3, #4
 8003f56:	a905      	add	r1, sp, #20
 8003f58:	9309      	str	r3, [sp, #36]	; 0x24
 8003f5a:	f000 ffe3 	bl	8004f24 <HAL_GPIO_Init>
 8003f5e:	9502      	str	r5, [sp, #8]
 8003f60:	6c23      	ldr	r3, [r4, #64]	; 0x40
 8003f62:	f443 1300 	orr.w	r3, r3, #2097152	; 0x200000
 8003f66:	6423      	str	r3, [r4, #64]	; 0x40
 8003f68:	6c23      	ldr	r3, [r4, #64]	; 0x40
 8003f6a:	f403 1300 	and.w	r3, r3, #2097152	; 0x200000
 8003f6e:	9302      	str	r3, [sp, #8]
 8003f70:	9b02      	ldr	r3, [sp, #8]
 8003f72:	b00b      	add	sp, #44	; 0x2c
 8003f74:	bd30      	pop	{r4, r5, pc}
 8003f76:	4a17      	ldr	r2, [pc, #92]	; (8003fd4 <HAL_I2C_MspInit+0xc8>)
 8003f78:	4293      	cmp	r3, r2
 8003f7a:	d1fa      	bne.n	8003f72 <HAL_I2C_MspInit+0x66>
 8003f7c:	4c13      	ldr	r4, [pc, #76]	; (8003fcc <HAL_I2C_MspInit+0xc0>)
 8003f7e:	4814      	ldr	r0, [pc, #80]	; (8003fd0 <HAL_I2C_MspInit+0xc4>)
 8003f80:	2500      	movs	r5, #0
 8003f82:	9503      	str	r5, [sp, #12]
 8003f84:	6b23      	ldr	r3, [r4, #48]	; 0x30
 8003f86:	f043 0302 	orr.w	r3, r3, #2
 8003f8a:	6323      	str	r3, [r4, #48]	; 0x30
 8003f8c:	6b23      	ldr	r3, [r4, #48]	; 0x30
 8003f8e:	f003 0302 	and.w	r3, r3, #2
 8003f92:	9303      	str	r3, [sp, #12]
 8003f94:	9b03      	ldr	r3, [sp, #12]
 8003f96:	f44f 6240 	mov.w	r2, #3072	; 0xc00
 8003f9a:	2312      	movs	r3, #18
 8003f9c:	e9cd 2305 	strd	r2, r3, [sp, #20]
 8003fa0:	2101      	movs	r1, #1
 8003fa2:	2303      	movs	r3, #3
 8003fa4:	e9cd 1307 	strd	r1, r3, [sp, #28]
 8003fa8:	2304      	movs	r3, #4
 8003faa:	a905      	add	r1, sp, #20
 8003fac:	9309      	str	r3, [sp, #36]	; 0x24
 8003fae:	f000 ffb9 	bl	8004f24 <HAL_GPIO_Init>
 8003fb2:	9504      	str	r5, [sp, #16]
 8003fb4:	6c23      	ldr	r3, [r4, #64]	; 0x40
 8003fb6:	f443 0380 	orr.w	r3, r3, #4194304	; 0x400000
 8003fba:	6423      	str	r3, [r4, #64]	; 0x40
 8003fbc:	6c23      	ldr	r3, [r4, #64]	; 0x40
 8003fbe:	f403 0380 	and.w	r3, r3, #4194304	; 0x400000
 8003fc2:	9304      	str	r3, [sp, #16]
 8003fc4:	9b04      	ldr	r3, [sp, #16]
 8003fc6:	e7d4      	b.n	8003f72 <HAL_I2C_MspInit+0x66>
 8003fc8:	40005400 	.word	0x40005400
 8003fcc:	40023800 	.word	0x40023800
 8003fd0:	40020400 	.word	0x40020400
 8003fd4:	40005800 	.word	0x40005800

08003fd8 <HAL_SD_MspInit>:
 8003fd8:	b5f0      	push	{r4, r5, r6, r7, lr}
 8003fda:	4604      	mov	r4, r0
 8003fdc:	b089      	sub	sp, #36	; 0x24
 8003fde:	2214      	movs	r2, #20
 8003fe0:	2100      	movs	r1, #0
 8003fe2:	a803      	add	r0, sp, #12
 8003fe4:	f004 f8f3 	bl	80081ce <memset>
 8003fe8:	6822      	ldr	r2, [r4, #0]
 8003fea:	4b1f      	ldr	r3, [pc, #124]	; (8004068 <HAL_SD_MspInit+0x90>)
 8003fec:	429a      	cmp	r2, r3
 8003fee:	d139      	bne.n	8004064 <HAL_SD_MspInit+0x8c>
 8003ff0:	f503 3386 	add.w	r3, r3, #68608	; 0x10c00
 8003ff4:	2400      	movs	r4, #0
 8003ff6:	9400      	str	r4, [sp, #0]
 8003ff8:	6c5a      	ldr	r2, [r3, #68]	; 0x44
 8003ffa:	481c      	ldr	r0, [pc, #112]	; (800406c <HAL_SD_MspInit+0x94>)
 8003ffc:	f442 6200 	orr.w	r2, r2, #2048	; 0x800
 8004000:	645a      	str	r2, [r3, #68]	; 0x44
 8004002:	6c5a      	ldr	r2, [r3, #68]	; 0x44
 8004004:	f402 6200 	and.w	r2, r2, #2048	; 0x800
 8004008:	9200      	str	r2, [sp, #0]
 800400a:	9a00      	ldr	r2, [sp, #0]
 800400c:	9401      	str	r4, [sp, #4]
 800400e:	6b1a      	ldr	r2, [r3, #48]	; 0x30
 8004010:	f042 0204 	orr.w	r2, r2, #4
 8004014:	631a      	str	r2, [r3, #48]	; 0x30
 8004016:	6b1a      	ldr	r2, [r3, #48]	; 0x30
 8004018:	f002 0204 	and.w	r2, r2, #4
 800401c:	9201      	str	r2, [sp, #4]
 800401e:	9a01      	ldr	r2, [sp, #4]
 8004020:	9402      	str	r4, [sp, #8]
 8004022:	6b1a      	ldr	r2, [r3, #48]	; 0x30
 8004024:	f042 0208 	orr.w	r2, r2, #8
 8004028:	631a      	str	r2, [r3, #48]	; 0x30
 800402a:	6b1b      	ldr	r3, [r3, #48]	; 0x30
 800402c:	f003 0308 	and.w	r3, r3, #8
 8004030:	250c      	movs	r5, #12
 8004032:	9302      	str	r3, [sp, #8]
 8004034:	9b02      	ldr	r3, [sp, #8]
 8004036:	2702      	movs	r7, #2
 8004038:	f44f 53f8 	mov.w	r3, #7936	; 0x1f00
 800403c:	2603      	movs	r6, #3
 800403e:	eb0d 0105 	add.w	r1, sp, r5
 8004042:	e9cd 3703 	strd	r3, r7, [sp, #12]
 8004046:	e9cd 6506 	strd	r6, r5, [sp, #24]
 800404a:	f000 ff6b 	bl	8004f24 <HAL_GPIO_Init>
 800404e:	2304      	movs	r3, #4
 8004050:	4807      	ldr	r0, [pc, #28]	; (8004070 <HAL_SD_MspInit+0x98>)
 8004052:	9507      	str	r5, [sp, #28]
 8004054:	eb0d 0105 	add.w	r1, sp, r5
 8004058:	e9cd 3703 	strd	r3, r7, [sp, #12]
 800405c:	e9cd 4605 	strd	r4, r6, [sp, #20]
 8004060:	f000 ff60 	bl	8004f24 <HAL_GPIO_Init>
 8004064:	b009      	add	sp, #36	; 0x24
 8004066:	bdf0      	pop	{r4, r5, r6, r7, pc}
 8004068:	40012c00 	.word	0x40012c00
 800406c:	40020800 	.word	0x40020800
 8004070:	40020c00 	.word	0x40020c00

08004074 <HAL_TIM_Base_MspInit>:
 8004074:	b57f      	push	{r0, r1, r2, r3, r4, r5, r6, lr}
 8004076:	6803      	ldr	r3, [r0, #0]
 8004078:	4a37      	ldr	r2, [pc, #220]	; (8004158 <HAL_TIM_Base_MspInit+0xe4>)
 800407a:	4293      	cmp	r3, r2
 800407c:	d111      	bne.n	80040a2 <HAL_TIM_Base_MspInit+0x2e>
 800407e:	4b37      	ldr	r3, [pc, #220]	; (800415c <HAL_TIM_Base_MspInit+0xe8>)
 8004080:	2200      	movs	r2, #0
 8004082:	9200      	str	r2, [sp, #0]
 8004084:	6c59      	ldr	r1, [r3, #68]	; 0x44
 8004086:	f041 0101 	orr.w	r1, r1, #1
 800408a:	6459      	str	r1, [r3, #68]	; 0x44
 800408c:	6c5b      	ldr	r3, [r3, #68]	; 0x44
 800408e:	f003 0301 	and.w	r3, r3, #1
 8004092:	9300      	str	r3, [sp, #0]
 8004094:	9b00      	ldr	r3, [sp, #0]
 8004096:	201a      	movs	r0, #26
 8004098:	4611      	mov	r1, r2
 800409a:	f000 fd29 	bl	8004af0 <HAL_NVIC_SetPriority>
 800409e:	201a      	movs	r0, #26
 80040a0:	e035      	b.n	800410e <HAL_TIM_Base_MspInit+0x9a>
 80040a2:	f1b3 4f80 	cmp.w	r3, #1073741824	; 0x40000000
 80040a6:	d10e      	bne.n	80040c6 <HAL_TIM_Base_MspInit+0x52>
 80040a8:	2300      	movs	r3, #0
 80040aa:	9301      	str	r3, [sp, #4]
 80040ac:	4b2b      	ldr	r3, [pc, #172]	; (800415c <HAL_TIM_Base_MspInit+0xe8>)
 80040ae:	6c1a      	ldr	r2, [r3, #64]	; 0x40
 80040b0:	f042 0201 	orr.w	r2, r2, #1
 80040b4:	641a      	str	r2, [r3, #64]	; 0x40
 80040b6:	6c1b      	ldr	r3, [r3, #64]	; 0x40
 80040b8:	f003 0301 	and.w	r3, r3, #1
 80040bc:	9301      	str	r3, [sp, #4]
 80040be:	9b01      	ldr	r3, [sp, #4]
 80040c0:	b007      	add	sp, #28
 80040c2:	f85d fb04 	ldr.w	pc, [sp], #4
 80040c6:	4a26      	ldr	r2, [pc, #152]	; (8004160 <HAL_TIM_Base_MspInit+0xec>)
 80040c8:	4293      	cmp	r3, r2
 80040ca:	d10c      	bne.n	80040e6 <HAL_TIM_Base_MspInit+0x72>
 80040cc:	2300      	movs	r3, #0
 80040ce:	9302      	str	r3, [sp, #8]
 80040d0:	4b22      	ldr	r3, [pc, #136]	; (800415c <HAL_TIM_Base_MspInit+0xe8>)
 80040d2:	6c1a      	ldr	r2, [r3, #64]	; 0x40
 80040d4:	f042 0204 	orr.w	r2, r2, #4
 80040d8:	641a      	str	r2, [r3, #64]	; 0x40
 80040da:	6c1b      	ldr	r3, [r3, #64]	; 0x40
 80040dc:	f003 0304 	and.w	r3, r3, #4
 80040e0:	9302      	str	r3, [sp, #8]
 80040e2:	9b02      	ldr	r3, [sp, #8]
 80040e4:	e7ec      	b.n	80040c0 <HAL_TIM_Base_MspInit+0x4c>
 80040e6:	4a1f      	ldr	r2, [pc, #124]	; (8004164 <HAL_TIM_Base_MspInit+0xf0>)
 80040e8:	4293      	cmp	r3, r2
 80040ea:	d115      	bne.n	8004118 <HAL_TIM_Base_MspInit+0xa4>
 80040ec:	4b1b      	ldr	r3, [pc, #108]	; (800415c <HAL_TIM_Base_MspInit+0xe8>)
 80040ee:	2200      	movs	r2, #0
 80040f0:	9203      	str	r2, [sp, #12]
 80040f2:	6c19      	ldr	r1, [r3, #64]	; 0x40
 80040f4:	f041 0120 	orr.w	r1, r1, #32
 80040f8:	6419      	str	r1, [r3, #64]	; 0x40
 80040fa:	6c1b      	ldr	r3, [r3, #64]	; 0x40
 80040fc:	f003 0320 	and.w	r3, r3, #32
 8004100:	9303      	str	r3, [sp, #12]
 8004102:	2037      	movs	r0, #55	; 0x37
 8004104:	4611      	mov	r1, r2
 8004106:	9b03      	ldr	r3, [sp, #12]
 8004108:	f000 fcf2 	bl	8004af0 <HAL_NVIC_SetPriority>
 800410c:	2037      	movs	r0, #55	; 0x37
 800410e:	b007      	add	sp, #28
 8004110:	f85d eb04 	ldr.w	lr, [sp], #4
 8004114:	f000 bd1e 	b.w	8004b54 <HAL_NVIC_EnableIRQ>
 8004118:	4a13      	ldr	r2, [pc, #76]	; (8004168 <HAL_TIM_Base_MspInit+0xf4>)
 800411a:	4293      	cmp	r3, r2
 800411c:	d10c      	bne.n	8004138 <HAL_TIM_Base_MspInit+0xc4>
 800411e:	2300      	movs	r3, #0
 8004120:	9304      	str	r3, [sp, #16]
 8004122:	4b0e      	ldr	r3, [pc, #56]	; (800415c <HAL_TIM_Base_MspInit+0xe8>)
 8004124:	6c5a      	ldr	r2, [r3, #68]	; 0x44
 8004126:	f442 3200 	orr.w	r2, r2, #131072	; 0x20000
 800412a:	645a      	str	r2, [r3, #68]	; 0x44
 800412c:	6c5b      	ldr	r3, [r3, #68]	; 0x44
 800412e:	f403 3300 	and.w	r3, r3, #131072	; 0x20000
 8004132:	9304      	str	r3, [sp, #16]
 8004134:	9b04      	ldr	r3, [sp, #16]
 8004136:	e7c3      	b.n	80040c0 <HAL_TIM_Base_MspInit+0x4c>
 8004138:	4a0c      	ldr	r2, [pc, #48]	; (800416c <HAL_TIM_Base_MspInit+0xf8>)
 800413a:	4293      	cmp	r3, r2
 800413c:	d1c0      	bne.n	80040c0 <HAL_TIM_Base_MspInit+0x4c>
 800413e:	4b07      	ldr	r3, [pc, #28]	; (800415c <HAL_TIM_Base_MspInit+0xe8>)
 8004140:	2200      	movs	r2, #0
 8004142:	9205      	str	r2, [sp, #20]
 8004144:	6c59      	ldr	r1, [r3, #68]	; 0x44
 8004146:	f441 2180 	orr.w	r1, r1, #262144	; 0x40000
 800414a:	6459      	str	r1, [r3, #68]	; 0x44
 800414c:	6c5b      	ldr	r3, [r3, #68]	; 0x44
 800414e:	f403 2380 	and.w	r3, r3, #262144	; 0x40000
 8004152:	9305      	str	r3, [sp, #20]
 8004154:	9b05      	ldr	r3, [sp, #20]
 8004156:	e79e      	b.n	8004096 <HAL_TIM_Base_MspInit+0x22>
 8004158:	40010000 	.word	0x40010000
 800415c:	40023800 	.word	0x40023800
 8004160:	40000800 	.word	0x40000800
 8004164:	40001400 	.word	0x40001400
 8004168:	40014400 	.word	0x40014400
 800416c:	40014800 	.word	0x40014800

08004170 <HAL_TIM_PWM_MspInit>:
 8004170:	6802      	ldr	r2, [r0, #0]
 8004172:	4b09      	ldr	r3, [pc, #36]	; (8004198 <HAL_TIM_PWM_MspInit+0x28>)
 8004174:	429a      	cmp	r2, r3
 8004176:	b082      	sub	sp, #8
 8004178:	d10b      	bne.n	8004192 <HAL_TIM_PWM_MspInit+0x22>
 800417a:	2300      	movs	r3, #0
 800417c:	9301      	str	r3, [sp, #4]
 800417e:	4b07      	ldr	r3, [pc, #28]	; (800419c <HAL_TIM_PWM_MspInit+0x2c>)
 8004180:	6c1a      	ldr	r2, [r3, #64]	; 0x40
 8004182:	f042 0202 	orr.w	r2, r2, #2
 8004186:	641a      	str	r2, [r3, #64]	; 0x40
 8004188:	6c1b      	ldr	r3, [r3, #64]	; 0x40
 800418a:	f003 0302 	and.w	r3, r3, #2
 800418e:	9301      	str	r3, [sp, #4]
 8004190:	9b01      	ldr	r3, [sp, #4]
 8004192:	b002      	add	sp, #8
 8004194:	4770      	bx	lr
 8004196:	bf00      	nop
 8004198:	40000400 	.word	0x40000400
 800419c:	40023800 	.word	0x40023800

080041a0 <HAL_TIM_MspPostInit>:
 80041a0:	b510      	push	{r4, lr}
 80041a2:	2214      	movs	r2, #20
 80041a4:	b08a      	sub	sp, #40	; 0x28
 80041a6:	4604      	mov	r4, r0
 80041a8:	2100      	movs	r1, #0
 80041aa:	eb0d 0002 	add.w	r0, sp, r2
 80041ae:	f004 f80e 	bl	80081ce <memset>
 80041b2:	6823      	ldr	r3, [r4, #0]
 80041b4:	4a31      	ldr	r2, [pc, #196]	; (800427c <HAL_TIM_MspPostInit+0xdc>)
 80041b6:	4293      	cmp	r3, r2
 80041b8:	d118      	bne.n	80041ec <HAL_TIM_MspPostInit+0x4c>
 80041ba:	2300      	movs	r3, #0
 80041bc:	9301      	str	r3, [sp, #4]
 80041be:	4b30      	ldr	r3, [pc, #192]	; (8004280 <HAL_TIM_MspPostInit+0xe0>)
 80041c0:	4830      	ldr	r0, [pc, #192]	; (8004284 <HAL_TIM_MspPostInit+0xe4>)
 80041c2:	6b1a      	ldr	r2, [r3, #48]	; 0x30
 80041c4:	f042 0210 	orr.w	r2, r2, #16
 80041c8:	631a      	str	r2, [r3, #48]	; 0x30
 80041ca:	6b1b      	ldr	r3, [r3, #48]	; 0x30
 80041cc:	f003 0310 	and.w	r3, r3, #16
 80041d0:	9301      	str	r3, [sp, #4]
 80041d2:	9b01      	ldr	r3, [sp, #4]
 80041d4:	f44f 44d4 	mov.w	r4, #27136	; 0x6a00
 80041d8:	2302      	movs	r3, #2
 80041da:	e9cd 4305 	strd	r4, r3, [sp, #20]
 80041de:	2301      	movs	r3, #1
 80041e0:	9309      	str	r3, [sp, #36]	; 0x24
 80041e2:	a905      	add	r1, sp, #20
 80041e4:	f000 fe9e 	bl	8004f24 <HAL_GPIO_Init>
 80041e8:	b00a      	add	sp, #40	; 0x28
 80041ea:	bd10      	pop	{r4, pc}
 80041ec:	f1b3 4f80 	cmp.w	r3, #1073741824	; 0x40000000
 80041f0:	d115      	bne.n	800421e <HAL_TIM_MspPostInit+0x7e>
 80041f2:	2300      	movs	r3, #0
 80041f4:	9302      	str	r3, [sp, #8]
 80041f6:	4b22      	ldr	r3, [pc, #136]	; (8004280 <HAL_TIM_MspPostInit+0xe0>)
 80041f8:	6b1a      	ldr	r2, [r3, #48]	; 0x30
 80041fa:	f042 0201 	orr.w	r2, r2, #1
 80041fe:	631a      	str	r2, [r3, #48]	; 0x30
 8004200:	6b1b      	ldr	r3, [r3, #48]	; 0x30
 8004202:	f003 0301 	and.w	r3, r3, #1
 8004206:	9302      	str	r3, [sp, #8]
 8004208:	f248 0002 	movw	r0, #32770	; 0x8002
 800420c:	9b02      	ldr	r3, [sp, #8]
 800420e:	2302      	movs	r3, #2
 8004210:	e9cd 0305 	strd	r0, r3, [sp, #20]
 8004214:	2301      	movs	r3, #1
 8004216:	481c      	ldr	r0, [pc, #112]	; (8004288 <HAL_TIM_MspPostInit+0xe8>)
 8004218:	9309      	str	r3, [sp, #36]	; 0x24
 800421a:	a905      	add	r1, sp, #20
 800421c:	e7e2      	b.n	80041e4 <HAL_TIM_MspPostInit+0x44>
 800421e:	4a1b      	ldr	r2, [pc, #108]	; (800428c <HAL_TIM_MspPostInit+0xec>)
 8004220:	4293      	cmp	r3, r2
 8004222:	d113      	bne.n	800424c <HAL_TIM_MspPostInit+0xac>
 8004224:	2300      	movs	r3, #0
 8004226:	9303      	str	r3, [sp, #12]
 8004228:	4b15      	ldr	r3, [pc, #84]	; (8004280 <HAL_TIM_MspPostInit+0xe0>)
 800422a:	4819      	ldr	r0, [pc, #100]	; (8004290 <HAL_TIM_MspPostInit+0xf0>)
 800422c:	6b1a      	ldr	r2, [r3, #48]	; 0x30
 800422e:	f042 0204 	orr.w	r2, r2, #4
 8004232:	631a      	str	r2, [r3, #48]	; 0x30
 8004234:	6b1b      	ldr	r3, [r3, #48]	; 0x30
 8004236:	f003 0304 	and.w	r3, r3, #4
 800423a:	9303      	str	r3, [sp, #12]
 800423c:	21c0      	movs	r1, #192	; 0xc0
 800423e:	9b03      	ldr	r3, [sp, #12]
 8004240:	2302      	movs	r3, #2
 8004242:	e9cd 1305 	strd	r1, r3, [sp, #20]
 8004246:	9309      	str	r3, [sp, #36]	; 0x24
 8004248:	a905      	add	r1, sp, #20
 800424a:	e7cb      	b.n	80041e4 <HAL_TIM_MspPostInit+0x44>
 800424c:	4a11      	ldr	r2, [pc, #68]	; (8004294 <HAL_TIM_MspPostInit+0xf4>)
 800424e:	4293      	cmp	r3, r2
 8004250:	d1ca      	bne.n	80041e8 <HAL_TIM_MspPostInit+0x48>
 8004252:	2300      	movs	r3, #0
 8004254:	9304      	str	r3, [sp, #16]
 8004256:	4b0a      	ldr	r3, [pc, #40]	; (8004280 <HAL_TIM_MspPostInit+0xe0>)
 8004258:	480f      	ldr	r0, [pc, #60]	; (8004298 <HAL_TIM_MspPostInit+0xf8>)
 800425a:	6b1a      	ldr	r2, [r3, #48]	; 0x30
 800425c:	f042 0208 	orr.w	r2, r2, #8
 8004260:	631a      	str	r2, [r3, #48]	; 0x30
 8004262:	6b1b      	ldr	r3, [r3, #48]	; 0x30
 8004264:	f003 0308 	and.w	r3, r3, #8
 8004268:	9304      	str	r3, [sp, #16]
 800426a:	9b04      	ldr	r3, [sp, #16]
 800426c:	f44f 4270 	mov.w	r2, #61440	; 0xf000
 8004270:	2302      	movs	r3, #2
 8004272:	e9cd 2305 	strd	r2, r3, [sp, #20]
 8004276:	9309      	str	r3, [sp, #36]	; 0x24
 8004278:	a905      	add	r1, sp, #20
 800427a:	e7b3      	b.n	80041e4 <HAL_TIM_MspPostInit+0x44>
 800427c:	40010000 	.word	0x40010000
 8004280:	40023800 	.word	0x40023800
 8004284:	40021000 	.word	0x40021000
 8004288:	40020000 	.word	0x40020000
 800428c:	40000400 	.word	0x40000400
 8004290:	40020800 	.word	0x40020800
 8004294:	40000800 	.word	0x40000800
 8004298:	40020c00 	.word	0x40020c00

0800429c <HAL_UART_MspInit>:
 800429c:	b510      	push	{r4, lr}
 800429e:	2214      	movs	r2, #20
 80042a0:	b08a      	sub	sp, #40	; 0x28
 80042a2:	4604      	mov	r4, r0
 80042a4:	2100      	movs	r1, #0
 80042a6:	eb0d 0002 	add.w	r0, sp, r2
 80042aa:	f003 ff90 	bl	80081ce <memset>
 80042ae:	6823      	ldr	r3, [r4, #0]
 80042b0:	4a21      	ldr	r2, [pc, #132]	; (8004338 <HAL_UART_MspInit+0x9c>)
 80042b2:	4293      	cmp	r3, r2
 80042b4:	d123      	bne.n	80042fe <HAL_UART_MspInit+0x62>
 80042b6:	4b21      	ldr	r3, [pc, #132]	; (800433c <HAL_UART_MspInit+0xa0>)
 80042b8:	2100      	movs	r1, #0
 80042ba:	9101      	str	r1, [sp, #4]
 80042bc:	6c1a      	ldr	r2, [r3, #64]	; 0x40
 80042be:	f442 3200 	orr.w	r2, r2, #131072	; 0x20000
 80042c2:	641a      	str	r2, [r3, #64]	; 0x40
 80042c4:	6c1a      	ldr	r2, [r3, #64]	; 0x40
 80042c6:	f402 3200 	and.w	r2, r2, #131072	; 0x20000
 80042ca:	9201      	str	r2, [sp, #4]
 80042cc:	9a01      	ldr	r2, [sp, #4]
 80042ce:	9102      	str	r1, [sp, #8]
 80042d0:	6b1a      	ldr	r2, [r3, #48]	; 0x30
 80042d2:	f042 0208 	orr.w	r2, r2, #8
 80042d6:	631a      	str	r2, [r3, #48]	; 0x30
 80042d8:	6b1b      	ldr	r3, [r3, #48]	; 0x30
 80042da:	f003 0308 	and.w	r3, r3, #8
 80042de:	9302      	str	r3, [sp, #8]
 80042e0:	9b02      	ldr	r3, [sp, #8]
 80042e2:	2360      	movs	r3, #96	; 0x60
 80042e4:	9305      	str	r3, [sp, #20]
 80042e6:	2302      	movs	r3, #2
 80042e8:	2103      	movs	r1, #3
 80042ea:	9306      	str	r3, [sp, #24]
 80042ec:	2307      	movs	r3, #7
 80042ee:	e9cd 1308 	strd	r1, r3, [sp, #32]
 80042f2:	4813      	ldr	r0, [pc, #76]	; (8004340 <HAL_UART_MspInit+0xa4>)
 80042f4:	a905      	add	r1, sp, #20
 80042f6:	f000 fe15 	bl	8004f24 <HAL_GPIO_Init>
 80042fa:	b00a      	add	sp, #40	; 0x28
 80042fc:	bd10      	pop	{r4, pc}
 80042fe:	4a11      	ldr	r2, [pc, #68]	; (8004344 <HAL_UART_MspInit+0xa8>)
 8004300:	4293      	cmp	r3, r2
 8004302:	d1fa      	bne.n	80042fa <HAL_UART_MspInit+0x5e>
 8004304:	4b0d      	ldr	r3, [pc, #52]	; (800433c <HAL_UART_MspInit+0xa0>)
 8004306:	2100      	movs	r1, #0
 8004308:	9103      	str	r1, [sp, #12]
 800430a:	6c1a      	ldr	r2, [r3, #64]	; 0x40
 800430c:	f442 2280 	orr.w	r2, r2, #262144	; 0x40000
 8004310:	641a      	str	r2, [r3, #64]	; 0x40
 8004312:	6c1a      	ldr	r2, [r3, #64]	; 0x40
 8004314:	f402 2280 	and.w	r2, r2, #262144	; 0x40000
 8004318:	9203      	str	r2, [sp, #12]
 800431a:	9a03      	ldr	r2, [sp, #12]
 800431c:	9104      	str	r1, [sp, #16]
 800431e:	6b1a      	ldr	r2, [r3, #48]	; 0x30
 8004320:	f042 0208 	orr.w	r2, r2, #8
 8004324:	631a      	str	r2, [r3, #48]	; 0x30
 8004326:	6b1b      	ldr	r3, [r3, #48]	; 0x30
 8004328:	f003 0308 	and.w	r3, r3, #8
 800432c:	9304      	str	r3, [sp, #16]
 800432e:	9b04      	ldr	r3, [sp, #16]
 8004330:	f44f 7340 	mov.w	r3, #768	; 0x300
 8004334:	e7d6      	b.n	80042e4 <HAL_UART_MspInit+0x48>
 8004336:	bf00      	nop
 8004338:	40004400 	.word	0x40004400
 800433c:	40023800 	.word	0x40023800
 8004340:	40020c00 	.word	0x40020c00
 8004344:	40004800 	.word	0x40004800

08004348 <NMI_Handler>:
 8004348:	e7fe      	b.n	8004348 <NMI_Handler>
	...

0800434c <HardFault_Handler>:
 800434c:	b508      	push	{r3, lr}
 800434e:	4803      	ldr	r0, [pc, #12]	; (800435c <HardFault_Handler+0x10>)
 8004350:	2201      	movs	r2, #1
 8004352:	2104      	movs	r1, #4
 8004354:	f000 fec6 	bl	80050e4 <HAL_GPIO_WritePin>
 8004358:	e7fe      	b.n	8004358 <HardFault_Handler+0xc>
 800435a:	bf00      	nop
 800435c:	40021000 	.word	0x40021000

08004360 <MemManage_Handler>:
 8004360:	e7fe      	b.n	8004360 <MemManage_Handler>

08004362 <BusFault_Handler>:
 8004362:	e7fe      	b.n	8004362 <BusFault_Handler>

08004364 <UsageFault_Handler>:
 8004364:	e7fe      	b.n	8004364 <UsageFault_Handler>

08004366 <SVC_Handler>:
 8004366:	4770      	bx	lr

08004368 <DebugMon_Handler>:
 8004368:	4770      	bx	lr

0800436a <PendSV_Handler>:
 800436a:	4770      	bx	lr

0800436c <SysTick_Handler>:
 800436c:	f000 b95e 	b.w	800462c <HAL_IncTick>

08004370 <EXTI4_IRQHandler>:
 8004370:	b508      	push	{r3, lr}
 8004372:	4b10      	ldr	r3, [pc, #64]	; (80043b4 <EXTI4_IRQHandler+0x44>)
 8004374:	695b      	ldr	r3, [r3, #20]
 8004376:	06db      	lsls	r3, r3, #27
 8004378:	d516      	bpl.n	80043a8 <EXTI4_IRQHandler+0x38>
 800437a:	480f      	ldr	r0, [pc, #60]	; (80043b8 <EXTI4_IRQHandler+0x48>)
 800437c:	2110      	movs	r1, #16
 800437e:	f000 feab 	bl	80050d8 <HAL_GPIO_ReadPin>
 8004382:	2801      	cmp	r0, #1
 8004384:	d105      	bne.n	8004392 <EXTI4_IRQHandler+0x22>
 8004386:	480c      	ldr	r0, [pc, #48]	; (80043b8 <EXTI4_IRQHandler+0x48>)
 8004388:	2200      	movs	r2, #0
 800438a:	f44f 6180 	mov.w	r1, #1024	; 0x400
 800438e:	f000 fea9 	bl	80050e4 <HAL_GPIO_WritePin>
 8004392:	4809      	ldr	r0, [pc, #36]	; (80043b8 <EXTI4_IRQHandler+0x48>)
 8004394:	2110      	movs	r1, #16
 8004396:	f000 fe9f 	bl	80050d8 <HAL_GPIO_ReadPin>
 800439a:	b928      	cbnz	r0, 80043a8 <EXTI4_IRQHandler+0x38>
 800439c:	4806      	ldr	r0, [pc, #24]	; (80043b8 <EXTI4_IRQHandler+0x48>)
 800439e:	2201      	movs	r2, #1
 80043a0:	f44f 6180 	mov.w	r1, #1024	; 0x400
 80043a4:	f000 fe9e 	bl	80050e4 <HAL_GPIO_WritePin>
 80043a8:	e8bd 4008 	ldmia.w	sp!, {r3, lr}
 80043ac:	2010      	movs	r0, #16
 80043ae:	f000 be9f 	b.w	80050f0 <HAL_GPIO_EXTI_IRQHandler>
 80043b2:	bf00      	nop
 80043b4:	40013c00 	.word	0x40013c00
 80043b8:	40020c00 	.word	0x40020c00

080043bc <EXTI9_5_IRQHandler>:
 80043bc:	b508      	push	{r3, lr}
 80043be:	4b06      	ldr	r3, [pc, #24]	; (80043d8 <EXTI9_5_IRQHandler+0x1c>)
 80043c0:	695a      	ldr	r2, [r3, #20]
 80043c2:	2020      	movs	r0, #32
 80043c4:	0692      	lsls	r2, r2, #26
 80043c6:	bf58      	it	pl
 80043c8:	695b      	ldrpl	r3, [r3, #20]
 80043ca:	f000 fe91 	bl	80050f0 <HAL_GPIO_EXTI_IRQHandler>
 80043ce:	e8bd 4008 	ldmia.w	sp!, {r3, lr}
 80043d2:	2080      	movs	r0, #128	; 0x80
 80043d4:	f000 be8c 	b.w	80050f0 <HAL_GPIO_EXTI_IRQHandler>
 80043d8:	40013c00 	.word	0x40013c00

080043dc <TIM1_TRG_COM_TIM11_IRQHandler>:
 80043dc:	b508      	push	{r3, lr}
 80043de:	4804      	ldr	r0, [pc, #16]	; (80043f0 <TIM1_TRG_COM_TIM11_IRQHandler+0x14>)
 80043e0:	f002 fbc2 	bl	8006b68 <HAL_TIM_IRQHandler>
 80043e4:	e8bd 4008 	ldmia.w	sp!, {r3, lr}
 80043e8:	4802      	ldr	r0, [pc, #8]	; (80043f4 <TIM1_TRG_COM_TIM11_IRQHandler+0x18>)
 80043ea:	f002 bbbd 	b.w	8006b68 <HAL_TIM_IRQHandler>
 80043ee:	bf00      	nop
 80043f0:	20001500 	.word	0x20001500
 80043f4:	20001590 	.word	0x20001590

080043f8 <EXTI15_10_IRQHandler>:
 80043f8:	b508      	push	{r3, lr}
 80043fa:	4b1b      	ldr	r3, [pc, #108]	; (8004468 <EXTI15_10_IRQHandler+0x70>)
 80043fc:	695a      	ldr	r2, [r3, #20]
 80043fe:	0491      	lsls	r1, r2, #18
 8004400:	d517      	bpl.n	8004432 <EXTI15_10_IRQHandler+0x3a>
 8004402:	f000 f91f 	bl	8004644 <HAL_GetTick>
 8004406:	4b19      	ldr	r3, [pc, #100]	; (800446c <EXTI15_10_IRQHandler+0x74>)
 8004408:	681b      	ldr	r3, [r3, #0]
 800440a:	1ac0      	subs	r0, r0, r3
 800440c:	4b18      	ldr	r3, [pc, #96]	; (8004470 <EXTI15_10_IRQHandler+0x78>)
 800440e:	4358      	muls	r0, r3
 8004410:	4b18      	ldr	r3, [pc, #96]	; (8004474 <EXTI15_10_IRQHandler+0x7c>)
 8004412:	0840      	lsrs	r0, r0, #1
 8004414:	6018      	str	r0, [r3, #0]
 8004416:	f44f 5000 	mov.w	r0, #8192	; 0x2000
 800441a:	f000 fe69 	bl	80050f0 <HAL_GPIO_EXTI_IRQHandler>
 800441e:	f44f 4080 	mov.w	r0, #16384	; 0x4000
 8004422:	f000 fe65 	bl	80050f0 <HAL_GPIO_EXTI_IRQHandler>
 8004426:	e8bd 4008 	ldmia.w	sp!, {r3, lr}
 800442a:	f44f 4000 	mov.w	r0, #32768	; 0x8000
 800442e:	f000 be5f 	b.w	80050f0 <HAL_GPIO_EXTI_IRQHandler>
 8004432:	695a      	ldr	r2, [r3, #20]
 8004434:	0452      	lsls	r2, r2, #17
 8004436:	d509      	bpl.n	800444c <EXTI15_10_IRQHandler+0x54>
 8004438:	f000 f904 	bl	8004644 <HAL_GetTick>
 800443c:	4b0b      	ldr	r3, [pc, #44]	; (800446c <EXTI15_10_IRQHandler+0x74>)
 800443e:	681b      	ldr	r3, [r3, #0]
 8004440:	1ac0      	subs	r0, r0, r3
 8004442:	4b0b      	ldr	r3, [pc, #44]	; (8004470 <EXTI15_10_IRQHandler+0x78>)
 8004444:	4358      	muls	r0, r3
 8004446:	0840      	lsrs	r0, r0, #1
 8004448:	4b0b      	ldr	r3, [pc, #44]	; (8004478 <EXTI15_10_IRQHandler+0x80>)
 800444a:	e7e3      	b.n	8004414 <EXTI15_10_IRQHandler+0x1c>
 800444c:	695b      	ldr	r3, [r3, #20]
 800444e:	041b      	lsls	r3, r3, #16
 8004450:	d5e1      	bpl.n	8004416 <EXTI15_10_IRQHandler+0x1e>
 8004452:	f000 f8f7 	bl	8004644 <HAL_GetTick>
 8004456:	4b05      	ldr	r3, [pc, #20]	; (800446c <EXTI15_10_IRQHandler+0x74>)
 8004458:	681b      	ldr	r3, [r3, #0]
 800445a:	1ac0      	subs	r0, r0, r3
 800445c:	4b04      	ldr	r3, [pc, #16]	; (8004470 <EXTI15_10_IRQHandler+0x78>)
 800445e:	4358      	muls	r0, r3
 8004460:	0840      	lsrs	r0, r0, #1
 8004462:	4b06      	ldr	r3, [pc, #24]	; (800447c <EXTI15_10_IRQHandler+0x84>)
 8004464:	e7d6      	b.n	8004414 <EXTI15_10_IRQHandler+0x1c>
 8004466:	bf00      	nop
 8004468:	40013c00 	.word	0x40013c00
 800446c:	20000370 	.word	0x20000370
 8004470:	00053020 	.word	0x00053020
 8004474:	20000364 	.word	0x20000364
 8004478:	2000036c 	.word	0x2000036c
 800447c:	20000368 	.word	0x20000368

08004480 <TIM7_IRQHandler>:
 8004480:	4801      	ldr	r0, [pc, #4]	; (8004488 <TIM7_IRQHandler+0x8>)
 8004482:	f002 bb71 	b.w	8006b68 <HAL_TIM_IRQHandler>
 8004486:	bf00      	nop
 8004488:	200016b0 	.word	0x200016b0

0800448c <DMA2_Stream0_IRQHandler>:
 800448c:	4801      	ldr	r0, [pc, #4]	; (8004494 <DMA2_Stream0_IRQHandler+0x8>)
 800448e:	f000 bc8b 	b.w	8004da8 <HAL_DMA_IRQHandler>
 8004492:	bf00      	nop
 8004494:	200012b4 	.word	0x200012b4

08004498 <DMA2_Stream1_IRQHandler>:
 8004498:	4801      	ldr	r0, [pc, #4]	; (80044a0 <DMA2_Stream1_IRQHandler+0x8>)
 800449a:	f000 bc85 	b.w	8004da8 <HAL_DMA_IRQHandler>
 800449e:	bf00      	nop
 80044a0:	20001374 	.word	0x20001374

080044a4 <DMA2_Stream2_IRQHandler>:
 80044a4:	4801      	ldr	r0, [pc, #4]	; (80044ac <DMA2_Stream2_IRQHandler+0x8>)
 80044a6:	f000 bc7f 	b.w	8004da8 <HAL_DMA_IRQHandler>
 80044aa:	bf00      	nop
 80044ac:	20001314 	.word	0x20001314

080044b0 <_read>:
 80044b0:	b570      	push	{r4, r5, r6, lr}
 80044b2:	460d      	mov	r5, r1
 80044b4:	4614      	mov	r4, r2
 80044b6:	460e      	mov	r6, r1
 80044b8:	1b73      	subs	r3, r6, r5
 80044ba:	429c      	cmp	r4, r3
 80044bc:	dc01      	bgt.n	80044c2 <_read+0x12>
 80044be:	4620      	mov	r0, r4
 80044c0:	bd70      	pop	{r4, r5, r6, pc}
 80044c2:	f3af 8000 	nop.w
 80044c6:	f806 0b01 	strb.w	r0, [r6], #1
 80044ca:	e7f5      	b.n	80044b8 <_read+0x8>

080044cc <_write>:
 80044cc:	b570      	push	{r4, r5, r6, lr}
 80044ce:	460d      	mov	r5, r1
 80044d0:	4614      	mov	r4, r2
 80044d2:	460e      	mov	r6, r1
 80044d4:	1b73      	subs	r3, r6, r5
 80044d6:	429c      	cmp	r4, r3
 80044d8:	dc01      	bgt.n	80044de <_write+0x12>
 80044da:	4620      	mov	r0, r4
 80044dc:	bd70      	pop	{r4, r5, r6, pc}
 80044de:	f816 0b01 	ldrb.w	r0, [r6], #1
 80044e2:	f3af 8000 	nop.w
 80044e6:	e7f5      	b.n	80044d4 <_write+0x8>

080044e8 <_close>:
 80044e8:	f04f 30ff 	mov.w	r0, #4294967295	; 0xffffffff
 80044ec:	4770      	bx	lr

080044ee <_fstat>:
 80044ee:	f44f 5300 	mov.w	r3, #8192	; 0x2000
 80044f2:	604b      	str	r3, [r1, #4]
 80044f4:	2000      	movs	r0, #0
 80044f6:	4770      	bx	lr

080044f8 <_isatty>:
 80044f8:	2001      	movs	r0, #1
 80044fa:	4770      	bx	lr

080044fc <_lseek>:
 80044fc:	2000      	movs	r0, #0
 80044fe:	4770      	bx	lr

08004500 <_sbrk>:
 8004500:	4a0b      	ldr	r2, [pc, #44]	; (8004530 <_sbrk+0x30>)
 8004502:	6811      	ldr	r1, [r2, #0]
 8004504:	b510      	push	{r4, lr}
 8004506:	4603      	mov	r3, r0
 8004508:	b909      	cbnz	r1, 800450e <_sbrk+0xe>
 800450a:	490a      	ldr	r1, [pc, #40]	; (8004534 <_sbrk+0x34>)
 800450c:	6011      	str	r1, [r2, #0]
 800450e:	6810      	ldr	r0, [r2, #0]
 8004510:	4909      	ldr	r1, [pc, #36]	; (8004538 <_sbrk+0x38>)
 8004512:	4c0a      	ldr	r4, [pc, #40]	; (800453c <_sbrk+0x3c>)
 8004514:	4403      	add	r3, r0
 8004516:	1b09      	subs	r1, r1, r4
 8004518:	428b      	cmp	r3, r1
 800451a:	d906      	bls.n	800452a <_sbrk+0x2a>
 800451c:	f003 fe2a 	bl	8008174 <__errno>
 8004520:	230c      	movs	r3, #12
 8004522:	6003      	str	r3, [r0, #0]
 8004524:	f04f 30ff 	mov.w	r0, #4294967295	; 0xffffffff
 8004528:	bd10      	pop	{r4, pc}
 800452a:	6013      	str	r3, [r2, #0]
 800452c:	e7fc      	b.n	8004528 <_sbrk+0x28>
 800452e:	bf00      	nop
 8004530:	20001818 	.word	0x20001818
 8004534:	20001848 	.word	0x20001848
 8004538:	20020000 	.word	0x20020000
 800453c:	00000400 	.word	0x00000400

08004540 <SystemInit>:
 8004540:	4b05      	ldr	r3, [pc, #20]	; (8004558 <SystemInit+0x18>)
 8004542:	f8d3 2088 	ldr.w	r2, [r3, #136]	; 0x88
 8004546:	f442 0270 	orr.w	r2, r2, #15728640	; 0xf00000
 800454a:	f8c3 2088 	str.w	r2, [r3, #136]	; 0x88
 800454e:	f04f 6200 	mov.w	r2, #134217728	; 0x8000000
 8004552:	609a      	str	r2, [r3, #8]
 8004554:	4770      	bx	lr
 8004556:	bf00      	nop
 8004558:	e000ed00 	.word	0xe000ed00

0800455c <Reset_Handler>:
 800455c:	f8df d034 	ldr.w	sp, [pc, #52]	; 8004594 <LoopFillZerobss+0x12>
 8004560:	480d      	ldr	r0, [pc, #52]	; (8004598 <LoopFillZerobss+0x16>)
 8004562:	490e      	ldr	r1, [pc, #56]	; (800459c <LoopFillZerobss+0x1a>)
 8004564:	4a0e      	ldr	r2, [pc, #56]	; (80045a0 <LoopFillZerobss+0x1e>)
 8004566:	2300      	movs	r3, #0
 8004568:	e002      	b.n	8004570 <LoopCopyDataInit>

0800456a <CopyDataInit>:
 800456a:	58d4      	ldr	r4, [r2, r3]
 800456c:	50c4      	str	r4, [r0, r3]
 800456e:	3304      	adds	r3, #4

08004570 <LoopCopyDataInit>:
 8004570:	18c4      	adds	r4, r0, r3
 8004572:	428c      	cmp	r4, r1
 8004574:	d3f9      	bcc.n	800456a <CopyDataInit>
 8004576:	4a0b      	ldr	r2, [pc, #44]	; (80045a4 <LoopFillZerobss+0x22>)
 8004578:	4c0b      	ldr	r4, [pc, #44]	; (80045a8 <LoopFillZerobss+0x26>)
 800457a:	2300      	movs	r3, #0
 800457c:	e001      	b.n	8004582 <LoopFillZerobss>

0800457e <FillZerobss>:
 800457e:	6013      	str	r3, [r2, #0]
 8004580:	3204      	adds	r2, #4

08004582 <LoopFillZerobss>:
 8004582:	42a2      	cmp	r2, r4
 8004584:	d3fb      	bcc.n	800457e <FillZerobss>
 8004586:	f7ff ffdb 	bl	8004540 <SystemInit>
 800458a:	f003 fdf9 	bl	8008180 <__libc_init_array>
 800458e:	f7fe fe1d 	bl	80031cc <main>
 8004592:	4770      	bx	lr
 8004594:	20020000 	.word	0x20020000
 8004598:	20000000 	.word	0x20000000
 800459c:	20000134 	.word	0x20000134
 80045a0:	0800b870 	.word	0x0800b870
 80045a4:	20000134 	.word	0x20000134
 80045a8:	20001844 	.word	0x20001844

080045ac <ADC_IRQHandler>:
 80045ac:	e7fe      	b.n	80045ac <ADC_IRQHandler>
	...

080045b0 <HAL_InitTick>:
 80045b0:	b538      	push	{r3, r4, r5, lr}
 80045b2:	4a0e      	ldr	r2, [pc, #56]	; (80045ec <HAL_InitTick+0x3c>)
 80045b4:	4b0e      	ldr	r3, [pc, #56]	; (80045f0 <HAL_InitTick+0x40>)
 80045b6:	4605      	mov	r5, r0
 80045b8:	7818      	ldrb	r0, [r3, #0]
 80045ba:	f44f 737a 	mov.w	r3, #1000	; 0x3e8
 80045be:	fbb3 f3f0 	udiv	r3, r3, r0
 80045c2:	6810      	ldr	r0, [r2, #0]
 80045c4:	fbb0 f0f3 	udiv	r0, r0, r3
 80045c8:	f000 fad0 	bl	8004b6c <HAL_SYSTICK_Config>
 80045cc:	4604      	mov	r4, r0
 80045ce:	b958      	cbnz	r0, 80045e8 <HAL_InitTick+0x38>
 80045d0:	2d0f      	cmp	r5, #15
 80045d2:	d809      	bhi.n	80045e8 <HAL_InitTick+0x38>
 80045d4:	4602      	mov	r2, r0
 80045d6:	4629      	mov	r1, r5
 80045d8:	f04f 30ff 	mov.w	r0, #4294967295	; 0xffffffff
 80045dc:	f000 fa88 	bl	8004af0 <HAL_NVIC_SetPriority>
 80045e0:	4b04      	ldr	r3, [pc, #16]	; (80045f4 <HAL_InitTick+0x44>)
 80045e2:	4620      	mov	r0, r4
 80045e4:	601d      	str	r5, [r3, #0]
 80045e6:	bd38      	pop	{r3, r4, r5, pc}
 80045e8:	2001      	movs	r0, #1
 80045ea:	e7fc      	b.n	80045e6 <HAL_InitTick+0x36>
 80045ec:	200000c0 	.word	0x200000c0
 80045f0:	200000c4 	.word	0x200000c4
 80045f4:	200000c8 	.word	0x200000c8

080045f8 <HAL_Init>:
 80045f8:	b508      	push	{r3, lr}
 80045fa:	4b0b      	ldr	r3, [pc, #44]	; (8004628 <HAL_Init+0x30>)
 80045fc:	681a      	ldr	r2, [r3, #0]
 80045fe:	f442 7200 	orr.w	r2, r2, #512	; 0x200
 8004602:	601a      	str	r2, [r3, #0]
 8004604:	681a      	ldr	r2, [r3, #0]
 8004606:	f442 6280 	orr.w	r2, r2, #1024	; 0x400
 800460a:	601a      	str	r2, [r3, #0]
 800460c:	681a      	ldr	r2, [r3, #0]
 800460e:	f442 7280 	orr.w	r2, r2, #256	; 0x100
 8004612:	601a      	str	r2, [r3, #0]
 8004614:	2003      	movs	r0, #3
 8004616:	f000 fa59 	bl	8004acc <HAL_NVIC_SetPriorityGrouping>
 800461a:	2000      	movs	r0, #0
 800461c:	f7ff ffc8 	bl	80045b0 <HAL_InitTick>
 8004620:	f7ff faf8 	bl	8003c14 <HAL_MspInit>
 8004624:	2000      	movs	r0, #0
 8004626:	bd08      	pop	{r3, pc}
 8004628:	40023c00 	.word	0x40023c00

0800462c <HAL_IncTick>:
 800462c:	4a03      	ldr	r2, [pc, #12]	; (800463c <HAL_IncTick+0x10>)
 800462e:	4b04      	ldr	r3, [pc, #16]	; (8004640 <HAL_IncTick+0x14>)
 8004630:	6811      	ldr	r1, [r2, #0]
 8004632:	781b      	ldrb	r3, [r3, #0]
 8004634:	440b      	add	r3, r1
 8004636:	6013      	str	r3, [r2, #0]
 8004638:	4770      	bx	lr
 800463a:	bf00      	nop
 800463c:	2000181c 	.word	0x2000181c
 8004640:	200000c4 	.word	0x200000c4

08004644 <HAL_GetTick>:
 8004644:	4b01      	ldr	r3, [pc, #4]	; (800464c <HAL_GetTick+0x8>)
 8004646:	6818      	ldr	r0, [r3, #0]
 8004648:	4770      	bx	lr
 800464a:	bf00      	nop
 800464c:	2000181c 	.word	0x2000181c

08004650 <HAL_Delay>:
 8004650:	b538      	push	{r3, r4, r5, lr}
 8004652:	4604      	mov	r4, r0
 8004654:	f7ff fff6 	bl	8004644 <HAL_GetTick>
 8004658:	1c63      	adds	r3, r4, #1
 800465a:	bf1c      	itt	ne
 800465c:	4b05      	ldrne	r3, [pc, #20]	; (8004674 <HAL_Delay+0x24>)
 800465e:	781b      	ldrbne	r3, [r3, #0]
 8004660:	4605      	mov	r5, r0
 8004662:	bf18      	it	ne
 8004664:	18e4      	addne	r4, r4, r3
 8004666:	f7ff ffed 	bl	8004644 <HAL_GetTick>
 800466a:	1b43      	subs	r3, r0, r5
 800466c:	42a3      	cmp	r3, r4
 800466e:	d3fa      	bcc.n	8004666 <HAL_Delay+0x16>
 8004670:	bd38      	pop	{r3, r4, r5, pc}
 8004672:	bf00      	nop
 8004674:	200000c4 	.word	0x200000c4

08004678 <HAL_ADC_Init>:
 8004678:	b538      	push	{r3, r4, r5, lr}
 800467a:	4604      	mov	r4, r0
 800467c:	2800      	cmp	r0, #0
 800467e:	f000 809b 	beq.w	80047b8 <HAL_ADC_Init+0x140>
 8004682:	6c05      	ldr	r5, [r0, #64]	; 0x40
 8004684:	b925      	cbnz	r5, 8004690 <HAL_ADC_Init+0x18>
 8004686:	f7ff fae1 	bl	8003c4c <HAL_ADC_MspInit>
 800468a:	6465      	str	r5, [r4, #68]	; 0x44
 800468c:	f884 503c 	strb.w	r5, [r4, #60]	; 0x3c
 8004690:	6c23      	ldr	r3, [r4, #64]	; 0x40
 8004692:	06db      	lsls	r3, r3, #27
 8004694:	f100 808e 	bmi.w	80047b4 <HAL_ADC_Init+0x13c>
 8004698:	6c23      	ldr	r3, [r4, #64]	; 0x40
 800469a:	f423 5388 	bic.w	r3, r3, #4352	; 0x1100
 800469e:	f023 0302 	bic.w	r3, r3, #2
 80046a2:	f043 0302 	orr.w	r3, r3, #2
 80046a6:	6423      	str	r3, [r4, #64]	; 0x40
 80046a8:	4b44      	ldr	r3, [pc, #272]	; (80047bc <HAL_ADC_Init+0x144>)
 80046aa:	685a      	ldr	r2, [r3, #4]
 80046ac:	f422 3240 	bic.w	r2, r2, #196608	; 0x30000
 80046b0:	605a      	str	r2, [r3, #4]
 80046b2:	685a      	ldr	r2, [r3, #4]
 80046b4:	6861      	ldr	r1, [r4, #4]
 80046b6:	430a      	orrs	r2, r1
 80046b8:	605a      	str	r2, [r3, #4]
 80046ba:	6823      	ldr	r3, [r4, #0]
 80046bc:	6921      	ldr	r1, [r4, #16]
 80046be:	685a      	ldr	r2, [r3, #4]
 80046c0:	f422 7280 	bic.w	r2, r2, #256	; 0x100
 80046c4:	605a      	str	r2, [r3, #4]
 80046c6:	685a      	ldr	r2, [r3, #4]
 80046c8:	ea42 2201 	orr.w	r2, r2, r1, lsl #8
 80046cc:	605a      	str	r2, [r3, #4]
 80046ce:	685a      	ldr	r2, [r3, #4]
 80046d0:	68a1      	ldr	r1, [r4, #8]
 80046d2:	f022 7240 	bic.w	r2, r2, #50331648	; 0x3000000
 80046d6:	605a      	str	r2, [r3, #4]
 80046d8:	685a      	ldr	r2, [r3, #4]
 80046da:	430a      	orrs	r2, r1
 80046dc:	605a      	str	r2, [r3, #4]
 80046de:	689a      	ldr	r2, [r3, #8]
 80046e0:	68e1      	ldr	r1, [r4, #12]
 80046e2:	f422 6200 	bic.w	r2, r2, #2048	; 0x800
 80046e6:	609a      	str	r2, [r3, #8]
 80046e8:	689a      	ldr	r2, [r3, #8]
 80046ea:	430a      	orrs	r2, r1
 80046ec:	609a      	str	r2, [r3, #8]
 80046ee:	4934      	ldr	r1, [pc, #208]	; (80047c0 <HAL_ADC_Init+0x148>)
 80046f0:	6aa2      	ldr	r2, [r4, #40]	; 0x28
 80046f2:	428a      	cmp	r2, r1
 80046f4:	d052      	beq.n	800479c <HAL_ADC_Init+0x124>
 80046f6:	6899      	ldr	r1, [r3, #8]
 80046f8:	f021 6170 	bic.w	r1, r1, #251658240	; 0xf000000
 80046fc:	6099      	str	r1, [r3, #8]
 80046fe:	6899      	ldr	r1, [r3, #8]
 8004700:	430a      	orrs	r2, r1
 8004702:	609a      	str	r2, [r3, #8]
 8004704:	689a      	ldr	r2, [r3, #8]
 8004706:	6ae1      	ldr	r1, [r4, #44]	; 0x2c
 8004708:	f022 5240 	bic.w	r2, r2, #805306368	; 0x30000000
 800470c:	609a      	str	r2, [r3, #8]
 800470e:	689a      	ldr	r2, [r3, #8]
 8004710:	430a      	orrs	r2, r1
 8004712:	609a      	str	r2, [r3, #8]
 8004714:	689a      	ldr	r2, [r3, #8]
 8004716:	f022 0202 	bic.w	r2, r2, #2
 800471a:	609a      	str	r2, [r3, #8]
 800471c:	689a      	ldr	r2, [r3, #8]
 800471e:	7e21      	ldrb	r1, [r4, #24]
 8004720:	ea42 0241 	orr.w	r2, r2, r1, lsl #1
 8004724:	609a      	str	r2, [r3, #8]
 8004726:	f894 2020 	ldrb.w	r2, [r4, #32]
 800472a:	2a00      	cmp	r2, #0
 800472c:	d03e      	beq.n	80047ac <HAL_ADC_Init+0x134>
 800472e:	685a      	ldr	r2, [r3, #4]
 8004730:	6a61      	ldr	r1, [r4, #36]	; 0x24
 8004732:	f442 6200 	orr.w	r2, r2, #2048	; 0x800
 8004736:	605a      	str	r2, [r3, #4]
 8004738:	685a      	ldr	r2, [r3, #4]
 800473a:	f422 4260 	bic.w	r2, r2, #57344	; 0xe000
 800473e:	605a      	str	r2, [r3, #4]
 8004740:	685a      	ldr	r2, [r3, #4]
 8004742:	3901      	subs	r1, #1
 8004744:	ea42 3241 	orr.w	r2, r2, r1, lsl #13
 8004748:	605a      	str	r2, [r3, #4]
 800474a:	6ada      	ldr	r2, [r3, #44]	; 0x2c
 800474c:	69e1      	ldr	r1, [r4, #28]
 800474e:	f422 0270 	bic.w	r2, r2, #15728640	; 0xf00000
 8004752:	62da      	str	r2, [r3, #44]	; 0x2c
 8004754:	6ada      	ldr	r2, [r3, #44]	; 0x2c
 8004756:	3901      	subs	r1, #1
 8004758:	ea42 5201 	orr.w	r2, r2, r1, lsl #20
 800475c:	62da      	str	r2, [r3, #44]	; 0x2c
 800475e:	689a      	ldr	r2, [r3, #8]
 8004760:	f422 7200 	bic.w	r2, r2, #512	; 0x200
 8004764:	609a      	str	r2, [r3, #8]
 8004766:	689a      	ldr	r2, [r3, #8]
 8004768:	f894 1030 	ldrb.w	r1, [r4, #48]	; 0x30
 800476c:	ea42 2241 	orr.w	r2, r2, r1, lsl #9
 8004770:	609a      	str	r2, [r3, #8]
 8004772:	689a      	ldr	r2, [r3, #8]
 8004774:	6961      	ldr	r1, [r4, #20]
 8004776:	f422 6280 	bic.w	r2, r2, #1024	; 0x400
 800477a:	609a      	str	r2, [r3, #8]
 800477c:	689a      	ldr	r2, [r3, #8]
 800477e:	2000      	movs	r0, #0
 8004780:	ea42 2281 	orr.w	r2, r2, r1, lsl #10
 8004784:	609a      	str	r2, [r3, #8]
 8004786:	6460      	str	r0, [r4, #68]	; 0x44
 8004788:	6c23      	ldr	r3, [r4, #64]	; 0x40
 800478a:	f023 0303 	bic.w	r3, r3, #3
 800478e:	f043 0301 	orr.w	r3, r3, #1
 8004792:	6423      	str	r3, [r4, #64]	; 0x40
 8004794:	2300      	movs	r3, #0
 8004796:	f884 303c 	strb.w	r3, [r4, #60]	; 0x3c
 800479a:	bd38      	pop	{r3, r4, r5, pc}
 800479c:	689a      	ldr	r2, [r3, #8]
 800479e:	f022 6270 	bic.w	r2, r2, #251658240	; 0xf000000
 80047a2:	609a      	str	r2, [r3, #8]
 80047a4:	689a      	ldr	r2, [r3, #8]
 80047a6:	f022 5240 	bic.w	r2, r2, #805306368	; 0x30000000
 80047aa:	e7b2      	b.n	8004712 <HAL_ADC_Init+0x9a>
 80047ac:	685a      	ldr	r2, [r3, #4]
 80047ae:	f422 6200 	bic.w	r2, r2, #2048	; 0x800
 80047b2:	e7c9      	b.n	8004748 <HAL_ADC_Init+0xd0>
 80047b4:	2001      	movs	r0, #1
 80047b6:	e7ed      	b.n	8004794 <HAL_ADC_Init+0x11c>
 80047b8:	2001      	movs	r0, #1
 80047ba:	e7ee      	b.n	800479a <HAL_ADC_Init+0x122>
 80047bc:	40012300 	.word	0x40012300
 80047c0:	0f000001 	.word	0x0f000001

080047c4 <HAL_ADC_Start_DMA>:
 80047c4:	b573      	push	{r0, r1, r4, r5, r6, lr}
 80047c6:	4613      	mov	r3, r2
 80047c8:	2200      	movs	r2, #0
 80047ca:	9201      	str	r2, [sp, #4]
 80047cc:	f890 203c 	ldrb.w	r2, [r0, #60]	; 0x3c
 80047d0:	2a01      	cmp	r2, #1
 80047d2:	4605      	mov	r5, r0
 80047d4:	f000 808c 	beq.w	80048f0 <HAL_ADC_Start_DMA+0x12c>
 80047d8:	2201      	movs	r2, #1
 80047da:	6806      	ldr	r6, [r0, #0]
 80047dc:	f880 203c 	strb.w	r2, [r0, #60]	; 0x3c
 80047e0:	68b2      	ldr	r2, [r6, #8]
 80047e2:	07d4      	lsls	r4, r2, #31
 80047e4:	d554      	bpl.n	8004890 <HAL_ADC_Start_DMA+0xcc>
 80047e6:	68b2      	ldr	r2, [r6, #8]
 80047e8:	05d0      	lsls	r0, r2, #23
 80047ea:	d464      	bmi.n	80048b6 <HAL_ADC_Start_DMA+0xf2>
 80047ec:	68b4      	ldr	r4, [r6, #8]
 80047ee:	f014 0401 	ands.w	r4, r4, #1
 80047f2:	d074      	beq.n	80048de <HAL_ADC_Start_DMA+0x11a>
 80047f4:	6c28      	ldr	r0, [r5, #64]	; 0x40
 80047f6:	f420 60e0 	bic.w	r0, r0, #1792	; 0x700
 80047fa:	f020 0001 	bic.w	r0, r0, #1
 80047fe:	f440 7080 	orr.w	r0, r0, #256	; 0x100
 8004802:	6428      	str	r0, [r5, #64]	; 0x40
 8004804:	6872      	ldr	r2, [r6, #4]
 8004806:	0552      	lsls	r2, r2, #21
 8004808:	bf41      	itttt	mi
 800480a:	6c28      	ldrmi	r0, [r5, #64]	; 0x40
 800480c:	f420 5040 	bicmi.w	r0, r0, #12288	; 0x3000
 8004810:	f440 5080 	orrmi.w	r0, r0, #4096	; 0x1000
 8004814:	6428      	strmi	r0, [r5, #64]	; 0x40
 8004816:	6c2a      	ldr	r2, [r5, #64]	; 0x40
 8004818:	6ba8      	ldr	r0, [r5, #56]	; 0x38
 800481a:	f412 5280 	ands.w	r2, r2, #4096	; 0x1000
 800481e:	bf1c      	itt	ne
 8004820:	6c6a      	ldrne	r2, [r5, #68]	; 0x44
 8004822:	f022 0206 	bicne.w	r2, r2, #6
 8004826:	646a      	str	r2, [r5, #68]	; 0x44
 8004828:	2400      	movs	r4, #0
 800482a:	4a33      	ldr	r2, [pc, #204]	; (80048f8 <HAL_ADC_Start_DMA+0x134>)
 800482c:	f885 403c 	strb.w	r4, [r5, #60]	; 0x3c
 8004830:	63c2      	str	r2, [r0, #60]	; 0x3c
 8004832:	4a32      	ldr	r2, [pc, #200]	; (80048fc <HAL_ADC_Start_DMA+0x138>)
 8004834:	6402      	str	r2, [r0, #64]	; 0x40
 8004836:	4a32      	ldr	r2, [pc, #200]	; (8004900 <HAL_ADC_Start_DMA+0x13c>)
 8004838:	64c2      	str	r2, [r0, #76]	; 0x4c
 800483a:	f06f 0222 	mvn.w	r2, #34	; 0x22
 800483e:	6032      	str	r2, [r6, #0]
 8004840:	6872      	ldr	r2, [r6, #4]
 8004842:	f042 6280 	orr.w	r2, r2, #67108864	; 0x4000000
 8004846:	6072      	str	r2, [r6, #4]
 8004848:	68b2      	ldr	r2, [r6, #8]
 800484a:	f442 7280 	orr.w	r2, r2, #256	; 0x100
 800484e:	60b2      	str	r2, [r6, #8]
 8004850:	460a      	mov	r2, r1
 8004852:	f106 014c 	add.w	r1, r6, #76	; 0x4c
 8004856:	f000 fa6d 	bl	8004d34 <HAL_DMA_Start_IT>
 800485a:	4a2a      	ldr	r2, [pc, #168]	; (8004904 <HAL_ADC_Start_DMA+0x140>)
 800485c:	682b      	ldr	r3, [r5, #0]
 800485e:	6850      	ldr	r0, [r2, #4]
 8004860:	4929      	ldr	r1, [pc, #164]	; (8004908 <HAL_ADC_Start_DMA+0x144>)
 8004862:	f010 001f 	ands.w	r0, r0, #31
 8004866:	d132      	bne.n	80048ce <HAL_ADC_Start_DMA+0x10a>
 8004868:	428b      	cmp	r3, r1
 800486a:	d007      	beq.n	800487c <HAL_ADC_Start_DMA+0xb8>
 800486c:	f501 7180 	add.w	r1, r1, #256	; 0x100
 8004870:	428b      	cmp	r3, r1
 8004872:	d125      	bne.n	80048c0 <HAL_ADC_Start_DMA+0xfc>
 8004874:	6852      	ldr	r2, [r2, #4]
 8004876:	f012 0f1f 	tst.w	r2, #31
 800487a:	d107      	bne.n	800488c <HAL_ADC_Start_DMA+0xc8>
 800487c:	6898      	ldr	r0, [r3, #8]
 800487e:	f010 5040 	ands.w	r0, r0, #805306368	; 0x30000000
 8004882:	d137      	bne.n	80048f4 <HAL_ADC_Start_DMA+0x130>
 8004884:	689a      	ldr	r2, [r3, #8]
 8004886:	f042 4280 	orr.w	r2, r2, #1073741824	; 0x40000000
 800488a:	609a      	str	r2, [r3, #8]
 800488c:	b002      	add	sp, #8
 800488e:	bd70      	pop	{r4, r5, r6, pc}
 8004890:	68b2      	ldr	r2, [r6, #8]
 8004892:	f042 0201 	orr.w	r2, r2, #1
 8004896:	60b2      	str	r2, [r6, #8]
 8004898:	4a1c      	ldr	r2, [pc, #112]	; (800490c <HAL_ADC_Start_DMA+0x148>)
 800489a:	6810      	ldr	r0, [r2, #0]
 800489c:	4a1c      	ldr	r2, [pc, #112]	; (8004910 <HAL_ADC_Start_DMA+0x14c>)
 800489e:	fbb0 f0f2 	udiv	r0, r0, r2
 80048a2:	eb00 0040 	add.w	r0, r0, r0, lsl #1
 80048a6:	9001      	str	r0, [sp, #4]
 80048a8:	9a01      	ldr	r2, [sp, #4]
 80048aa:	2a00      	cmp	r2, #0
 80048ac:	d09b      	beq.n	80047e6 <HAL_ADC_Start_DMA+0x22>
 80048ae:	9a01      	ldr	r2, [sp, #4]
 80048b0:	3a01      	subs	r2, #1
 80048b2:	9201      	str	r2, [sp, #4]
 80048b4:	e7f8      	b.n	80048a8 <HAL_ADC_Start_DMA+0xe4>
 80048b6:	68b2      	ldr	r2, [r6, #8]
 80048b8:	f422 7280 	bic.w	r2, r2, #256	; 0x100
 80048bc:	60b2      	str	r2, [r6, #8]
 80048be:	e795      	b.n	80047ec <HAL_ADC_Start_DMA+0x28>
 80048c0:	4914      	ldr	r1, [pc, #80]	; (8004914 <HAL_ADC_Start_DMA+0x150>)
 80048c2:	428b      	cmp	r3, r1
 80048c4:	d1e2      	bne.n	800488c <HAL_ADC_Start_DMA+0xc8>
 80048c6:	6852      	ldr	r2, [r2, #4]
 80048c8:	f012 0f10 	tst.w	r2, #16
 80048cc:	e7d5      	b.n	800487a <HAL_ADC_Start_DMA+0xb6>
 80048ce:	428b      	cmp	r3, r1
 80048d0:	d110      	bne.n	80048f4 <HAL_ADC_Start_DMA+0x130>
 80048d2:	6898      	ldr	r0, [r3, #8]
 80048d4:	f010 5040 	ands.w	r0, r0, #805306368	; 0x30000000
 80048d8:	d0d4      	beq.n	8004884 <HAL_ADC_Start_DMA+0xc0>
 80048da:	4620      	mov	r0, r4
 80048dc:	e7d6      	b.n	800488c <HAL_ADC_Start_DMA+0xc8>
 80048de:	6c2b      	ldr	r3, [r5, #64]	; 0x40
 80048e0:	f043 0310 	orr.w	r3, r3, #16
 80048e4:	642b      	str	r3, [r5, #64]	; 0x40
 80048e6:	6c6b      	ldr	r3, [r5, #68]	; 0x44
 80048e8:	f043 0301 	orr.w	r3, r3, #1
 80048ec:	646b      	str	r3, [r5, #68]	; 0x44
 80048ee:	e7f4      	b.n	80048da <HAL_ADC_Start_DMA+0x116>
 80048f0:	2002      	movs	r0, #2
 80048f2:	e7cb      	b.n	800488c <HAL_ADC_Start_DMA+0xc8>
 80048f4:	2000      	movs	r0, #0
 80048f6:	e7c9      	b.n	800488c <HAL_ADC_Start_DMA+0xc8>
 80048f8:	0800493d 	.word	0x0800493d
 80048fc:	0800491b 	.word	0x0800491b
 8004900:	08004927 	.word	0x08004927
 8004904:	40012300 	.word	0x40012300
 8004908:	40012000 	.word	0x40012000
 800490c:	200000c0 	.word	0x200000c0
 8004910:	000f4240 	.word	0x000f4240
 8004914:	40012200 	.word	0x40012200

08004918 <HAL_ADC_ConvHalfCpltCallback>:
 8004918:	4770      	bx	lr

0800491a <ADC_DMAHalfConvCplt>:
 800491a:	b508      	push	{r3, lr}
 800491c:	6b80      	ldr	r0, [r0, #56]	; 0x38
 800491e:	f7ff fffb 	bl	8004918 <HAL_ADC_ConvHalfCpltCallback>
 8004922:	bd08      	pop	{r3, pc}

08004924 <HAL_ADC_ErrorCallback>:
 8004924:	4770      	bx	lr

08004926 <ADC_DMAError>:
 8004926:	6b80      	ldr	r0, [r0, #56]	; 0x38
 8004928:	b508      	push	{r3, lr}
 800492a:	2340      	movs	r3, #64	; 0x40
 800492c:	6403      	str	r3, [r0, #64]	; 0x40
 800492e:	6c43      	ldr	r3, [r0, #68]	; 0x44
 8004930:	f043 0304 	orr.w	r3, r3, #4
 8004934:	6443      	str	r3, [r0, #68]	; 0x44
 8004936:	f7ff fff5 	bl	8004924 <HAL_ADC_ErrorCallback>
 800493a:	bd08      	pop	{r3, pc}

0800493c <ADC_DMAConvCplt>:
 800493c:	6b83      	ldr	r3, [r0, #56]	; 0x38
 800493e:	6c1a      	ldr	r2, [r3, #64]	; 0x40
 8004940:	f012 0f50 	tst.w	r2, #80	; 0x50
 8004944:	b510      	push	{r4, lr}
 8004946:	6c1a      	ldr	r2, [r3, #64]	; 0x40
 8004948:	d123      	bne.n	8004992 <ADC_DMAConvCplt+0x56>
 800494a:	f442 7200 	orr.w	r2, r2, #512	; 0x200
 800494e:	641a      	str	r2, [r3, #64]	; 0x40
 8004950:	681a      	ldr	r2, [r3, #0]
 8004952:	6891      	ldr	r1, [r2, #8]
 8004954:	f011 5f40 	tst.w	r1, #805306368	; 0x30000000
 8004958:	d117      	bne.n	800498a <ADC_DMAConvCplt+0x4e>
 800495a:	7e19      	ldrb	r1, [r3, #24]
 800495c:	b9a9      	cbnz	r1, 800498a <ADC_DMAConvCplt+0x4e>
 800495e:	6ad1      	ldr	r1, [r2, #44]	; 0x2c
 8004960:	f411 0f70 	tst.w	r1, #15728640	; 0xf00000
 8004964:	d002      	beq.n	800496c <ADC_DMAConvCplt+0x30>
 8004966:	6891      	ldr	r1, [r2, #8]
 8004968:	0548      	lsls	r0, r1, #21
 800496a:	d40e      	bmi.n	800498a <ADC_DMAConvCplt+0x4e>
 800496c:	6851      	ldr	r1, [r2, #4]
 800496e:	f021 0120 	bic.w	r1, r1, #32
 8004972:	6051      	str	r1, [r2, #4]
 8004974:	6c1a      	ldr	r2, [r3, #64]	; 0x40
 8004976:	f422 7280 	bic.w	r2, r2, #256	; 0x100
 800497a:	641a      	str	r2, [r3, #64]	; 0x40
 800497c:	6c1a      	ldr	r2, [r3, #64]	; 0x40
 800497e:	04d1      	lsls	r1, r2, #19
 8004980:	bf5e      	ittt	pl
 8004982:	6c1a      	ldrpl	r2, [r3, #64]	; 0x40
 8004984:	f042 0201 	orrpl.w	r2, r2, #1
 8004988:	641a      	strpl	r2, [r3, #64]	; 0x40
 800498a:	4618      	mov	r0, r3
 800498c:	f7fe fafe 	bl	8002f8c <HAL_ADC_ConvCpltCallback>
 8004990:	bd10      	pop	{r4, pc}
 8004992:	06d2      	lsls	r2, r2, #27
 8004994:	d503      	bpl.n	800499e <ADC_DMAConvCplt+0x62>
 8004996:	4618      	mov	r0, r3
 8004998:	f7ff ffc4 	bl	8004924 <HAL_ADC_ErrorCallback>
 800499c:	e7f8      	b.n	8004990 <ADC_DMAConvCplt+0x54>
 800499e:	6b9b      	ldr	r3, [r3, #56]	; 0x38
 80049a0:	e8bd 4010 	ldmia.w	sp!, {r4, lr}
 80049a4:	6cdb      	ldr	r3, [r3, #76]	; 0x4c
 80049a6:	4718      	bx	r3

080049a8 <HAL_ADC_ConfigChannel>:
 80049a8:	b5f7      	push	{r0, r1, r2, r4, r5, r6, r7, lr}
 80049aa:	2300      	movs	r3, #0
 80049ac:	9301      	str	r3, [sp, #4]
 80049ae:	f890 303c 	ldrb.w	r3, [r0, #60]	; 0x3c
 80049b2:	2b01      	cmp	r3, #1
 80049b4:	d066      	beq.n	8004a84 <HAL_ADC_ConfigChannel+0xdc>
 80049b6:	2301      	movs	r3, #1
 80049b8:	f880 303c 	strb.w	r3, [r0, #60]	; 0x3c
 80049bc:	680d      	ldr	r5, [r1, #0]
 80049be:	6803      	ldr	r3, [r0, #0]
 80049c0:	688e      	ldr	r6, [r1, #8]
 80049c2:	2d09      	cmp	r5, #9
 80049c4:	b2ac      	uxth	r4, r5
 80049c6:	d931      	bls.n	8004a2c <HAL_ADC_ConfigChannel+0x84>
 80049c8:	eb04 0244 	add.w	r2, r4, r4, lsl #1
 80049cc:	68df      	ldr	r7, [r3, #12]
 80049ce:	3a1e      	subs	r2, #30
 80049d0:	f04f 0c07 	mov.w	ip, #7
 80049d4:	fa0c fc02 	lsl.w	ip, ip, r2
 80049d8:	ea27 070c 	bic.w	r7, r7, ip
 80049dc:	60df      	str	r7, [r3, #12]
 80049de:	68df      	ldr	r7, [r3, #12]
 80049e0:	fa06 f202 	lsl.w	r2, r6, r2
 80049e4:	433a      	orrs	r2, r7
 80049e6:	60da      	str	r2, [r3, #12]
 80049e8:	6849      	ldr	r1, [r1, #4]
 80049ea:	2906      	cmp	r1, #6
 80049ec:	eb01 0281 	add.w	r2, r1, r1, lsl #2
 80049f0:	d82c      	bhi.n	8004a4c <HAL_ADC_ConfigChannel+0xa4>
 80049f2:	6b59      	ldr	r1, [r3, #52]	; 0x34
 80049f4:	3a05      	subs	r2, #5
 80049f6:	261f      	movs	r6, #31
 80049f8:	4096      	lsls	r6, r2
 80049fa:	ea21 0106 	bic.w	r1, r1, r6
 80049fe:	6359      	str	r1, [r3, #52]	; 0x34
 8004a00:	6b59      	ldr	r1, [r3, #52]	; 0x34
 8004a02:	fa04 f202 	lsl.w	r2, r4, r2
 8004a06:	430a      	orrs	r2, r1
 8004a08:	635a      	str	r2, [r3, #52]	; 0x34
 8004a0a:	4a2c      	ldr	r2, [pc, #176]	; (8004abc <HAL_ADC_ConfigChannel+0x114>)
 8004a0c:	4293      	cmp	r3, r2
 8004a0e:	d107      	bne.n	8004a20 <HAL_ADC_ConfigChannel+0x78>
 8004a10:	2d12      	cmp	r5, #18
 8004a12:	d139      	bne.n	8004a88 <HAL_ADC_ConfigChannel+0xe0>
 8004a14:	f8d2 3304 	ldr.w	r3, [r2, #772]	; 0x304
 8004a18:	f443 0380 	orr.w	r3, r3, #4194304	; 0x400000
 8004a1c:	f8c2 3304 	str.w	r3, [r2, #772]	; 0x304
 8004a20:	2300      	movs	r3, #0
 8004a22:	f880 303c 	strb.w	r3, [r0, #60]	; 0x3c
 8004a26:	4618      	mov	r0, r3
 8004a28:	b003      	add	sp, #12
 8004a2a:	bdf0      	pop	{r4, r5, r6, r7, pc}
 8004a2c:	691f      	ldr	r7, [r3, #16]
 8004a2e:	eb05 0245 	add.w	r2, r5, r5, lsl #1
 8004a32:	f04f 0c07 	mov.w	ip, #7
 8004a36:	fa0c fc02 	lsl.w	ip, ip, r2
 8004a3a:	ea27 070c 	bic.w	r7, r7, ip
 8004a3e:	611f      	str	r7, [r3, #16]
 8004a40:	691f      	ldr	r7, [r3, #16]
 8004a42:	fa06 f202 	lsl.w	r2, r6, r2
 8004a46:	433a      	orrs	r2, r7
 8004a48:	611a      	str	r2, [r3, #16]
 8004a4a:	e7cd      	b.n	80049e8 <HAL_ADC_ConfigChannel+0x40>
 8004a4c:	290c      	cmp	r1, #12
 8004a4e:	f04f 011f 	mov.w	r1, #31
 8004a52:	d80b      	bhi.n	8004a6c <HAL_ADC_ConfigChannel+0xc4>
 8004a54:	6b1e      	ldr	r6, [r3, #48]	; 0x30
 8004a56:	3a23      	subs	r2, #35	; 0x23
 8004a58:	4091      	lsls	r1, r2
 8004a5a:	ea26 0101 	bic.w	r1, r6, r1
 8004a5e:	6319      	str	r1, [r3, #48]	; 0x30
 8004a60:	6b19      	ldr	r1, [r3, #48]	; 0x30
 8004a62:	fa04 f202 	lsl.w	r2, r4, r2
 8004a66:	430a      	orrs	r2, r1
 8004a68:	631a      	str	r2, [r3, #48]	; 0x30
 8004a6a:	e7ce      	b.n	8004a0a <HAL_ADC_ConfigChannel+0x62>
 8004a6c:	6ade      	ldr	r6, [r3, #44]	; 0x2c
 8004a6e:	3a41      	subs	r2, #65	; 0x41
 8004a70:	4091      	lsls	r1, r2
 8004a72:	ea26 0101 	bic.w	r1, r6, r1
 8004a76:	62d9      	str	r1, [r3, #44]	; 0x2c
 8004a78:	6ad9      	ldr	r1, [r3, #44]	; 0x2c
 8004a7a:	fa04 f202 	lsl.w	r2, r4, r2
 8004a7e:	430a      	orrs	r2, r1
 8004a80:	62da      	str	r2, [r3, #44]	; 0x2c
 8004a82:	e7c2      	b.n	8004a0a <HAL_ADC_ConfigChannel+0x62>
 8004a84:	2002      	movs	r0, #2
 8004a86:	e7cf      	b.n	8004a28 <HAL_ADC_ConfigChannel+0x80>
 8004a88:	f1a5 0310 	sub.w	r3, r5, #16
 8004a8c:	2b01      	cmp	r3, #1
 8004a8e:	d8c7      	bhi.n	8004a20 <HAL_ADC_ConfigChannel+0x78>
 8004a90:	4a0b      	ldr	r2, [pc, #44]	; (8004ac0 <HAL_ADC_ConfigChannel+0x118>)
 8004a92:	6853      	ldr	r3, [r2, #4]
 8004a94:	2d10      	cmp	r5, #16
 8004a96:	f443 0300 	orr.w	r3, r3, #8388608	; 0x800000
 8004a9a:	6053      	str	r3, [r2, #4]
 8004a9c:	d1c0      	bne.n	8004a20 <HAL_ADC_ConfigChannel+0x78>
 8004a9e:	4b09      	ldr	r3, [pc, #36]	; (8004ac4 <HAL_ADC_ConfigChannel+0x11c>)
 8004aa0:	4a09      	ldr	r2, [pc, #36]	; (8004ac8 <HAL_ADC_ConfigChannel+0x120>)
 8004aa2:	681b      	ldr	r3, [r3, #0]
 8004aa4:	fbb3 f3f2 	udiv	r3, r3, r2
 8004aa8:	220a      	movs	r2, #10
 8004aaa:	4353      	muls	r3, r2
 8004aac:	9301      	str	r3, [sp, #4]
 8004aae:	9b01      	ldr	r3, [sp, #4]
 8004ab0:	2b00      	cmp	r3, #0
 8004ab2:	d0b5      	beq.n	8004a20 <HAL_ADC_ConfigChannel+0x78>
 8004ab4:	9b01      	ldr	r3, [sp, #4]
 8004ab6:	3b01      	subs	r3, #1
 8004ab8:	e7f8      	b.n	8004aac <HAL_ADC_ConfigChannel+0x104>
 8004aba:	bf00      	nop
 8004abc:	40012000 	.word	0x40012000
 8004ac0:	40012300 	.word	0x40012300
 8004ac4:	200000c0 	.word	0x200000c0
 8004ac8:	000f4240 	.word	0x000f4240

08004acc <HAL_NVIC_SetPriorityGrouping>:
 8004acc:	4907      	ldr	r1, [pc, #28]	; (8004aec <HAL_NVIC_SetPriorityGrouping+0x20>)
 8004ace:	68ca      	ldr	r2, [r1, #12]
 8004ad0:	f422 62e0 	bic.w	r2, r2, #1792	; 0x700
 8004ad4:	0203      	lsls	r3, r0, #8
 8004ad6:	0412      	lsls	r2, r2, #16
 8004ad8:	f403 63e0 	and.w	r3, r3, #1792	; 0x700
 8004adc:	0c12      	lsrs	r2, r2, #16
 8004ade:	4313      	orrs	r3, r2
 8004ae0:	f043 63bf 	orr.w	r3, r3, #100139008	; 0x5f80000
 8004ae4:	f443 3300 	orr.w	r3, r3, #131072	; 0x20000
 8004ae8:	60cb      	str	r3, [r1, #12]
 8004aea:	4770      	bx	lr
 8004aec:	e000ed00 	.word	0xe000ed00

08004af0 <HAL_NVIC_SetPriority>:
 8004af0:	4b16      	ldr	r3, [pc, #88]	; (8004b4c <HAL_NVIC_SetPriority+0x5c>)
 8004af2:	b530      	push	{r4, r5, lr}
 8004af4:	68dc      	ldr	r4, [r3, #12]
 8004af6:	f3c4 2402 	ubfx	r4, r4, #8, #3
 8004afa:	f1c4 0507 	rsb	r5, r4, #7
 8004afe:	1d23      	adds	r3, r4, #4
 8004b00:	2d04      	cmp	r5, #4
 8004b02:	bf28      	it	cs
 8004b04:	2504      	movcs	r5, #4
 8004b06:	2b06      	cmp	r3, #6
 8004b08:	f04f 33ff 	mov.w	r3, #4294967295	; 0xffffffff
 8004b0c:	bf8c      	ite	hi
 8004b0e:	3c03      	subhi	r4, #3
 8004b10:	2400      	movls	r4, #0
 8004b12:	fa03 f505 	lsl.w	r5, r3, r5
 8004b16:	ea21 0105 	bic.w	r1, r1, r5
 8004b1a:	40a3      	lsls	r3, r4
 8004b1c:	ea22 0203 	bic.w	r2, r2, r3
 8004b20:	40a1      	lsls	r1, r4
 8004b22:	2800      	cmp	r0, #0
 8004b24:	ea41 0302 	orr.w	r3, r1, r2
 8004b28:	bfac      	ite	ge
 8004b2a:	f100 4060 	addge.w	r0, r0, #3758096384	; 0xe0000000
 8004b2e:	4a08      	ldrlt	r2, [pc, #32]	; (8004b50 <HAL_NVIC_SetPriority+0x60>)
 8004b30:	ea4f 1303 	mov.w	r3, r3, lsl #4
 8004b34:	bfb8      	it	lt
 8004b36:	f000 000f 	andlt.w	r0, r0, #15
 8004b3a:	b2db      	uxtb	r3, r3
 8004b3c:	bfaa      	itet	ge
 8004b3e:	f500 4061 	addge.w	r0, r0, #57600	; 0xe100
 8004b42:	5413      	strblt	r3, [r2, r0]
 8004b44:	f880 3300 	strbge.w	r3, [r0, #768]	; 0x300
 8004b48:	bd30      	pop	{r4, r5, pc}
 8004b4a:	bf00      	nop
 8004b4c:	e000ed00 	.word	0xe000ed00
 8004b50:	e000ed14 	.word	0xe000ed14

08004b54 <HAL_NVIC_EnableIRQ>:
 8004b54:	0942      	lsrs	r2, r0, #5
 8004b56:	2301      	movs	r3, #1
 8004b58:	f000 001f 	and.w	r0, r0, #31
 8004b5c:	fa03 f000 	lsl.w	r0, r3, r0
 8004b60:	4b01      	ldr	r3, [pc, #4]	; (8004b68 <HAL_NVIC_EnableIRQ+0x14>)
 8004b62:	f843 0022 	str.w	r0, [r3, r2, lsl #2]
 8004b66:	4770      	bx	lr
 8004b68:	e000e100 	.word	0xe000e100

08004b6c <HAL_SYSTICK_Config>:
 8004b6c:	3801      	subs	r0, #1
 8004b6e:	f1b0 7f80 	cmp.w	r0, #16777216	; 0x1000000
 8004b72:	d20b      	bcs.n	8004b8c <HAL_SYSTICK_Config+0x20>
 8004b74:	f04f 23e0 	mov.w	r3, #3758153728	; 0xe000e000
 8004b78:	4a05      	ldr	r2, [pc, #20]	; (8004b90 <HAL_SYSTICK_Config+0x24>)
 8004b7a:	6158      	str	r0, [r3, #20]
 8004b7c:	21f0      	movs	r1, #240	; 0xf0
 8004b7e:	f882 1023 	strb.w	r1, [r2, #35]	; 0x23
 8004b82:	2000      	movs	r0, #0
 8004b84:	2207      	movs	r2, #7
 8004b86:	6198      	str	r0, [r3, #24]
 8004b88:	611a      	str	r2, [r3, #16]
 8004b8a:	4770      	bx	lr
 8004b8c:	2001      	movs	r0, #1
 8004b8e:	4770      	bx	lr
 8004b90:	e000ed00 	.word	0xe000ed00

08004b94 <HAL_DCMI_Init>:
 8004b94:	b538      	push	{r3, r4, r5, lr}
 8004b96:	4604      	mov	r4, r0
 8004b98:	2800      	cmp	r0, #0
 8004b9a:	d033      	beq.n	8004c04 <HAL_DCMI_Init+0x70>
 8004b9c:	f890 3025 	ldrb.w	r3, [r0, #37]	; 0x25
 8004ba0:	f003 02ff 	and.w	r2, r3, #255	; 0xff
 8004ba4:	b933      	cbnz	r3, 8004bb4 <HAL_DCMI_Init+0x20>
 8004ba6:	f880 2024 	strb.w	r2, [r0, #36]	; 0x24
 8004baa:	f7ff f94d 	bl	8003e48 <HAL_DCMI_MspInit>
 8004bae:	4620      	mov	r0, r4
 8004bb0:	f7ff f94a 	bl	8003e48 <HAL_DCMI_MspInit>
 8004bb4:	6822      	ldr	r2, [r4, #0]
 8004bb6:	6861      	ldr	r1, [r4, #4]
 8004bb8:	68e5      	ldr	r5, [r4, #12]
 8004bba:	2302      	movs	r3, #2
 8004bbc:	f884 3025 	strb.w	r3, [r4, #37]	; 0x25
 8004bc0:	6813      	ldr	r3, [r2, #0]
 8004bc2:	f423 637f 	bic.w	r3, r3, #4080	; 0xff0
 8004bc6:	f023 0308 	bic.w	r3, r3, #8
 8004bca:	6013      	str	r3, [r2, #0]
 8004bcc:	6963      	ldr	r3, [r4, #20]
 8004bce:	6810      	ldr	r0, [r2, #0]
 8004bd0:	430b      	orrs	r3, r1
 8004bd2:	432b      	orrs	r3, r5
 8004bd4:	6925      	ldr	r5, [r4, #16]
 8004bd6:	432b      	orrs	r3, r5
 8004bd8:	68a5      	ldr	r5, [r4, #8]
 8004bda:	432b      	orrs	r3, r5
 8004bdc:	69a5      	ldr	r5, [r4, #24]
 8004bde:	432b      	orrs	r3, r5
 8004be0:	6a25      	ldr	r5, [r4, #32]
 8004be2:	432b      	orrs	r3, r5
 8004be4:	4303      	orrs	r3, r0
 8004be6:	6013      	str	r3, [r2, #0]
 8004be8:	2910      	cmp	r1, #16
 8004bea:	bf04      	itt	eq
 8004bec:	69e3      	ldreq	r3, [r4, #28]
 8004bee:	6193      	streq	r3, [r2, #24]
 8004bf0:	68d3      	ldr	r3, [r2, #12]
 8004bf2:	f043 031e 	orr.w	r3, r3, #30
 8004bf6:	60d3      	str	r3, [r2, #12]
 8004bf8:	2000      	movs	r0, #0
 8004bfa:	2301      	movs	r3, #1
 8004bfc:	63e0      	str	r0, [r4, #60]	; 0x3c
 8004bfe:	f884 3025 	strb.w	r3, [r4, #37]	; 0x25
 8004c02:	bd38      	pop	{r3, r4, r5, pc}
 8004c04:	2001      	movs	r0, #1
 8004c06:	e7fc      	b.n	8004c02 <HAL_DCMI_Init+0x6e>

08004c08 <DMA_CalcBaseAndBitshift>:
 8004c08:	6803      	ldr	r3, [r0, #0]
 8004c0a:	b510      	push	{r4, lr}
 8004c0c:	4c08      	ldr	r4, [pc, #32]	; (8004c30 <DMA_CalcBaseAndBitshift+0x28>)
 8004c0e:	4602      	mov	r2, r0
 8004c10:	b2d9      	uxtb	r1, r3
 8004c12:	3910      	subs	r1, #16
 8004c14:	2018      	movs	r0, #24
 8004c16:	fbb1 f0f0 	udiv	r0, r1, r0
 8004c1a:	5c20      	ldrb	r0, [r4, r0]
 8004c1c:	65d0      	str	r0, [r2, #92]	; 0x5c
 8004c1e:	f423 707f 	bic.w	r0, r3, #1020	; 0x3fc
 8004c22:	f020 0003 	bic.w	r0, r0, #3
 8004c26:	295f      	cmp	r1, #95	; 0x5f
 8004c28:	bf88      	it	hi
 8004c2a:	3004      	addhi	r0, #4
 8004c2c:	6590      	str	r0, [r2, #88]	; 0x58
 8004c2e:	bd10      	pop	{r4, pc}
 8004c30:	0800b564 	.word	0x0800b564

08004c34 <HAL_DMA_Init>:
 8004c34:	b570      	push	{r4, r5, r6, lr}
 8004c36:	4604      	mov	r4, r0
 8004c38:	f7ff fd04 	bl	8004644 <HAL_GetTick>
 8004c3c:	4605      	mov	r5, r0
 8004c3e:	2c00      	cmp	r4, #0
 8004c40:	d073      	beq.n	8004d2a <HAL_DMA_Init+0xf6>
 8004c42:	2302      	movs	r3, #2
 8004c44:	f884 3035 	strb.w	r3, [r4, #53]	; 0x35
 8004c48:	6822      	ldr	r2, [r4, #0]
 8004c4a:	2300      	movs	r3, #0
 8004c4c:	f884 3034 	strb.w	r3, [r4, #52]	; 0x34
 8004c50:	6813      	ldr	r3, [r2, #0]
 8004c52:	f023 0301 	bic.w	r3, r3, #1
 8004c56:	6013      	str	r3, [r2, #0]
 8004c58:	6821      	ldr	r1, [r4, #0]
 8004c5a:	680b      	ldr	r3, [r1, #0]
 8004c5c:	07d8      	lsls	r0, r3, #31
 8004c5e:	d42f      	bmi.n	8004cc0 <HAL_DMA_Init+0x8c>
 8004c60:	680b      	ldr	r3, [r1, #0]
 8004c62:	4d33      	ldr	r5, [pc, #204]	; (8004d30 <HAL_DMA_Init+0xfc>)
 8004c64:	69a0      	ldr	r0, [r4, #24]
 8004c66:	401d      	ands	r5, r3
 8004c68:	e9d4 2301 	ldrd	r2, r3, [r4, #4]
 8004c6c:	4313      	orrs	r3, r2
 8004c6e:	68e2      	ldr	r2, [r4, #12]
 8004c70:	4313      	orrs	r3, r2
 8004c72:	6922      	ldr	r2, [r4, #16]
 8004c74:	4313      	orrs	r3, r2
 8004c76:	6962      	ldr	r2, [r4, #20]
 8004c78:	4313      	orrs	r3, r2
 8004c7a:	69e2      	ldr	r2, [r4, #28]
 8004c7c:	4303      	orrs	r3, r0
 8004c7e:	4313      	orrs	r3, r2
 8004c80:	6a22      	ldr	r2, [r4, #32]
 8004c82:	4313      	orrs	r3, r2
 8004c84:	6a62      	ldr	r2, [r4, #36]	; 0x24
 8004c86:	2a04      	cmp	r2, #4
 8004c88:	ea43 0305 	orr.w	r3, r3, r5
 8004c8c:	bf02      	ittt	eq
 8004c8e:	e9d4 560b 	ldrdeq	r5, r6, [r4, #44]	; 0x2c
 8004c92:	4335      	orreq	r5, r6
 8004c94:	432b      	orreq	r3, r5
 8004c96:	600b      	str	r3, [r1, #0]
 8004c98:	694b      	ldr	r3, [r1, #20]
 8004c9a:	2a04      	cmp	r2, #4
 8004c9c:	f023 0307 	bic.w	r3, r3, #7
 8004ca0:	ea43 0302 	orr.w	r3, r3, r2
 8004ca4:	d133      	bne.n	8004d0e <HAL_DMA_Init+0xda>
 8004ca6:	6aa2      	ldr	r2, [r4, #40]	; 0x28
 8004ca8:	6ae5      	ldr	r5, [r4, #44]	; 0x2c
 8004caa:	4313      	orrs	r3, r2
 8004cac:	b37d      	cbz	r5, 8004d0e <HAL_DMA_Init+0xda>
 8004cae:	b990      	cbnz	r0, 8004cd6 <HAL_DMA_Init+0xa2>
 8004cb0:	2a01      	cmp	r2, #1
 8004cb2:	d021      	beq.n	8004cf8 <HAL_DMA_Init+0xc4>
 8004cb4:	f032 0202 	bics.w	r2, r2, #2
 8004cb8:	d129      	bne.n	8004d0e <HAL_DMA_Init+0xda>
 8004cba:	01ea      	lsls	r2, r5, #7
 8004cbc:	d527      	bpl.n	8004d0e <HAL_DMA_Init+0xda>
 8004cbe:	e01e      	b.n	8004cfe <HAL_DMA_Init+0xca>
 8004cc0:	f7ff fcc0 	bl	8004644 <HAL_GetTick>
 8004cc4:	1b40      	subs	r0, r0, r5
 8004cc6:	2805      	cmp	r0, #5
 8004cc8:	d9c6      	bls.n	8004c58 <HAL_DMA_Init+0x24>
 8004cca:	2320      	movs	r3, #32
 8004ccc:	6563      	str	r3, [r4, #84]	; 0x54
 8004cce:	2003      	movs	r0, #3
 8004cd0:	f884 0035 	strb.w	r0, [r4, #53]	; 0x35
 8004cd4:	bd70      	pop	{r4, r5, r6, pc}
 8004cd6:	f5b0 5f00 	cmp.w	r0, #8192	; 0x2000
 8004cda:	d114      	bne.n	8004d06 <HAL_DMA_Init+0xd2>
 8004cdc:	2a03      	cmp	r2, #3
 8004cde:	d816      	bhi.n	8004d0e <HAL_DMA_Init+0xda>
 8004ce0:	a001      	add	r0, pc, #4	; (adr r0, 8004ce8 <HAL_DMA_Init+0xb4>)
 8004ce2:	f850 f022 	ldr.w	pc, [r0, r2, lsl #2]
 8004ce6:	bf00      	nop
 8004ce8:	08004cff 	.word	0x08004cff
 8004cec:	08004cbb 	.word	0x08004cbb
 8004cf0:	08004cff 	.word	0x08004cff
 8004cf4:	08004cf9 	.word	0x08004cf9
 8004cf8:	f1b5 7fc0 	cmp.w	r5, #25165824	; 0x1800000
 8004cfc:	d107      	bne.n	8004d0e <HAL_DMA_Init+0xda>
 8004cfe:	2340      	movs	r3, #64	; 0x40
 8004d00:	6563      	str	r3, [r4, #84]	; 0x54
 8004d02:	2001      	movs	r0, #1
 8004d04:	e7e4      	b.n	8004cd0 <HAL_DMA_Init+0x9c>
 8004d06:	2a02      	cmp	r2, #2
 8004d08:	d9f9      	bls.n	8004cfe <HAL_DMA_Init+0xca>
 8004d0a:	2a03      	cmp	r2, #3
 8004d0c:	d0d5      	beq.n	8004cba <HAL_DMA_Init+0x86>
 8004d0e:	614b      	str	r3, [r1, #20]
 8004d10:	4620      	mov	r0, r4
 8004d12:	f7ff ff79 	bl	8004c08 <DMA_CalcBaseAndBitshift>
 8004d16:	6de2      	ldr	r2, [r4, #92]	; 0x5c
 8004d18:	233f      	movs	r3, #63	; 0x3f
 8004d1a:	4093      	lsls	r3, r2
 8004d1c:	6083      	str	r3, [r0, #8]
 8004d1e:	2000      	movs	r0, #0
 8004d20:	2301      	movs	r3, #1
 8004d22:	6560      	str	r0, [r4, #84]	; 0x54
 8004d24:	f884 3035 	strb.w	r3, [r4, #53]	; 0x35
 8004d28:	e7d4      	b.n	8004cd4 <HAL_DMA_Init+0xa0>
 8004d2a:	2001      	movs	r0, #1
 8004d2c:	e7d2      	b.n	8004cd4 <HAL_DMA_Init+0xa0>
 8004d2e:	bf00      	nop
 8004d30:	f010803f 	.word	0xf010803f

08004d34 <HAL_DMA_Start_IT>:
 8004d34:	b570      	push	{r4, r5, r6, lr}
 8004d36:	f890 4034 	ldrb.w	r4, [r0, #52]	; 0x34
 8004d3a:	6d86      	ldr	r6, [r0, #88]	; 0x58
 8004d3c:	2c01      	cmp	r4, #1
 8004d3e:	d031      	beq.n	8004da4 <HAL_DMA_Start_IT+0x70>
 8004d40:	2401      	movs	r4, #1
 8004d42:	f880 4034 	strb.w	r4, [r0, #52]	; 0x34
 8004d46:	f890 4035 	ldrb.w	r4, [r0, #53]	; 0x35
 8004d4a:	2c01      	cmp	r4, #1
 8004d4c:	f04f 0500 	mov.w	r5, #0
 8004d50:	f04f 0402 	mov.w	r4, #2
 8004d54:	d124      	bne.n	8004da0 <HAL_DMA_Start_IT+0x6c>
 8004d56:	f880 4035 	strb.w	r4, [r0, #53]	; 0x35
 8004d5a:	6804      	ldr	r4, [r0, #0]
 8004d5c:	6545      	str	r5, [r0, #84]	; 0x54
 8004d5e:	6825      	ldr	r5, [r4, #0]
 8004d60:	f425 2580 	bic.w	r5, r5, #262144	; 0x40000
 8004d64:	6025      	str	r5, [r4, #0]
 8004d66:	6063      	str	r3, [r4, #4]
 8004d68:	6883      	ldr	r3, [r0, #8]
 8004d6a:	2b40      	cmp	r3, #64	; 0x40
 8004d6c:	bf0e      	itee	eq
 8004d6e:	60a2      	streq	r2, [r4, #8]
 8004d70:	60a1      	strne	r1, [r4, #8]
 8004d72:	60e2      	strne	r2, [r4, #12]
 8004d74:	6dc2      	ldr	r2, [r0, #92]	; 0x5c
 8004d76:	bf08      	it	eq
 8004d78:	60e1      	streq	r1, [r4, #12]
 8004d7a:	233f      	movs	r3, #63	; 0x3f
 8004d7c:	4093      	lsls	r3, r2
 8004d7e:	60b3      	str	r3, [r6, #8]
 8004d80:	6823      	ldr	r3, [r4, #0]
 8004d82:	f043 0316 	orr.w	r3, r3, #22
 8004d86:	6023      	str	r3, [r4, #0]
 8004d88:	6c03      	ldr	r3, [r0, #64]	; 0x40
 8004d8a:	b11b      	cbz	r3, 8004d94 <HAL_DMA_Start_IT+0x60>
 8004d8c:	6823      	ldr	r3, [r4, #0]
 8004d8e:	f043 0308 	orr.w	r3, r3, #8
 8004d92:	6023      	str	r3, [r4, #0]
 8004d94:	6823      	ldr	r3, [r4, #0]
 8004d96:	f043 0301 	orr.w	r3, r3, #1
 8004d9a:	6023      	str	r3, [r4, #0]
 8004d9c:	2000      	movs	r0, #0
 8004d9e:	bd70      	pop	{r4, r5, r6, pc}
 8004da0:	f880 5034 	strb.w	r5, [r0, #52]	; 0x34
 8004da4:	2002      	movs	r0, #2
 8004da6:	e7fa      	b.n	8004d9e <HAL_DMA_Start_IT+0x6a>

08004da8 <HAL_DMA_IRQHandler>:
 8004da8:	b5f7      	push	{r0, r1, r2, r4, r5, r6, r7, lr}
 8004daa:	2300      	movs	r3, #0
 8004dac:	9301      	str	r3, [sp, #4]
 8004dae:	4b5c      	ldr	r3, [pc, #368]	; (8004f20 <HAL_DMA_IRQHandler+0x178>)
 8004db0:	6d85      	ldr	r5, [r0, #88]	; 0x58
 8004db2:	681f      	ldr	r7, [r3, #0]
 8004db4:	6dc3      	ldr	r3, [r0, #92]	; 0x5c
 8004db6:	682e      	ldr	r6, [r5, #0]
 8004db8:	2208      	movs	r2, #8
 8004dba:	409a      	lsls	r2, r3
 8004dbc:	4232      	tst	r2, r6
 8004dbe:	4604      	mov	r4, r0
 8004dc0:	d00c      	beq.n	8004ddc <HAL_DMA_IRQHandler+0x34>
 8004dc2:	6801      	ldr	r1, [r0, #0]
 8004dc4:	6808      	ldr	r0, [r1, #0]
 8004dc6:	0740      	lsls	r0, r0, #29
 8004dc8:	d508      	bpl.n	8004ddc <HAL_DMA_IRQHandler+0x34>
 8004dca:	6808      	ldr	r0, [r1, #0]
 8004dcc:	f020 0004 	bic.w	r0, r0, #4
 8004dd0:	6008      	str	r0, [r1, #0]
 8004dd2:	60aa      	str	r2, [r5, #8]
 8004dd4:	6d62      	ldr	r2, [r4, #84]	; 0x54
 8004dd6:	f042 0201 	orr.w	r2, r2, #1
 8004dda:	6562      	str	r2, [r4, #84]	; 0x54
 8004ddc:	2201      	movs	r2, #1
 8004dde:	409a      	lsls	r2, r3
 8004de0:	4232      	tst	r2, r6
 8004de2:	d008      	beq.n	8004df6 <HAL_DMA_IRQHandler+0x4e>
 8004de4:	6821      	ldr	r1, [r4, #0]
 8004de6:	6949      	ldr	r1, [r1, #20]
 8004de8:	0609      	lsls	r1, r1, #24
 8004dea:	bf41      	itttt	mi
 8004dec:	60aa      	strmi	r2, [r5, #8]
 8004dee:	6d62      	ldrmi	r2, [r4, #84]	; 0x54
 8004df0:	f042 0202 	orrmi.w	r2, r2, #2
 8004df4:	6562      	strmi	r2, [r4, #84]	; 0x54
 8004df6:	2204      	movs	r2, #4
 8004df8:	409a      	lsls	r2, r3
 8004dfa:	4232      	tst	r2, r6
 8004dfc:	d008      	beq.n	8004e10 <HAL_DMA_IRQHandler+0x68>
 8004dfe:	6821      	ldr	r1, [r4, #0]
 8004e00:	6809      	ldr	r1, [r1, #0]
 8004e02:	0788      	lsls	r0, r1, #30
 8004e04:	bf41      	itttt	mi
 8004e06:	60aa      	strmi	r2, [r5, #8]
 8004e08:	6d62      	ldrmi	r2, [r4, #84]	; 0x54
 8004e0a:	f042 0204 	orrmi.w	r2, r2, #4
 8004e0e:	6562      	strmi	r2, [r4, #84]	; 0x54
 8004e10:	2210      	movs	r2, #16
 8004e12:	409a      	lsls	r2, r3
 8004e14:	4232      	tst	r2, r6
 8004e16:	d010      	beq.n	8004e3a <HAL_DMA_IRQHandler+0x92>
 8004e18:	6823      	ldr	r3, [r4, #0]
 8004e1a:	6819      	ldr	r1, [r3, #0]
 8004e1c:	0709      	lsls	r1, r1, #28
 8004e1e:	d50c      	bpl.n	8004e3a <HAL_DMA_IRQHandler+0x92>
 8004e20:	60aa      	str	r2, [r5, #8]
 8004e22:	681a      	ldr	r2, [r3, #0]
 8004e24:	0350      	lsls	r0, r2, #13
 8004e26:	d537      	bpl.n	8004e98 <HAL_DMA_IRQHandler+0xf0>
 8004e28:	681b      	ldr	r3, [r3, #0]
 8004e2a:	0319      	lsls	r1, r3, #12
 8004e2c:	d401      	bmi.n	8004e32 <HAL_DMA_IRQHandler+0x8a>
 8004e2e:	6c23      	ldr	r3, [r4, #64]	; 0x40
 8004e30:	e000      	b.n	8004e34 <HAL_DMA_IRQHandler+0x8c>
 8004e32:	6ca3      	ldr	r3, [r4, #72]	; 0x48
 8004e34:	b10b      	cbz	r3, 8004e3a <HAL_DMA_IRQHandler+0x92>
 8004e36:	4620      	mov	r0, r4
 8004e38:	4798      	blx	r3
 8004e3a:	6de1      	ldr	r1, [r4, #92]	; 0x5c
 8004e3c:	2220      	movs	r2, #32
 8004e3e:	408a      	lsls	r2, r1
 8004e40:	4232      	tst	r2, r6
 8004e42:	d03a      	beq.n	8004eba <HAL_DMA_IRQHandler+0x112>
 8004e44:	6823      	ldr	r3, [r4, #0]
 8004e46:	6818      	ldr	r0, [r3, #0]
 8004e48:	06c6      	lsls	r6, r0, #27
 8004e4a:	d536      	bpl.n	8004eba <HAL_DMA_IRQHandler+0x112>
 8004e4c:	60aa      	str	r2, [r5, #8]
 8004e4e:	f894 2035 	ldrb.w	r2, [r4, #53]	; 0x35
 8004e52:	2a05      	cmp	r2, #5
 8004e54:	681a      	ldr	r2, [r3, #0]
 8004e56:	d127      	bne.n	8004ea8 <HAL_DMA_IRQHandler+0x100>
 8004e58:	f022 0216 	bic.w	r2, r2, #22
 8004e5c:	601a      	str	r2, [r3, #0]
 8004e5e:	695a      	ldr	r2, [r3, #20]
 8004e60:	f022 0280 	bic.w	r2, r2, #128	; 0x80
 8004e64:	615a      	str	r2, [r3, #20]
 8004e66:	6c22      	ldr	r2, [r4, #64]	; 0x40
 8004e68:	b90a      	cbnz	r2, 8004e6e <HAL_DMA_IRQHandler+0xc6>
 8004e6a:	6ca2      	ldr	r2, [r4, #72]	; 0x48
 8004e6c:	b11a      	cbz	r2, 8004e76 <HAL_DMA_IRQHandler+0xce>
 8004e6e:	681a      	ldr	r2, [r3, #0]
 8004e70:	f022 0208 	bic.w	r2, r2, #8
 8004e74:	601a      	str	r2, [r3, #0]
 8004e76:	233f      	movs	r3, #63	; 0x3f
 8004e78:	408b      	lsls	r3, r1
 8004e7a:	60ab      	str	r3, [r5, #8]
 8004e7c:	2301      	movs	r3, #1
 8004e7e:	f884 3035 	strb.w	r3, [r4, #53]	; 0x35
 8004e82:	2300      	movs	r3, #0
 8004e84:	f884 3034 	strb.w	r3, [r4, #52]	; 0x34
 8004e88:	6d23      	ldr	r3, [r4, #80]	; 0x50
 8004e8a:	2b00      	cmp	r3, #0
 8004e8c:	d045      	beq.n	8004f1a <HAL_DMA_IRQHandler+0x172>
 8004e8e:	4620      	mov	r0, r4
 8004e90:	b003      	add	sp, #12
 8004e92:	e8bd 40f0 	ldmia.w	sp!, {r4, r5, r6, r7, lr}
 8004e96:	4718      	bx	r3
 8004e98:	681a      	ldr	r2, [r3, #0]
 8004e9a:	05d2      	lsls	r2, r2, #23
 8004e9c:	bf5e      	ittt	pl
 8004e9e:	681a      	ldrpl	r2, [r3, #0]
 8004ea0:	f022 0208 	bicpl.w	r2, r2, #8
 8004ea4:	601a      	strpl	r2, [r3, #0]
 8004ea6:	e7c2      	b.n	8004e2e <HAL_DMA_IRQHandler+0x86>
 8004ea8:	0350      	lsls	r0, r2, #13
 8004eaa:	d527      	bpl.n	8004efc <HAL_DMA_IRQHandler+0x154>
 8004eac:	681b      	ldr	r3, [r3, #0]
 8004eae:	0319      	lsls	r1, r3, #12
 8004eb0:	d431      	bmi.n	8004f16 <HAL_DMA_IRQHandler+0x16e>
 8004eb2:	6c63      	ldr	r3, [r4, #68]	; 0x44
 8004eb4:	b10b      	cbz	r3, 8004eba <HAL_DMA_IRQHandler+0x112>
 8004eb6:	4620      	mov	r0, r4
 8004eb8:	4798      	blx	r3
 8004eba:	6d63      	ldr	r3, [r4, #84]	; 0x54
 8004ebc:	b36b      	cbz	r3, 8004f1a <HAL_DMA_IRQHandler+0x172>
 8004ebe:	6d63      	ldr	r3, [r4, #84]	; 0x54
 8004ec0:	07da      	lsls	r2, r3, #31
 8004ec2:	d519      	bpl.n	8004ef8 <HAL_DMA_IRQHandler+0x150>
 8004ec4:	6822      	ldr	r2, [r4, #0]
 8004ec6:	f44f 5316 	mov.w	r3, #9600	; 0x2580
 8004eca:	fbb7 f7f3 	udiv	r7, r7, r3
 8004ece:	2305      	movs	r3, #5
 8004ed0:	f884 3035 	strb.w	r3, [r4, #53]	; 0x35
 8004ed4:	6813      	ldr	r3, [r2, #0]
 8004ed6:	f023 0301 	bic.w	r3, r3, #1
 8004eda:	6013      	str	r3, [r2, #0]
 8004edc:	9b01      	ldr	r3, [sp, #4]
 8004ede:	3301      	adds	r3, #1
 8004ee0:	42bb      	cmp	r3, r7
 8004ee2:	9301      	str	r3, [sp, #4]
 8004ee4:	d802      	bhi.n	8004eec <HAL_DMA_IRQHandler+0x144>
 8004ee6:	6813      	ldr	r3, [r2, #0]
 8004ee8:	07db      	lsls	r3, r3, #31
 8004eea:	d4f7      	bmi.n	8004edc <HAL_DMA_IRQHandler+0x134>
 8004eec:	2301      	movs	r3, #1
 8004eee:	f884 3035 	strb.w	r3, [r4, #53]	; 0x35
 8004ef2:	2300      	movs	r3, #0
 8004ef4:	f884 3034 	strb.w	r3, [r4, #52]	; 0x34
 8004ef8:	6ce3      	ldr	r3, [r4, #76]	; 0x4c
 8004efa:	e7c6      	b.n	8004e8a <HAL_DMA_IRQHandler+0xe2>
 8004efc:	681a      	ldr	r2, [r3, #0]
 8004efe:	f412 7280 	ands.w	r2, r2, #256	; 0x100
 8004f02:	d108      	bne.n	8004f16 <HAL_DMA_IRQHandler+0x16e>
 8004f04:	6819      	ldr	r1, [r3, #0]
 8004f06:	f021 0110 	bic.w	r1, r1, #16
 8004f0a:	6019      	str	r1, [r3, #0]
 8004f0c:	2301      	movs	r3, #1
 8004f0e:	f884 3035 	strb.w	r3, [r4, #53]	; 0x35
 8004f12:	f884 2034 	strb.w	r2, [r4, #52]	; 0x34
 8004f16:	6be3      	ldr	r3, [r4, #60]	; 0x3c
 8004f18:	e7cc      	b.n	8004eb4 <HAL_DMA_IRQHandler+0x10c>
 8004f1a:	b003      	add	sp, #12
 8004f1c:	bdf0      	pop	{r4, r5, r6, r7, pc}
 8004f1e:	bf00      	nop
 8004f20:	200000c0 	.word	0x200000c0

08004f24 <HAL_GPIO_Init>:
 8004f24:	e92d 4ff7 	stmdb	sp!, {r0, r1, r2, r4, r5, r6, r7, r8, r9, sl, fp, lr}
 8004f28:	f8df 91a8 	ldr.w	r9, [pc, #424]	; 80050d4 <HAL_GPIO_Init+0x1b0>
 8004f2c:	4a67      	ldr	r2, [pc, #412]	; (80050cc <HAL_GPIO_Init+0x1a8>)
 8004f2e:	2300      	movs	r3, #0
 8004f30:	680d      	ldr	r5, [r1, #0]
 8004f32:	2401      	movs	r4, #1
 8004f34:	409c      	lsls	r4, r3
 8004f36:	ea04 0c05 	and.w	ip, r4, r5
 8004f3a:	43ac      	bics	r4, r5
 8004f3c:	f040 80b1 	bne.w	80050a2 <HAL_GPIO_Init+0x17e>
 8004f40:	684d      	ldr	r5, [r1, #4]
 8004f42:	f005 0403 	and.w	r4, r5, #3
 8004f46:	ea4f 0843 	mov.w	r8, r3, lsl #1
 8004f4a:	2603      	movs	r6, #3
 8004f4c:	1e67      	subs	r7, r4, #1
 8004f4e:	fa06 f608 	lsl.w	r6, r6, r8
 8004f52:	2f01      	cmp	r7, #1
 8004f54:	ea6f 0606 	mvn.w	r6, r6
 8004f58:	d834      	bhi.n	8004fc4 <HAL_GPIO_Init+0xa0>
 8004f5a:	6887      	ldr	r7, [r0, #8]
 8004f5c:	ea07 0e06 	and.w	lr, r7, r6
 8004f60:	68cf      	ldr	r7, [r1, #12]
 8004f62:	fa07 f708 	lsl.w	r7, r7, r8
 8004f66:	ea47 070e 	orr.w	r7, r7, lr
 8004f6a:	6087      	str	r7, [r0, #8]
 8004f6c:	6847      	ldr	r7, [r0, #4]
 8004f6e:	ea27 0e0c 	bic.w	lr, r7, ip
 8004f72:	f3c5 1700 	ubfx	r7, r5, #4, #1
 8004f76:	409f      	lsls	r7, r3
 8004f78:	ea47 070e 	orr.w	r7, r7, lr
 8004f7c:	6047      	str	r7, [r0, #4]
 8004f7e:	68c7      	ldr	r7, [r0, #12]
 8004f80:	ea07 0e06 	and.w	lr, r7, r6
 8004f84:	688f      	ldr	r7, [r1, #8]
 8004f86:	fa07 f708 	lsl.w	r7, r7, r8
 8004f8a:	ea47 070e 	orr.w	r7, r7, lr
 8004f8e:	2c02      	cmp	r4, #2
 8004f90:	60c7      	str	r7, [r0, #12]
 8004f92:	d119      	bne.n	8004fc8 <HAL_GPIO_Init+0xa4>
 8004f94:	ea4f 0ad3 	mov.w	sl, r3, lsr #3
 8004f98:	eb00 0a8a 	add.w	sl, r0, sl, lsl #2
 8004f9c:	f003 0b07 	and.w	fp, r3, #7
 8004fa0:	f8da 7020 	ldr.w	r7, [sl, #32]
 8004fa4:	ea4f 0b8b 	mov.w	fp, fp, lsl #2
 8004fa8:	f04f 0e0f 	mov.w	lr, #15
 8004fac:	fa0e fe0b 	lsl.w	lr, lr, fp
 8004fb0:	ea27 0e0e 	bic.w	lr, r7, lr
 8004fb4:	690f      	ldr	r7, [r1, #16]
 8004fb6:	fa07 f70b 	lsl.w	r7, r7, fp
 8004fba:	ea47 070e 	orr.w	r7, r7, lr
 8004fbe:	f8ca 7020 	str.w	r7, [sl, #32]
 8004fc2:	e001      	b.n	8004fc8 <HAL_GPIO_Init+0xa4>
 8004fc4:	2c03      	cmp	r4, #3
 8004fc6:	d1da      	bne.n	8004f7e <HAL_GPIO_Init+0x5a>
 8004fc8:	6807      	ldr	r7, [r0, #0]
 8004fca:	fa04 f408 	lsl.w	r4, r4, r8
 8004fce:	403e      	ands	r6, r7
 8004fd0:	4326      	orrs	r6, r4
 8004fd2:	f415 3f40 	tst.w	r5, #196608	; 0x30000
 8004fd6:	6006      	str	r6, [r0, #0]
 8004fd8:	d063      	beq.n	80050a2 <HAL_GPIO_Init+0x17e>
 8004fda:	f04f 0a00 	mov.w	sl, #0
 8004fde:	f8cd a004 	str.w	sl, [sp, #4]
 8004fe2:	f8d9 6044 	ldr.w	r6, [r9, #68]	; 0x44
 8004fe6:	4c3a      	ldr	r4, [pc, #232]	; (80050d0 <HAL_GPIO_Init+0x1ac>)
 8004fe8:	f446 4680 	orr.w	r6, r6, #16384	; 0x4000
 8004fec:	f8c9 6044 	str.w	r6, [r9, #68]	; 0x44
 8004ff0:	f8d9 6044 	ldr.w	r6, [r9, #68]	; 0x44
 8004ff4:	f406 4680 	and.w	r6, r6, #16384	; 0x4000
 8004ff8:	9601      	str	r6, [sp, #4]
 8004ffa:	9e01      	ldr	r6, [sp, #4]
 8004ffc:	f023 0603 	bic.w	r6, r3, #3
 8005000:	f106 4680 	add.w	r6, r6, #1073741824	; 0x40000000
 8005004:	f506 369c 	add.w	r6, r6, #79872	; 0x13800
 8005008:	f003 0e03 	and.w	lr, r3, #3
 800500c:	f8d6 8008 	ldr.w	r8, [r6, #8]
 8005010:	ea4f 0e8e 	mov.w	lr, lr, lsl #2
 8005014:	270f      	movs	r7, #15
 8005016:	fa07 f70e 	lsl.w	r7, r7, lr
 800501a:	42a0      	cmp	r0, r4
 800501c:	ea28 0707 	bic.w	r7, r8, r7
 8005020:	d046      	beq.n	80050b0 <HAL_GPIO_Init+0x18c>
 8005022:	f504 6480 	add.w	r4, r4, #1024	; 0x400
 8005026:	42a0      	cmp	r0, r4
 8005028:	d044      	beq.n	80050b4 <HAL_GPIO_Init+0x190>
 800502a:	f504 6480 	add.w	r4, r4, #1024	; 0x400
 800502e:	42a0      	cmp	r0, r4
 8005030:	d042      	beq.n	80050b8 <HAL_GPIO_Init+0x194>
 8005032:	f504 6480 	add.w	r4, r4, #1024	; 0x400
 8005036:	42a0      	cmp	r0, r4
 8005038:	d040      	beq.n	80050bc <HAL_GPIO_Init+0x198>
 800503a:	f504 6480 	add.w	r4, r4, #1024	; 0x400
 800503e:	42a0      	cmp	r0, r4
 8005040:	d03e      	beq.n	80050c0 <HAL_GPIO_Init+0x19c>
 8005042:	f504 6480 	add.w	r4, r4, #1024	; 0x400
 8005046:	42a0      	cmp	r0, r4
 8005048:	d03c      	beq.n	80050c4 <HAL_GPIO_Init+0x1a0>
 800504a:	f504 6480 	add.w	r4, r4, #1024	; 0x400
 800504e:	42a0      	cmp	r0, r4
 8005050:	d03a      	beq.n	80050c8 <HAL_GPIO_Init+0x1a4>
 8005052:	f504 6480 	add.w	r4, r4, #1024	; 0x400
 8005056:	42a0      	cmp	r0, r4
 8005058:	bf0c      	ite	eq
 800505a:	2407      	moveq	r4, #7
 800505c:	2408      	movne	r4, #8
 800505e:	fa04 f40e 	lsl.w	r4, r4, lr
 8005062:	433c      	orrs	r4, r7
 8005064:	60b4      	str	r4, [r6, #8]
 8005066:	6894      	ldr	r4, [r2, #8]
 8005068:	ea6f 060c 	mvn.w	r6, ip
 800506c:	02ef      	lsls	r7, r5, #11
 800506e:	bf54      	ite	pl
 8005070:	4034      	andpl	r4, r6
 8005072:	ea4c 0404 	orrmi.w	r4, ip, r4
 8005076:	6094      	str	r4, [r2, #8]
 8005078:	68d4      	ldr	r4, [r2, #12]
 800507a:	02af      	lsls	r7, r5, #10
 800507c:	bf54      	ite	pl
 800507e:	4034      	andpl	r4, r6
 8005080:	ea4c 0404 	orrmi.w	r4, ip, r4
 8005084:	60d4      	str	r4, [r2, #12]
 8005086:	6854      	ldr	r4, [r2, #4]
 8005088:	03af      	lsls	r7, r5, #14
 800508a:	bf54      	ite	pl
 800508c:	4034      	andpl	r4, r6
 800508e:	ea4c 0404 	orrmi.w	r4, ip, r4
 8005092:	6054      	str	r4, [r2, #4]
 8005094:	6814      	ldr	r4, [r2, #0]
 8005096:	03ed      	lsls	r5, r5, #15
 8005098:	bf54      	ite	pl
 800509a:	4034      	andpl	r4, r6
 800509c:	ea4c 0404 	orrmi.w	r4, ip, r4
 80050a0:	6014      	str	r4, [r2, #0]
 80050a2:	3301      	adds	r3, #1
 80050a4:	2b10      	cmp	r3, #16
 80050a6:	f47f af43 	bne.w	8004f30 <HAL_GPIO_Init+0xc>
 80050aa:	b003      	add	sp, #12
 80050ac:	e8bd 8ff0 	ldmia.w	sp!, {r4, r5, r6, r7, r8, r9, sl, fp, pc}
 80050b0:	4654      	mov	r4, sl
 80050b2:	e7d4      	b.n	800505e <HAL_GPIO_Init+0x13a>
 80050b4:	2401      	movs	r4, #1
 80050b6:	e7d2      	b.n	800505e <HAL_GPIO_Init+0x13a>
 80050b8:	2402      	movs	r4, #2
 80050ba:	e7d0      	b.n	800505e <HAL_GPIO_Init+0x13a>
 80050bc:	2403      	movs	r4, #3
 80050be:	e7ce      	b.n	800505e <HAL_GPIO_Init+0x13a>
 80050c0:	2404      	movs	r4, #4
 80050c2:	e7cc      	b.n	800505e <HAL_GPIO_Init+0x13a>
 80050c4:	2405      	movs	r4, #5
 80050c6:	e7ca      	b.n	800505e <HAL_GPIO_Init+0x13a>
 80050c8:	2406      	movs	r4, #6
 80050ca:	e7c8      	b.n	800505e <HAL_GPIO_Init+0x13a>
 80050cc:	40013c00 	.word	0x40013c00
 80050d0:	40020000 	.word	0x40020000
 80050d4:	40023800 	.word	0x40023800

080050d8 <HAL_GPIO_ReadPin>:
 80050d8:	6903      	ldr	r3, [r0, #16]
 80050da:	4219      	tst	r1, r3
 80050dc:	bf14      	ite	ne
 80050de:	2001      	movne	r0, #1
 80050e0:	2000      	moveq	r0, #0
 80050e2:	4770      	bx	lr

080050e4 <HAL_GPIO_WritePin>:
 80050e4:	b10a      	cbz	r2, 80050ea <HAL_GPIO_WritePin+0x6>
 80050e6:	6181      	str	r1, [r0, #24]
 80050e8:	4770      	bx	lr
 80050ea:	0409      	lsls	r1, r1, #16
 80050ec:	e7fb      	b.n	80050e6 <HAL_GPIO_WritePin+0x2>

080050ee <HAL_GPIO_EXTI_Callback>:
 80050ee:	4770      	bx	lr

080050f0 <HAL_GPIO_EXTI_IRQHandler>:
 80050f0:	4a04      	ldr	r2, [pc, #16]	; (8005104 <HAL_GPIO_EXTI_IRQHandler+0x14>)
 80050f2:	6951      	ldr	r1, [r2, #20]
 80050f4:	4201      	tst	r1, r0
 80050f6:	b508      	push	{r3, lr}
 80050f8:	d002      	beq.n	8005100 <HAL_GPIO_EXTI_IRQHandler+0x10>
 80050fa:	6150      	str	r0, [r2, #20]
 80050fc:	f7ff fff7 	bl	80050ee <HAL_GPIO_EXTI_Callback>
 8005100:	bd08      	pop	{r3, pc}
 8005102:	bf00      	nop
 8005104:	40013c00 	.word	0x40013c00

08005108 <I2C_IsAcknowledgeFailed>:
 8005108:	6801      	ldr	r1, [r0, #0]
 800510a:	694b      	ldr	r3, [r1, #20]
 800510c:	f413 6380 	ands.w	r3, r3, #1024	; 0x400
 8005110:	f04f 0200 	mov.w	r2, #0
 8005114:	d010      	beq.n	8005138 <I2C_IsAcknowledgeFailed+0x30>
 8005116:	f46f 6380 	mvn.w	r3, #1024	; 0x400
 800511a:	614b      	str	r3, [r1, #20]
 800511c:	2320      	movs	r3, #32
 800511e:	6302      	str	r2, [r0, #48]	; 0x30
 8005120:	f880 303d 	strb.w	r3, [r0, #61]	; 0x3d
 8005124:	f880 203e 	strb.w	r2, [r0, #62]	; 0x3e
 8005128:	6c03      	ldr	r3, [r0, #64]	; 0x40
 800512a:	f880 203c 	strb.w	r2, [r0, #60]	; 0x3c
 800512e:	f043 0304 	orr.w	r3, r3, #4
 8005132:	6403      	str	r3, [r0, #64]	; 0x40
 8005134:	2001      	movs	r0, #1
 8005136:	4770      	bx	lr
 8005138:	4618      	mov	r0, r3
 800513a:	4770      	bx	lr

0800513c <I2C_WaitOnFlagUntilTimeout>:
 800513c:	e92d 46f8 	stmdb	sp!, {r3, r4, r5, r6, r7, r9, sl, lr}
 8005140:	4606      	mov	r6, r0
 8005142:	460f      	mov	r7, r1
 8005144:	4691      	mov	r9, r2
 8005146:	461d      	mov	r5, r3
 8005148:	ea4f 4a11 	mov.w	sl, r1, lsr #16
 800514c:	6833      	ldr	r3, [r6, #0]
 800514e:	f1ba 0f01 	cmp.w	sl, #1
 8005152:	bf0c      	ite	eq
 8005154:	695c      	ldreq	r4, [r3, #20]
 8005156:	699c      	ldrne	r4, [r3, #24]
 8005158:	ea27 0404 	bic.w	r4, r7, r4
 800515c:	b2a4      	uxth	r4, r4
 800515e:	fab4 f484 	clz	r4, r4
 8005162:	0964      	lsrs	r4, r4, #5
 8005164:	45a1      	cmp	r9, r4
 8005166:	d001      	beq.n	800516c <I2C_WaitOnFlagUntilTimeout+0x30>
 8005168:	2000      	movs	r0, #0
 800516a:	e017      	b.n	800519c <I2C_WaitOnFlagUntilTimeout+0x60>
 800516c:	1c6a      	adds	r2, r5, #1
 800516e:	d0ee      	beq.n	800514e <I2C_WaitOnFlagUntilTimeout+0x12>
 8005170:	f7ff fa68 	bl	8004644 <HAL_GetTick>
 8005174:	9b08      	ldr	r3, [sp, #32]
 8005176:	1ac0      	subs	r0, r0, r3
 8005178:	42a8      	cmp	r0, r5
 800517a:	d801      	bhi.n	8005180 <I2C_WaitOnFlagUntilTimeout+0x44>
 800517c:	2d00      	cmp	r5, #0
 800517e:	d1e5      	bne.n	800514c <I2C_WaitOnFlagUntilTimeout+0x10>
 8005180:	2300      	movs	r3, #0
 8005182:	2220      	movs	r2, #32
 8005184:	6333      	str	r3, [r6, #48]	; 0x30
 8005186:	f886 203d 	strb.w	r2, [r6, #61]	; 0x3d
 800518a:	f886 303e 	strb.w	r3, [r6, #62]	; 0x3e
 800518e:	6c32      	ldr	r2, [r6, #64]	; 0x40
 8005190:	f886 303c 	strb.w	r3, [r6, #60]	; 0x3c
 8005194:	f042 0220 	orr.w	r2, r2, #32
 8005198:	6432      	str	r2, [r6, #64]	; 0x40
 800519a:	2001      	movs	r0, #1
 800519c:	e8bd 86f8 	ldmia.w	sp!, {r3, r4, r5, r6, r7, r9, sl, pc}

080051a0 <I2C_WaitOnMasterAddressFlagUntilTimeout>:
 80051a0:	e92d 41f0 	stmdb	sp!, {r4, r5, r6, r7, r8, lr}
 80051a4:	4604      	mov	r4, r0
 80051a6:	460f      	mov	r7, r1
 80051a8:	4616      	mov	r6, r2
 80051aa:	4698      	mov	r8, r3
 80051ac:	6825      	ldr	r5, [r4, #0]
 80051ae:	6968      	ldr	r0, [r5, #20]
 80051b0:	ea27 0000 	bic.w	r0, r7, r0
 80051b4:	b280      	uxth	r0, r0
 80051b6:	b1b8      	cbz	r0, 80051e8 <I2C_WaitOnMasterAddressFlagUntilTimeout+0x48>
 80051b8:	696b      	ldr	r3, [r5, #20]
 80051ba:	055a      	lsls	r2, r3, #21
 80051bc:	d516      	bpl.n	80051ec <I2C_WaitOnMasterAddressFlagUntilTimeout+0x4c>
 80051be:	682b      	ldr	r3, [r5, #0]
 80051c0:	f443 7300 	orr.w	r3, r3, #512	; 0x200
 80051c4:	602b      	str	r3, [r5, #0]
 80051c6:	f46f 6380 	mvn.w	r3, #1024	; 0x400
 80051ca:	616b      	str	r3, [r5, #20]
 80051cc:	2220      	movs	r2, #32
 80051ce:	2300      	movs	r3, #0
 80051d0:	6323      	str	r3, [r4, #48]	; 0x30
 80051d2:	f884 203d 	strb.w	r2, [r4, #61]	; 0x3d
 80051d6:	f884 303e 	strb.w	r3, [r4, #62]	; 0x3e
 80051da:	6c22      	ldr	r2, [r4, #64]	; 0x40
 80051dc:	f042 0204 	orr.w	r2, r2, #4
 80051e0:	6422      	str	r2, [r4, #64]	; 0x40
 80051e2:	f884 303c 	strb.w	r3, [r4, #60]	; 0x3c
 80051e6:	2001      	movs	r0, #1
 80051e8:	e8bd 81f0 	ldmia.w	sp!, {r4, r5, r6, r7, r8, pc}
 80051ec:	1c73      	adds	r3, r6, #1
 80051ee:	d0de      	beq.n	80051ae <I2C_WaitOnMasterAddressFlagUntilTimeout+0xe>
 80051f0:	f7ff fa28 	bl	8004644 <HAL_GetTick>
 80051f4:	eba0 0008 	sub.w	r0, r0, r8
 80051f8:	42b0      	cmp	r0, r6
 80051fa:	d801      	bhi.n	8005200 <I2C_WaitOnMasterAddressFlagUntilTimeout+0x60>
 80051fc:	2e00      	cmp	r6, #0
 80051fe:	d1d5      	bne.n	80051ac <I2C_WaitOnMasterAddressFlagUntilTimeout+0xc>
 8005200:	2300      	movs	r3, #0
 8005202:	2220      	movs	r2, #32
 8005204:	6323      	str	r3, [r4, #48]	; 0x30
 8005206:	f884 203d 	strb.w	r2, [r4, #61]	; 0x3d
 800520a:	f884 303e 	strb.w	r3, [r4, #62]	; 0x3e
 800520e:	6c22      	ldr	r2, [r4, #64]	; 0x40
 8005210:	f042 0220 	orr.w	r2, r2, #32
 8005214:	e7e4      	b.n	80051e0 <I2C_WaitOnMasterAddressFlagUntilTimeout+0x40>

08005216 <I2C_WaitOnRXNEFlagUntilTimeout>:
 8005216:	b570      	push	{r4, r5, r6, lr}
 8005218:	4604      	mov	r4, r0
 800521a:	460d      	mov	r5, r1
 800521c:	4616      	mov	r6, r2
 800521e:	6821      	ldr	r1, [r4, #0]
 8005220:	694b      	ldr	r3, [r1, #20]
 8005222:	f013 0340 	ands.w	r3, r3, #64	; 0x40
 8005226:	d001      	beq.n	800522c <I2C_WaitOnRXNEFlagUntilTimeout+0x16>
 8005228:	2000      	movs	r0, #0
 800522a:	e010      	b.n	800524e <I2C_WaitOnRXNEFlagUntilTimeout+0x38>
 800522c:	694a      	ldr	r2, [r1, #20]
 800522e:	06d2      	lsls	r2, r2, #27
 8005230:	d50e      	bpl.n	8005250 <I2C_WaitOnRXNEFlagUntilTimeout+0x3a>
 8005232:	f06f 0210 	mvn.w	r2, #16
 8005236:	614a      	str	r2, [r1, #20]
 8005238:	2220      	movs	r2, #32
 800523a:	6323      	str	r3, [r4, #48]	; 0x30
 800523c:	f884 203d 	strb.w	r2, [r4, #61]	; 0x3d
 8005240:	f884 303e 	strb.w	r3, [r4, #62]	; 0x3e
 8005244:	6c22      	ldr	r2, [r4, #64]	; 0x40
 8005246:	6422      	str	r2, [r4, #64]	; 0x40
 8005248:	f884 303c 	strb.w	r3, [r4, #60]	; 0x3c
 800524c:	2001      	movs	r0, #1
 800524e:	bd70      	pop	{r4, r5, r6, pc}
 8005250:	f7ff f9f8 	bl	8004644 <HAL_GetTick>
 8005254:	1b80      	subs	r0, r0, r6
 8005256:	42a8      	cmp	r0, r5
 8005258:	d801      	bhi.n	800525e <I2C_WaitOnRXNEFlagUntilTimeout+0x48>
 800525a:	2d00      	cmp	r5, #0
 800525c:	d1df      	bne.n	800521e <I2C_WaitOnRXNEFlagUntilTimeout+0x8>
 800525e:	2300      	movs	r3, #0
 8005260:	2220      	movs	r2, #32
 8005262:	6323      	str	r3, [r4, #48]	; 0x30
 8005264:	f884 203d 	strb.w	r2, [r4, #61]	; 0x3d
 8005268:	f884 303e 	strb.w	r3, [r4, #62]	; 0x3e
 800526c:	6c22      	ldr	r2, [r4, #64]	; 0x40
 800526e:	f042 0220 	orr.w	r2, r2, #32
 8005272:	e7e8      	b.n	8005246 <I2C_WaitOnRXNEFlagUntilTimeout+0x30>

08005274 <I2C_WaitOnBTFFlagUntilTimeout>:
 8005274:	b570      	push	{r4, r5, r6, lr}
 8005276:	4604      	mov	r4, r0
 8005278:	460d      	mov	r5, r1
 800527a:	4616      	mov	r6, r2
 800527c:	6823      	ldr	r3, [r4, #0]
 800527e:	695b      	ldr	r3, [r3, #20]
 8005280:	075b      	lsls	r3, r3, #29
 8005282:	d501      	bpl.n	8005288 <I2C_WaitOnBTFFlagUntilTimeout+0x14>
 8005284:	2000      	movs	r0, #0
 8005286:	bd70      	pop	{r4, r5, r6, pc}
 8005288:	4620      	mov	r0, r4
 800528a:	f7ff ff3d 	bl	8005108 <I2C_IsAcknowledgeFailed>
 800528e:	b9a8      	cbnz	r0, 80052bc <I2C_WaitOnBTFFlagUntilTimeout+0x48>
 8005290:	1c6a      	adds	r2, r5, #1
 8005292:	d0f3      	beq.n	800527c <I2C_WaitOnBTFFlagUntilTimeout+0x8>
 8005294:	f7ff f9d6 	bl	8004644 <HAL_GetTick>
 8005298:	1b80      	subs	r0, r0, r6
 800529a:	42a8      	cmp	r0, r5
 800529c:	d801      	bhi.n	80052a2 <I2C_WaitOnBTFFlagUntilTimeout+0x2e>
 800529e:	2d00      	cmp	r5, #0
 80052a0:	d1ec      	bne.n	800527c <I2C_WaitOnBTFFlagUntilTimeout+0x8>
 80052a2:	2300      	movs	r3, #0
 80052a4:	2220      	movs	r2, #32
 80052a6:	6323      	str	r3, [r4, #48]	; 0x30
 80052a8:	f884 203d 	strb.w	r2, [r4, #61]	; 0x3d
 80052ac:	f884 303e 	strb.w	r3, [r4, #62]	; 0x3e
 80052b0:	6c22      	ldr	r2, [r4, #64]	; 0x40
 80052b2:	f884 303c 	strb.w	r3, [r4, #60]	; 0x3c
 80052b6:	f042 0220 	orr.w	r2, r2, #32
 80052ba:	6422      	str	r2, [r4, #64]	; 0x40
 80052bc:	2001      	movs	r0, #1
 80052be:	e7e2      	b.n	8005286 <I2C_WaitOnBTFFlagUntilTimeout+0x12>

080052c0 <I2C_WaitOnTXEFlagUntilTimeout>:
 80052c0:	b570      	push	{r4, r5, r6, lr}
 80052c2:	4604      	mov	r4, r0
 80052c4:	460d      	mov	r5, r1
 80052c6:	4616      	mov	r6, r2
 80052c8:	6823      	ldr	r3, [r4, #0]
 80052ca:	695b      	ldr	r3, [r3, #20]
 80052cc:	061b      	lsls	r3, r3, #24
 80052ce:	d501      	bpl.n	80052d4 <I2C_WaitOnTXEFlagUntilTimeout+0x14>
 80052d0:	2000      	movs	r0, #0
 80052d2:	bd70      	pop	{r4, r5, r6, pc}
 80052d4:	4620      	mov	r0, r4
 80052d6:	f7ff ff17 	bl	8005108 <I2C_IsAcknowledgeFailed>
 80052da:	b9a8      	cbnz	r0, 8005308 <I2C_WaitOnTXEFlagUntilTimeout+0x48>
 80052dc:	1c6a      	adds	r2, r5, #1
 80052de:	d0f3      	beq.n	80052c8 <I2C_WaitOnTXEFlagUntilTimeout+0x8>
 80052e0:	f7ff f9b0 	bl	8004644 <HAL_GetTick>
 80052e4:	1b80      	subs	r0, r0, r6
 80052e6:	42a8      	cmp	r0, r5
 80052e8:	d801      	bhi.n	80052ee <I2C_WaitOnTXEFlagUntilTimeout+0x2e>
 80052ea:	2d00      	cmp	r5, #0
 80052ec:	d1ec      	bne.n	80052c8 <I2C_WaitOnTXEFlagUntilTimeout+0x8>
 80052ee:	2300      	movs	r3, #0
 80052f0:	2220      	movs	r2, #32
 80052f2:	6323      	str	r3, [r4, #48]	; 0x30
 80052f4:	f884 203d 	strb.w	r2, [r4, #61]	; 0x3d
 80052f8:	f884 303e 	strb.w	r3, [r4, #62]	; 0x3e
 80052fc:	6c22      	ldr	r2, [r4, #64]	; 0x40
 80052fe:	f884 303c 	strb.w	r3, [r4, #60]	; 0x3c
 8005302:	f042 0220 	orr.w	r2, r2, #32
 8005306:	6422      	str	r2, [r4, #64]	; 0x40
 8005308:	2001      	movs	r0, #1
 800530a:	e7e2      	b.n	80052d2 <I2C_WaitOnTXEFlagUntilTimeout+0x12>

0800530c <I2C_RequestMemoryWrite>:
 800530c:	e92d 43f0 	stmdb	sp!, {r4, r5, r6, r7, r8, r9, lr}
 8005310:	4615      	mov	r5, r2
 8005312:	6802      	ldr	r2, [r0, #0]
 8005314:	b085      	sub	sp, #20
 8005316:	e9dd 780c 	ldrd	r7, r8, [sp, #48]	; 0x30
 800531a:	4699      	mov	r9, r3
 800531c:	6813      	ldr	r3, [r2, #0]
 800531e:	f443 7380 	orr.w	r3, r3, #256	; 0x100
 8005322:	6013      	str	r3, [r2, #0]
 8005324:	460e      	mov	r6, r1
 8005326:	463b      	mov	r3, r7
 8005328:	f8cd 8000 	str.w	r8, [sp]
 800532c:	2200      	movs	r2, #0
 800532e:	f04f 1101 	mov.w	r1, #65537	; 0x10001
 8005332:	4604      	mov	r4, r0
 8005334:	f7ff ff02 	bl	800513c <I2C_WaitOnFlagUntilTimeout>
 8005338:	6823      	ldr	r3, [r4, #0]
 800533a:	b138      	cbz	r0, 800534c <I2C_RequestMemoryWrite+0x40>
 800533c:	681b      	ldr	r3, [r3, #0]
 800533e:	05db      	lsls	r3, r3, #23
 8005340:	d502      	bpl.n	8005348 <I2C_RequestMemoryWrite+0x3c>
 8005342:	f44f 7300 	mov.w	r3, #512	; 0x200
 8005346:	6423      	str	r3, [r4, #64]	; 0x40
 8005348:	2003      	movs	r0, #3
 800534a:	e00a      	b.n	8005362 <I2C_RequestMemoryWrite+0x56>
 800534c:	f006 06fe 	and.w	r6, r6, #254	; 0xfe
 8005350:	611e      	str	r6, [r3, #16]
 8005352:	4919      	ldr	r1, [pc, #100]	; (80053b8 <I2C_RequestMemoryWrite+0xac>)
 8005354:	4643      	mov	r3, r8
 8005356:	463a      	mov	r2, r7
 8005358:	4620      	mov	r0, r4
 800535a:	f7ff ff21 	bl	80051a0 <I2C_WaitOnMasterAddressFlagUntilTimeout>
 800535e:	b118      	cbz	r0, 8005368 <I2C_RequestMemoryWrite+0x5c>
 8005360:	2001      	movs	r0, #1
 8005362:	b005      	add	sp, #20
 8005364:	e8bd 83f0 	ldmia.w	sp!, {r4, r5, r6, r7, r8, r9, pc}
 8005368:	6823      	ldr	r3, [r4, #0]
 800536a:	9003      	str	r0, [sp, #12]
 800536c:	695a      	ldr	r2, [r3, #20]
 800536e:	9203      	str	r2, [sp, #12]
 8005370:	699b      	ldr	r3, [r3, #24]
 8005372:	9303      	str	r3, [sp, #12]
 8005374:	4642      	mov	r2, r8
 8005376:	4639      	mov	r1, r7
 8005378:	4620      	mov	r0, r4
 800537a:	9b03      	ldr	r3, [sp, #12]
 800537c:	f7ff ffa0 	bl	80052c0 <I2C_WaitOnTXEFlagUntilTimeout>
 8005380:	b140      	cbz	r0, 8005394 <I2C_RequestMemoryWrite+0x88>
 8005382:	6c23      	ldr	r3, [r4, #64]	; 0x40
 8005384:	2b04      	cmp	r3, #4
 8005386:	bf01      	itttt	eq
 8005388:	6822      	ldreq	r2, [r4, #0]
 800538a:	6813      	ldreq	r3, [r2, #0]
 800538c:	f443 7300 	orreq.w	r3, r3, #512	; 0x200
 8005390:	6013      	streq	r3, [r2, #0]
 8005392:	e7e5      	b.n	8005360 <I2C_RequestMemoryWrite+0x54>
 8005394:	f1b9 0f01 	cmp.w	r9, #1
 8005398:	6823      	ldr	r3, [r4, #0]
 800539a:	d102      	bne.n	80053a2 <I2C_RequestMemoryWrite+0x96>
 800539c:	b2ed      	uxtb	r5, r5
 800539e:	611d      	str	r5, [r3, #16]
 80053a0:	e7df      	b.n	8005362 <I2C_RequestMemoryWrite+0x56>
 80053a2:	0a2a      	lsrs	r2, r5, #8
 80053a4:	611a      	str	r2, [r3, #16]
 80053a6:	4639      	mov	r1, r7
 80053a8:	4642      	mov	r2, r8
 80053aa:	4620      	mov	r0, r4
 80053ac:	f7ff ff88 	bl	80052c0 <I2C_WaitOnTXEFlagUntilTimeout>
 80053b0:	2800      	cmp	r0, #0
 80053b2:	d1e6      	bne.n	8005382 <I2C_RequestMemoryWrite+0x76>
 80053b4:	6823      	ldr	r3, [r4, #0]
 80053b6:	e7f1      	b.n	800539c <I2C_RequestMemoryWrite+0x90>
 80053b8:	00010002 	.word	0x00010002

080053bc <I2C_RequestMemoryRead>:
 80053bc:	e92d 47ff 	stmdb	sp!, {r0, r1, r2, r3, r4, r5, r6, r7, r8, r9, sl, lr}
 80053c0:	469a      	mov	sl, r3
 80053c2:	6803      	ldr	r3, [r0, #0]
 80053c4:	4615      	mov	r5, r2
 80053c6:	681a      	ldr	r2, [r3, #0]
 80053c8:	f442 6280 	orr.w	r2, r2, #1024	; 0x400
 80053cc:	601a      	str	r2, [r3, #0]
 80053ce:	681a      	ldr	r2, [r3, #0]
 80053d0:	e9dd 780c 	ldrd	r7, r8, [sp, #48]	; 0x30
 80053d4:	f442 7280 	orr.w	r2, r2, #256	; 0x100
 80053d8:	601a      	str	r2, [r3, #0]
 80053da:	460e      	mov	r6, r1
 80053dc:	463b      	mov	r3, r7
 80053de:	f8cd 8000 	str.w	r8, [sp]
 80053e2:	2200      	movs	r2, #0
 80053e4:	f04f 1101 	mov.w	r1, #65537	; 0x10001
 80053e8:	4604      	mov	r4, r0
 80053ea:	f7ff fea7 	bl	800513c <I2C_WaitOnFlagUntilTimeout>
 80053ee:	6823      	ldr	r3, [r4, #0]
 80053f0:	b148      	cbz	r0, 8005406 <I2C_RequestMemoryRead+0x4a>
 80053f2:	681b      	ldr	r3, [r3, #0]
 80053f4:	05db      	lsls	r3, r3, #23
 80053f6:	d502      	bpl.n	80053fe <I2C_RequestMemoryRead+0x42>
 80053f8:	f44f 7300 	mov.w	r3, #512	; 0x200
 80053fc:	6423      	str	r3, [r4, #64]	; 0x40
 80053fe:	2003      	movs	r0, #3
 8005400:	b004      	add	sp, #16
 8005402:	e8bd 87f0 	ldmia.w	sp!, {r4, r5, r6, r7, r8, r9, sl, pc}
 8005406:	fa5f f986 	uxtb.w	r9, r6
 800540a:	f006 06fe 	and.w	r6, r6, #254	; 0xfe
 800540e:	611e      	str	r6, [r3, #16]
 8005410:	492a      	ldr	r1, [pc, #168]	; (80054bc <I2C_RequestMemoryRead+0x100>)
 8005412:	4643      	mov	r3, r8
 8005414:	463a      	mov	r2, r7
 8005416:	4620      	mov	r0, r4
 8005418:	f7ff fec2 	bl	80051a0 <I2C_WaitOnMasterAddressFlagUntilTimeout>
 800541c:	b108      	cbz	r0, 8005422 <I2C_RequestMemoryRead+0x66>
 800541e:	2001      	movs	r0, #1
 8005420:	e7ee      	b.n	8005400 <I2C_RequestMemoryRead+0x44>
 8005422:	6823      	ldr	r3, [r4, #0]
 8005424:	9003      	str	r0, [sp, #12]
 8005426:	695a      	ldr	r2, [r3, #20]
 8005428:	9203      	str	r2, [sp, #12]
 800542a:	699b      	ldr	r3, [r3, #24]
 800542c:	9303      	str	r3, [sp, #12]
 800542e:	4642      	mov	r2, r8
 8005430:	4639      	mov	r1, r7
 8005432:	4620      	mov	r0, r4
 8005434:	9b03      	ldr	r3, [sp, #12]
 8005436:	f7ff ff43 	bl	80052c0 <I2C_WaitOnTXEFlagUntilTimeout>
 800543a:	b140      	cbz	r0, 800544e <I2C_RequestMemoryRead+0x92>
 800543c:	6c23      	ldr	r3, [r4, #64]	; 0x40
 800543e:	2b04      	cmp	r3, #4
 8005440:	bf01      	itttt	eq
 8005442:	6822      	ldreq	r2, [r4, #0]
 8005444:	6813      	ldreq	r3, [r2, #0]
 8005446:	f443 7300 	orreq.w	r3, r3, #512	; 0x200
 800544a:	6013      	streq	r3, [r2, #0]
 800544c:	e7e7      	b.n	800541e <I2C_RequestMemoryRead+0x62>
 800544e:	f1ba 0f01 	cmp.w	sl, #1
 8005452:	6823      	ldr	r3, [r4, #0]
 8005454:	d11a      	bne.n	800548c <I2C_RequestMemoryRead+0xd0>
 8005456:	b2ed      	uxtb	r5, r5
 8005458:	611d      	str	r5, [r3, #16]
 800545a:	4642      	mov	r2, r8
 800545c:	4639      	mov	r1, r7
 800545e:	4620      	mov	r0, r4
 8005460:	f7ff ff2e 	bl	80052c0 <I2C_WaitOnTXEFlagUntilTimeout>
 8005464:	2800      	cmp	r0, #0
 8005466:	d1e9      	bne.n	800543c <I2C_RequestMemoryRead+0x80>
 8005468:	6822      	ldr	r2, [r4, #0]
 800546a:	6813      	ldr	r3, [r2, #0]
 800546c:	f443 7380 	orr.w	r3, r3, #256	; 0x100
 8005470:	6013      	str	r3, [r2, #0]
 8005472:	f04f 1101 	mov.w	r1, #65537	; 0x10001
 8005476:	4602      	mov	r2, r0
 8005478:	f8cd 8000 	str.w	r8, [sp]
 800547c:	463b      	mov	r3, r7
 800547e:	4620      	mov	r0, r4
 8005480:	f7ff fe5c 	bl	800513c <I2C_WaitOnFlagUntilTimeout>
 8005484:	6822      	ldr	r2, [r4, #0]
 8005486:	b160      	cbz	r0, 80054a2 <I2C_RequestMemoryRead+0xe6>
 8005488:	6813      	ldr	r3, [r2, #0]
 800548a:	e7b3      	b.n	80053f4 <I2C_RequestMemoryRead+0x38>
 800548c:	0a2a      	lsrs	r2, r5, #8
 800548e:	611a      	str	r2, [r3, #16]
 8005490:	4639      	mov	r1, r7
 8005492:	4642      	mov	r2, r8
 8005494:	4620      	mov	r0, r4
 8005496:	f7ff ff13 	bl	80052c0 <I2C_WaitOnTXEFlagUntilTimeout>
 800549a:	2800      	cmp	r0, #0
 800549c:	d1ce      	bne.n	800543c <I2C_RequestMemoryRead+0x80>
 800549e:	6823      	ldr	r3, [r4, #0]
 80054a0:	e7d9      	b.n	8005456 <I2C_RequestMemoryRead+0x9a>
 80054a2:	f049 0301 	orr.w	r3, r9, #1
 80054a6:	6113      	str	r3, [r2, #16]
 80054a8:	4904      	ldr	r1, [pc, #16]	; (80054bc <I2C_RequestMemoryRead+0x100>)
 80054aa:	4643      	mov	r3, r8
 80054ac:	463a      	mov	r2, r7
 80054ae:	4620      	mov	r0, r4
 80054b0:	f7ff fe76 	bl	80051a0 <I2C_WaitOnMasterAddressFlagUntilTimeout>
 80054b4:	3800      	subs	r0, #0
 80054b6:	bf18      	it	ne
 80054b8:	2001      	movne	r0, #1
 80054ba:	e7a1      	b.n	8005400 <I2C_RequestMemoryRead+0x44>
 80054bc:	00010002 	.word	0x00010002

080054c0 <HAL_I2C_Init>:
 80054c0:	b570      	push	{r4, r5, r6, lr}
 80054c2:	4604      	mov	r4, r0
 80054c4:	b908      	cbnz	r0, 80054ca <HAL_I2C_Init+0xa>
 80054c6:	2001      	movs	r0, #1
 80054c8:	bd70      	pop	{r4, r5, r6, pc}
 80054ca:	f890 303d 	ldrb.w	r3, [r0, #61]	; 0x3d
 80054ce:	f003 02ff 	and.w	r2, r3, #255	; 0xff
 80054d2:	b91b      	cbnz	r3, 80054dc <HAL_I2C_Init+0x1c>
 80054d4:	f880 203c 	strb.w	r2, [r0, #60]	; 0x3c
 80054d8:	f7fe fd18 	bl	8003f0c <HAL_I2C_MspInit>
 80054dc:	2324      	movs	r3, #36	; 0x24
 80054de:	f884 303d 	strb.w	r3, [r4, #61]	; 0x3d
 80054e2:	6823      	ldr	r3, [r4, #0]
 80054e4:	681a      	ldr	r2, [r3, #0]
 80054e6:	f022 0201 	bic.w	r2, r2, #1
 80054ea:	601a      	str	r2, [r3, #0]
 80054ec:	681a      	ldr	r2, [r3, #0]
 80054ee:	f442 4200 	orr.w	r2, r2, #32768	; 0x8000
 80054f2:	601a      	str	r2, [r3, #0]
 80054f4:	681a      	ldr	r2, [r3, #0]
 80054f6:	f422 4200 	bic.w	r2, r2, #32768	; 0x8000
 80054fa:	601a      	str	r2, [r3, #0]
 80054fc:	f000 fd72 	bl	8005fe4 <HAL_RCC_GetPCLK1Freq>
 8005500:	4b3f      	ldr	r3, [pc, #252]	; (8005600 <HAL_I2C_Init+0x140>)
 8005502:	6865      	ldr	r5, [r4, #4]
 8005504:	429d      	cmp	r5, r3
 8005506:	bf94      	ite	ls
 8005508:	4b3e      	ldrls	r3, [pc, #248]	; (8005604 <HAL_I2C_Init+0x144>)
 800550a:	4b3f      	ldrhi	r3, [pc, #252]	; (8005608 <HAL_I2C_Init+0x148>)
 800550c:	4298      	cmp	r0, r3
 800550e:	bf8c      	ite	hi
 8005510:	2300      	movhi	r3, #0
 8005512:	2301      	movls	r3, #1
 8005514:	2b00      	cmp	r3, #0
 8005516:	d1d6      	bne.n	80054c6 <HAL_I2C_Init+0x6>
 8005518:	6822      	ldr	r2, [r4, #0]
 800551a:	4e39      	ldr	r6, [pc, #228]	; (8005600 <HAL_I2C_Init+0x140>)
 800551c:	6853      	ldr	r3, [r2, #4]
 800551e:	493b      	ldr	r1, [pc, #236]	; (800560c <HAL_I2C_Init+0x14c>)
 8005520:	fbb0 f1f1 	udiv	r1, r0, r1
 8005524:	f023 033f 	bic.w	r3, r3, #63	; 0x3f
 8005528:	430b      	orrs	r3, r1
 800552a:	42b5      	cmp	r5, r6
 800552c:	6053      	str	r3, [r2, #4]
 800552e:	bf88      	it	hi
 8005530:	f44f 7696 	movhi.w	r6, #300	; 0x12c
 8005534:	6a13      	ldr	r3, [r2, #32]
 8005536:	bf88      	it	hi
 8005538:	4371      	mulhi	r1, r6
 800553a:	f023 033f 	bic.w	r3, r3, #63	; 0x3f
 800553e:	bf84      	itt	hi
 8005540:	f44f 767a 	movhi.w	r6, #1000	; 0x3e8
 8005544:	fbb1 f1f6 	udivhi	r1, r1, r6
 8005548:	3101      	adds	r1, #1
 800554a:	4319      	orrs	r1, r3
 800554c:	6211      	str	r1, [r2, #32]
 800554e:	69d1      	ldr	r1, [r2, #28]
 8005550:	1e43      	subs	r3, r0, #1
 8005552:	482b      	ldr	r0, [pc, #172]	; (8005600 <HAL_I2C_Init+0x140>)
 8005554:	f421 414f 	bic.w	r1, r1, #52992	; 0xcf00
 8005558:	4285      	cmp	r5, r0
 800555a:	f021 01ff 	bic.w	r1, r1, #255	; 0xff
 800555e:	d832      	bhi.n	80055c6 <HAL_I2C_Init+0x106>
 8005560:	006d      	lsls	r5, r5, #1
 8005562:	f640 70fc 	movw	r0, #4092	; 0xffc
 8005566:	fbb3 f3f5 	udiv	r3, r3, r5
 800556a:	3301      	adds	r3, #1
 800556c:	4203      	tst	r3, r0
 800556e:	d042      	beq.n	80055f6 <HAL_I2C_Init+0x136>
 8005570:	f3c3 030b 	ubfx	r3, r3, #0, #12
 8005574:	430b      	orrs	r3, r1
 8005576:	61d3      	str	r3, [r2, #28]
 8005578:	e9d4 3007 	ldrd	r3, r0, [r4, #28]
 800557c:	6811      	ldr	r1, [r2, #0]
 800557e:	4303      	orrs	r3, r0
 8005580:	f021 01c0 	bic.w	r1, r1, #192	; 0xc0
 8005584:	430b      	orrs	r3, r1
 8005586:	6013      	str	r3, [r2, #0]
 8005588:	6891      	ldr	r1, [r2, #8]
 800558a:	e9d4 0303 	ldrd	r0, r3, [r4, #12]
 800558e:	f421 4103 	bic.w	r1, r1, #33536	; 0x8300
 8005592:	4303      	orrs	r3, r0
 8005594:	f021 01ff 	bic.w	r1, r1, #255	; 0xff
 8005598:	430b      	orrs	r3, r1
 800559a:	6093      	str	r3, [r2, #8]
 800559c:	e9d4 3005 	ldrd	r3, r0, [r4, #20]
 80055a0:	68d1      	ldr	r1, [r2, #12]
 80055a2:	4303      	orrs	r3, r0
 80055a4:	f021 01ff 	bic.w	r1, r1, #255	; 0xff
 80055a8:	430b      	orrs	r3, r1
 80055aa:	60d3      	str	r3, [r2, #12]
 80055ac:	6813      	ldr	r3, [r2, #0]
 80055ae:	f043 0301 	orr.w	r3, r3, #1
 80055b2:	6013      	str	r3, [r2, #0]
 80055b4:	2000      	movs	r0, #0
 80055b6:	2320      	movs	r3, #32
 80055b8:	6420      	str	r0, [r4, #64]	; 0x40
 80055ba:	f884 303d 	strb.w	r3, [r4, #61]	; 0x3d
 80055be:	6320      	str	r0, [r4, #48]	; 0x30
 80055c0:	f884 003e 	strb.w	r0, [r4, #62]	; 0x3e
 80055c4:	e780      	b.n	80054c8 <HAL_I2C_Init+0x8>
 80055c6:	68a0      	ldr	r0, [r4, #8]
 80055c8:	b950      	cbnz	r0, 80055e0 <HAL_I2C_Init+0x120>
 80055ca:	eb05 0545 	add.w	r5, r5, r5, lsl #1
 80055ce:	fbb3 f3f5 	udiv	r3, r3, r5
 80055d2:	3301      	adds	r3, #1
 80055d4:	f3c3 030b 	ubfx	r3, r3, #0, #12
 80055d8:	b17b      	cbz	r3, 80055fa <HAL_I2C_Init+0x13a>
 80055da:	f443 4300 	orr.w	r3, r3, #32768	; 0x8000
 80055de:	e7c9      	b.n	8005574 <HAL_I2C_Init+0xb4>
 80055e0:	2019      	movs	r0, #25
 80055e2:	4345      	muls	r5, r0
 80055e4:	fbb3 f3f5 	udiv	r3, r3, r5
 80055e8:	3301      	adds	r3, #1
 80055ea:	f3c3 030b 	ubfx	r3, r3, #0, #12
 80055ee:	b123      	cbz	r3, 80055fa <HAL_I2C_Init+0x13a>
 80055f0:	f443 4340 	orr.w	r3, r3, #49152	; 0xc000
 80055f4:	e7be      	b.n	8005574 <HAL_I2C_Init+0xb4>
 80055f6:	2304      	movs	r3, #4
 80055f8:	e7bc      	b.n	8005574 <HAL_I2C_Init+0xb4>
 80055fa:	2301      	movs	r3, #1
 80055fc:	e7ba      	b.n	8005574 <HAL_I2C_Init+0xb4>
 80055fe:	bf00      	nop
 8005600:	000186a0 	.word	0x000186a0
 8005604:	001e847f 	.word	0x001e847f
 8005608:	003d08ff 	.word	0x003d08ff
 800560c:	000f4240 	.word	0x000f4240

08005610 <HAL_I2C_Master_Transmit>:
 8005610:	e92d 43f0 	stmdb	sp!, {r4, r5, r6, r7, r8, r9, lr}
 8005614:	4604      	mov	r4, r0
 8005616:	b085      	sub	sp, #20
 8005618:	4698      	mov	r8, r3
 800561a:	9f0c      	ldr	r7, [sp, #48]	; 0x30
 800561c:	460d      	mov	r5, r1
 800561e:	4691      	mov	r9, r2
 8005620:	f7ff f810 	bl	8004644 <HAL_GetTick>
 8005624:	f894 303d 	ldrb.w	r3, [r4, #61]	; 0x3d
 8005628:	2b20      	cmp	r3, #32
 800562a:	4606      	mov	r6, r0
 800562c:	d004      	beq.n	8005638 <HAL_I2C_Master_Transmit+0x28>
 800562e:	2502      	movs	r5, #2
 8005630:	4628      	mov	r0, r5
 8005632:	b005      	add	sp, #20
 8005634:	e8bd 83f0 	ldmia.w	sp!, {r4, r5, r6, r7, r8, r9, pc}
 8005638:	9000      	str	r0, [sp, #0]
 800563a:	495d      	ldr	r1, [pc, #372]	; (80057b0 <HAL_I2C_Master_Transmit+0x1a0>)
 800563c:	2319      	movs	r3, #25
 800563e:	2201      	movs	r2, #1
 8005640:	4620      	mov	r0, r4
 8005642:	f7ff fd7b 	bl	800513c <I2C_WaitOnFlagUntilTimeout>
 8005646:	2800      	cmp	r0, #0
 8005648:	d1f1      	bne.n	800562e <HAL_I2C_Master_Transmit+0x1e>
 800564a:	f894 303c 	ldrb.w	r3, [r4, #60]	; 0x3c
 800564e:	2b01      	cmp	r3, #1
 8005650:	d0ed      	beq.n	800562e <HAL_I2C_Master_Transmit+0x1e>
 8005652:	6821      	ldr	r1, [r4, #0]
 8005654:	2301      	movs	r3, #1
 8005656:	f884 303c 	strb.w	r3, [r4, #60]	; 0x3c
 800565a:	680b      	ldr	r3, [r1, #0]
 800565c:	07da      	lsls	r2, r3, #31
 800565e:	bf5e      	ittt	pl
 8005660:	680b      	ldrpl	r3, [r1, #0]
 8005662:	f043 0301 	orrpl.w	r3, r3, #1
 8005666:	600b      	strpl	r3, [r1, #0]
 8005668:	680b      	ldr	r3, [r1, #0]
 800566a:	f423 6300 	bic.w	r3, r3, #2048	; 0x800
 800566e:	600b      	str	r3, [r1, #0]
 8005670:	2321      	movs	r3, #33	; 0x21
 8005672:	f884 303d 	strb.w	r3, [r4, #61]	; 0x3d
 8005676:	2310      	movs	r3, #16
 8005678:	f884 303e 	strb.w	r3, [r4, #62]	; 0x3e
 800567c:	2300      	movs	r3, #0
 800567e:	6423      	str	r3, [r4, #64]	; 0x40
 8005680:	f8a4 802a 	strh.w	r8, [r4, #42]	; 0x2a
 8005684:	8d63      	ldrh	r3, [r4, #42]	; 0x2a
 8005686:	8523      	strh	r3, [r4, #40]	; 0x28
 8005688:	4b4a      	ldr	r3, [pc, #296]	; (80057b4 <HAL_I2C_Master_Transmit+0x1a4>)
 800568a:	62e3      	str	r3, [r4, #44]	; 0x2c
 800568c:	6ae3      	ldr	r3, [r4, #44]	; 0x2c
 800568e:	f8c4 9024 	str.w	r9, [r4, #36]	; 0x24
 8005692:	2b08      	cmp	r3, #8
 8005694:	d004      	beq.n	80056a0 <HAL_I2C_Master_Transmit+0x90>
 8005696:	2b01      	cmp	r3, #1
 8005698:	d002      	beq.n	80056a0 <HAL_I2C_Master_Transmit+0x90>
 800569a:	f513 3f80 	cmn.w	r3, #65536	; 0x10000
 800569e:	d104      	bne.n	80056aa <HAL_I2C_Master_Transmit+0x9a>
 80056a0:	680b      	ldr	r3, [r1, #0]
 80056a2:	f443 7380 	orr.w	r3, r3, #256	; 0x100
 80056a6:	600b      	str	r3, [r1, #0]
 80056a8:	e002      	b.n	80056b0 <HAL_I2C_Master_Transmit+0xa0>
 80056aa:	6b23      	ldr	r3, [r4, #48]	; 0x30
 80056ac:	2b12      	cmp	r3, #18
 80056ae:	d0f7      	beq.n	80056a0 <HAL_I2C_Master_Transmit+0x90>
 80056b0:	2200      	movs	r2, #0
 80056b2:	9600      	str	r6, [sp, #0]
 80056b4:	463b      	mov	r3, r7
 80056b6:	f04f 1101 	mov.w	r1, #65537	; 0x10001
 80056ba:	4620      	mov	r0, r4
 80056bc:	f7ff fd3e 	bl	800513c <I2C_WaitOnFlagUntilTimeout>
 80056c0:	6822      	ldr	r2, [r4, #0]
 80056c2:	b138      	cbz	r0, 80056d4 <HAL_I2C_Master_Transmit+0xc4>
 80056c4:	6813      	ldr	r3, [r2, #0]
 80056c6:	05db      	lsls	r3, r3, #23
 80056c8:	bf44      	itt	mi
 80056ca:	f44f 7300 	movmi.w	r3, #512	; 0x200
 80056ce:	6423      	strmi	r3, [r4, #64]	; 0x40
 80056d0:	2501      	movs	r5, #1
 80056d2:	e7ad      	b.n	8005630 <HAL_I2C_Master_Transmit+0x20>
 80056d4:	6923      	ldr	r3, [r4, #16]
 80056d6:	f5b3 4f80 	cmp.w	r3, #16384	; 0x4000
 80056da:	d121      	bne.n	8005720 <HAL_I2C_Master_Transmit+0x110>
 80056dc:	f005 05fe 	and.w	r5, r5, #254	; 0xfe
 80056e0:	6115      	str	r5, [r2, #16]
 80056e2:	4935      	ldr	r1, [pc, #212]	; (80057b8 <HAL_I2C_Master_Transmit+0x1a8>)
 80056e4:	4633      	mov	r3, r6
 80056e6:	463a      	mov	r2, r7
 80056e8:	4620      	mov	r0, r4
 80056ea:	f7ff fd59 	bl	80051a0 <I2C_WaitOnMasterAddressFlagUntilTimeout>
 80056ee:	4605      	mov	r5, r0
 80056f0:	2800      	cmp	r0, #0
 80056f2:	d1ed      	bne.n	80056d0 <HAL_I2C_Master_Transmit+0xc0>
 80056f4:	6823      	ldr	r3, [r4, #0]
 80056f6:	9003      	str	r0, [sp, #12]
 80056f8:	695a      	ldr	r2, [r3, #20]
 80056fa:	9203      	str	r2, [sp, #12]
 80056fc:	699b      	ldr	r3, [r3, #24]
 80056fe:	9303      	str	r3, [sp, #12]
 8005700:	9b03      	ldr	r3, [sp, #12]
 8005702:	8d23      	ldrh	r3, [r4, #40]	; 0x28
 8005704:	b9f3      	cbnz	r3, 8005744 <HAL_I2C_Master_Transmit+0x134>
 8005706:	6821      	ldr	r1, [r4, #0]
 8005708:	680a      	ldr	r2, [r1, #0]
 800570a:	f442 7200 	orr.w	r2, r2, #512	; 0x200
 800570e:	600a      	str	r2, [r1, #0]
 8005710:	2220      	movs	r2, #32
 8005712:	f884 203d 	strb.w	r2, [r4, #61]	; 0x3d
 8005716:	f884 303c 	strb.w	r3, [r4, #60]	; 0x3c
 800571a:	f884 303e 	strb.w	r3, [r4, #62]	; 0x3e
 800571e:	e787      	b.n	8005630 <HAL_I2C_Master_Transmit+0x20>
 8005720:	11eb      	asrs	r3, r5, #7
 8005722:	f003 0306 	and.w	r3, r3, #6
 8005726:	f043 03f0 	orr.w	r3, r3, #240	; 0xf0
 800572a:	6113      	str	r3, [r2, #16]
 800572c:	4923      	ldr	r1, [pc, #140]	; (80057bc <HAL_I2C_Master_Transmit+0x1ac>)
 800572e:	4633      	mov	r3, r6
 8005730:	463a      	mov	r2, r7
 8005732:	4620      	mov	r0, r4
 8005734:	f7ff fd34 	bl	80051a0 <I2C_WaitOnMasterAddressFlagUntilTimeout>
 8005738:	2800      	cmp	r0, #0
 800573a:	d1c9      	bne.n	80056d0 <HAL_I2C_Master_Transmit+0xc0>
 800573c:	6823      	ldr	r3, [r4, #0]
 800573e:	b2ed      	uxtb	r5, r5
 8005740:	611d      	str	r5, [r3, #16]
 8005742:	e7ce      	b.n	80056e2 <HAL_I2C_Master_Transmit+0xd2>
 8005744:	4632      	mov	r2, r6
 8005746:	4639      	mov	r1, r7
 8005748:	4620      	mov	r0, r4
 800574a:	f7ff fdb9 	bl	80052c0 <I2C_WaitOnTXEFlagUntilTimeout>
 800574e:	b140      	cbz	r0, 8005762 <HAL_I2C_Master_Transmit+0x152>
 8005750:	6c23      	ldr	r3, [r4, #64]	; 0x40
 8005752:	2b04      	cmp	r3, #4
 8005754:	d1bc      	bne.n	80056d0 <HAL_I2C_Master_Transmit+0xc0>
 8005756:	6822      	ldr	r2, [r4, #0]
 8005758:	6813      	ldr	r3, [r2, #0]
 800575a:	f443 7300 	orr.w	r3, r3, #512	; 0x200
 800575e:	6013      	str	r3, [r2, #0]
 8005760:	e7b6      	b.n	80056d0 <HAL_I2C_Master_Transmit+0xc0>
 8005762:	6a63      	ldr	r3, [r4, #36]	; 0x24
 8005764:	6820      	ldr	r0, [r4, #0]
 8005766:	461a      	mov	r2, r3
 8005768:	f812 1b01 	ldrb.w	r1, [r2], #1
 800576c:	6101      	str	r1, [r0, #16]
 800576e:	6262      	str	r2, [r4, #36]	; 0x24
 8005770:	8d62      	ldrh	r2, [r4, #42]	; 0x2a
 8005772:	3a01      	subs	r2, #1
 8005774:	b292      	uxth	r2, r2
 8005776:	8562      	strh	r2, [r4, #42]	; 0x2a
 8005778:	8d22      	ldrh	r2, [r4, #40]	; 0x28
 800577a:	f8d0 c014 	ldr.w	ip, [r0, #20]
 800577e:	1e51      	subs	r1, r2, #1
 8005780:	b289      	uxth	r1, r1
 8005782:	f01c 0f04 	tst.w	ip, #4
 8005786:	8521      	strh	r1, [r4, #40]	; 0x28
 8005788:	d00a      	beq.n	80057a0 <HAL_I2C_Master_Transmit+0x190>
 800578a:	b149      	cbz	r1, 80057a0 <HAL_I2C_Master_Transmit+0x190>
 800578c:	7859      	ldrb	r1, [r3, #1]
 800578e:	6101      	str	r1, [r0, #16]
 8005790:	3302      	adds	r3, #2
 8005792:	6263      	str	r3, [r4, #36]	; 0x24
 8005794:	8d63      	ldrh	r3, [r4, #42]	; 0x2a
 8005796:	3b01      	subs	r3, #1
 8005798:	b29b      	uxth	r3, r3
 800579a:	3a02      	subs	r2, #2
 800579c:	8563      	strh	r3, [r4, #42]	; 0x2a
 800579e:	8522      	strh	r2, [r4, #40]	; 0x28
 80057a0:	4632      	mov	r2, r6
 80057a2:	4639      	mov	r1, r7
 80057a4:	4620      	mov	r0, r4
 80057a6:	f7ff fd65 	bl	8005274 <I2C_WaitOnBTFFlagUntilTimeout>
 80057aa:	2800      	cmp	r0, #0
 80057ac:	d0a9      	beq.n	8005702 <HAL_I2C_Master_Transmit+0xf2>
 80057ae:	e7cf      	b.n	8005750 <HAL_I2C_Master_Transmit+0x140>
 80057b0:	00100002 	.word	0x00100002
 80057b4:	ffff0000 	.word	0xffff0000
 80057b8:	00010002 	.word	0x00010002
 80057bc:	00010008 	.word	0x00010008

080057c0 <HAL_I2C_Mem_Write>:
 80057c0:	e92d 43f7 	stmdb	sp!, {r0, r1, r2, r4, r5, r6, r7, r8, r9, lr}
 80057c4:	4604      	mov	r4, r0
 80057c6:	4699      	mov	r9, r3
 80057c8:	9e0c      	ldr	r6, [sp, #48]	; 0x30
 80057ca:	460f      	mov	r7, r1
 80057cc:	4690      	mov	r8, r2
 80057ce:	f7fe ff39 	bl	8004644 <HAL_GetTick>
 80057d2:	f894 303d 	ldrb.w	r3, [r4, #61]	; 0x3d
 80057d6:	2b20      	cmp	r3, #32
 80057d8:	4605      	mov	r5, r0
 80057da:	d003      	beq.n	80057e4 <HAL_I2C_Mem_Write+0x24>
 80057dc:	2002      	movs	r0, #2
 80057de:	b003      	add	sp, #12
 80057e0:	e8bd 83f0 	ldmia.w	sp!, {r4, r5, r6, r7, r8, r9, pc}
 80057e4:	9000      	str	r0, [sp, #0]
 80057e6:	493c      	ldr	r1, [pc, #240]	; (80058d8 <HAL_I2C_Mem_Write+0x118>)
 80057e8:	2319      	movs	r3, #25
 80057ea:	2201      	movs	r2, #1
 80057ec:	4620      	mov	r0, r4
 80057ee:	f7ff fca5 	bl	800513c <I2C_WaitOnFlagUntilTimeout>
 80057f2:	2800      	cmp	r0, #0
 80057f4:	d1f2      	bne.n	80057dc <HAL_I2C_Mem_Write+0x1c>
 80057f6:	f894 303c 	ldrb.w	r3, [r4, #60]	; 0x3c
 80057fa:	2b01      	cmp	r3, #1
 80057fc:	d0ee      	beq.n	80057dc <HAL_I2C_Mem_Write+0x1c>
 80057fe:	6820      	ldr	r0, [r4, #0]
 8005800:	2301      	movs	r3, #1
 8005802:	f884 303c 	strb.w	r3, [r4, #60]	; 0x3c
 8005806:	6803      	ldr	r3, [r0, #0]
 8005808:	07d9      	lsls	r1, r3, #31
 800580a:	bf5e      	ittt	pl
 800580c:	6803      	ldrpl	r3, [r0, #0]
 800580e:	f043 0301 	orrpl.w	r3, r3, #1
 8005812:	6003      	strpl	r3, [r0, #0]
 8005814:	6803      	ldr	r3, [r0, #0]
 8005816:	f423 6300 	bic.w	r3, r3, #2048	; 0x800
 800581a:	6003      	str	r3, [r0, #0]
 800581c:	2321      	movs	r3, #33	; 0x21
 800581e:	f884 303d 	strb.w	r3, [r4, #61]	; 0x3d
 8005822:	2340      	movs	r3, #64	; 0x40
 8005824:	f884 303e 	strb.w	r3, [r4, #62]	; 0x3e
 8005828:	2300      	movs	r3, #0
 800582a:	6423      	str	r3, [r4, #64]	; 0x40
 800582c:	9b0a      	ldr	r3, [sp, #40]	; 0x28
 800582e:	6263      	str	r3, [r4, #36]	; 0x24
 8005830:	f8bd 302c 	ldrh.w	r3, [sp, #44]	; 0x2c
 8005834:	8563      	strh	r3, [r4, #42]	; 0x2a
 8005836:	8d63      	ldrh	r3, [r4, #42]	; 0x2a
 8005838:	8523      	strh	r3, [r4, #40]	; 0x28
 800583a:	4b28      	ldr	r3, [pc, #160]	; (80058dc <HAL_I2C_Mem_Write+0x11c>)
 800583c:	62e3      	str	r3, [r4, #44]	; 0x2c
 800583e:	e9cd 6500 	strd	r6, r5, [sp]
 8005842:	464b      	mov	r3, r9
 8005844:	4642      	mov	r2, r8
 8005846:	4639      	mov	r1, r7
 8005848:	4620      	mov	r0, r4
 800584a:	f7ff fd5f 	bl	800530c <I2C_RequestMemoryWrite>
 800584e:	2800      	cmp	r0, #0
 8005850:	d02a      	beq.n	80058a8 <HAL_I2C_Mem_Write+0xe8>
 8005852:	2001      	movs	r0, #1
 8005854:	e7c3      	b.n	80057de <HAL_I2C_Mem_Write+0x1e>
 8005856:	f7ff fd33 	bl	80052c0 <I2C_WaitOnTXEFlagUntilTimeout>
 800585a:	b140      	cbz	r0, 800586e <HAL_I2C_Mem_Write+0xae>
 800585c:	6c23      	ldr	r3, [r4, #64]	; 0x40
 800585e:	2b04      	cmp	r3, #4
 8005860:	bf01      	itttt	eq
 8005862:	6822      	ldreq	r2, [r4, #0]
 8005864:	6813      	ldreq	r3, [r2, #0]
 8005866:	f443 7300 	orreq.w	r3, r3, #512	; 0x200
 800586a:	6013      	streq	r3, [r2, #0]
 800586c:	e7f1      	b.n	8005852 <HAL_I2C_Mem_Write+0x92>
 800586e:	6a63      	ldr	r3, [r4, #36]	; 0x24
 8005870:	6827      	ldr	r7, [r4, #0]
 8005872:	461a      	mov	r2, r3
 8005874:	f812 1b01 	ldrb.w	r1, [r2], #1
 8005878:	6139      	str	r1, [r7, #16]
 800587a:	6262      	str	r2, [r4, #36]	; 0x24
 800587c:	8d62      	ldrh	r2, [r4, #42]	; 0x2a
 800587e:	8d21      	ldrh	r1, [r4, #40]	; 0x28
 8005880:	3a01      	subs	r2, #1
 8005882:	b292      	uxth	r2, r2
 8005884:	8562      	strh	r2, [r4, #42]	; 0x2a
 8005886:	697a      	ldr	r2, [r7, #20]
 8005888:	1e48      	subs	r0, r1, #1
 800588a:	b280      	uxth	r0, r0
 800588c:	0752      	lsls	r2, r2, #29
 800588e:	8520      	strh	r0, [r4, #40]	; 0x28
 8005890:	d50a      	bpl.n	80058a8 <HAL_I2C_Mem_Write+0xe8>
 8005892:	b148      	cbz	r0, 80058a8 <HAL_I2C_Mem_Write+0xe8>
 8005894:	785a      	ldrb	r2, [r3, #1]
 8005896:	613a      	str	r2, [r7, #16]
 8005898:	3302      	adds	r3, #2
 800589a:	6263      	str	r3, [r4, #36]	; 0x24
 800589c:	8d63      	ldrh	r3, [r4, #42]	; 0x2a
 800589e:	3b01      	subs	r3, #1
 80058a0:	3902      	subs	r1, #2
 80058a2:	b29b      	uxth	r3, r3
 80058a4:	8521      	strh	r1, [r4, #40]	; 0x28
 80058a6:	8563      	strh	r3, [r4, #42]	; 0x2a
 80058a8:	8d23      	ldrh	r3, [r4, #40]	; 0x28
 80058aa:	462a      	mov	r2, r5
 80058ac:	4631      	mov	r1, r6
 80058ae:	4620      	mov	r0, r4
 80058b0:	2b00      	cmp	r3, #0
 80058b2:	d1d0      	bne.n	8005856 <HAL_I2C_Mem_Write+0x96>
 80058b4:	f7ff fcde 	bl	8005274 <I2C_WaitOnBTFFlagUntilTimeout>
 80058b8:	2800      	cmp	r0, #0
 80058ba:	d1cf      	bne.n	800585c <HAL_I2C_Mem_Write+0x9c>
 80058bc:	6822      	ldr	r2, [r4, #0]
 80058be:	6813      	ldr	r3, [r2, #0]
 80058c0:	f443 7300 	orr.w	r3, r3, #512	; 0x200
 80058c4:	6013      	str	r3, [r2, #0]
 80058c6:	2320      	movs	r3, #32
 80058c8:	f884 303d 	strb.w	r3, [r4, #61]	; 0x3d
 80058cc:	f884 003c 	strb.w	r0, [r4, #60]	; 0x3c
 80058d0:	f884 003e 	strb.w	r0, [r4, #62]	; 0x3e
 80058d4:	e783      	b.n	80057de <HAL_I2C_Mem_Write+0x1e>
 80058d6:	bf00      	nop
 80058d8:	00100002 	.word	0x00100002
 80058dc:	ffff0000 	.word	0xffff0000

080058e0 <HAL_I2C_Mem_Read>:
 80058e0:	e92d 43f0 	stmdb	sp!, {r4, r5, r6, r7, r8, r9, lr}
 80058e4:	4604      	mov	r4, r0
 80058e6:	b087      	sub	sp, #28
 80058e8:	4699      	mov	r9, r3
 80058ea:	9f10      	ldr	r7, [sp, #64]	; 0x40
 80058ec:	460d      	mov	r5, r1
 80058ee:	4690      	mov	r8, r2
 80058f0:	f7fe fea8 	bl	8004644 <HAL_GetTick>
 80058f4:	f894 303d 	ldrb.w	r3, [r4, #61]	; 0x3d
 80058f8:	2b20      	cmp	r3, #32
 80058fa:	4606      	mov	r6, r0
 80058fc:	d004      	beq.n	8005908 <HAL_I2C_Mem_Read+0x28>
 80058fe:	2502      	movs	r5, #2
 8005900:	4628      	mov	r0, r5
 8005902:	b007      	add	sp, #28
 8005904:	e8bd 83f0 	ldmia.w	sp!, {r4, r5, r6, r7, r8, r9, pc}
 8005908:	9000      	str	r0, [sp, #0]
 800590a:	4976      	ldr	r1, [pc, #472]	; (8005ae4 <HAL_I2C_Mem_Read+0x204>)
 800590c:	2319      	movs	r3, #25
 800590e:	2201      	movs	r2, #1
 8005910:	4620      	mov	r0, r4
 8005912:	f7ff fc13 	bl	800513c <I2C_WaitOnFlagUntilTimeout>
 8005916:	2800      	cmp	r0, #0
 8005918:	d1f1      	bne.n	80058fe <HAL_I2C_Mem_Read+0x1e>
 800591a:	f894 303c 	ldrb.w	r3, [r4, #60]	; 0x3c
 800591e:	2b01      	cmp	r3, #1
 8005920:	d0ed      	beq.n	80058fe <HAL_I2C_Mem_Read+0x1e>
 8005922:	6820      	ldr	r0, [r4, #0]
 8005924:	2301      	movs	r3, #1
 8005926:	f884 303c 	strb.w	r3, [r4, #60]	; 0x3c
 800592a:	6803      	ldr	r3, [r0, #0]
 800592c:	07db      	lsls	r3, r3, #31
 800592e:	bf5e      	ittt	pl
 8005930:	6803      	ldrpl	r3, [r0, #0]
 8005932:	f043 0301 	orrpl.w	r3, r3, #1
 8005936:	6003      	strpl	r3, [r0, #0]
 8005938:	6803      	ldr	r3, [r0, #0]
 800593a:	f423 6300 	bic.w	r3, r3, #2048	; 0x800
 800593e:	6003      	str	r3, [r0, #0]
 8005940:	2322      	movs	r3, #34	; 0x22
 8005942:	f884 303d 	strb.w	r3, [r4, #61]	; 0x3d
 8005946:	2340      	movs	r3, #64	; 0x40
 8005948:	f884 303e 	strb.w	r3, [r4, #62]	; 0x3e
 800594c:	2300      	movs	r3, #0
 800594e:	6423      	str	r3, [r4, #64]	; 0x40
 8005950:	9b0e      	ldr	r3, [sp, #56]	; 0x38
 8005952:	6263      	str	r3, [r4, #36]	; 0x24
 8005954:	f8bd 303c 	ldrh.w	r3, [sp, #60]	; 0x3c
 8005958:	8563      	strh	r3, [r4, #42]	; 0x2a
 800595a:	8d63      	ldrh	r3, [r4, #42]	; 0x2a
 800595c:	8523      	strh	r3, [r4, #40]	; 0x28
 800595e:	4b62      	ldr	r3, [pc, #392]	; (8005ae8 <HAL_I2C_Mem_Read+0x208>)
 8005960:	62e3      	str	r3, [r4, #44]	; 0x2c
 8005962:	4629      	mov	r1, r5
 8005964:	e9cd 7600 	strd	r7, r6, [sp]
 8005968:	464b      	mov	r3, r9
 800596a:	4642      	mov	r2, r8
 800596c:	4620      	mov	r0, r4
 800596e:	f7ff fd25 	bl	80053bc <I2C_RequestMemoryRead>
 8005972:	4605      	mov	r5, r0
 8005974:	b108      	cbz	r0, 800597a <HAL_I2C_Mem_Read+0x9a>
 8005976:	2501      	movs	r5, #1
 8005978:	e7c2      	b.n	8005900 <HAL_I2C_Mem_Read+0x20>
 800597a:	8d22      	ldrh	r2, [r4, #40]	; 0x28
 800597c:	6823      	ldr	r3, [r4, #0]
 800597e:	b9b2      	cbnz	r2, 80059ae <HAL_I2C_Mem_Read+0xce>
 8005980:	9002      	str	r0, [sp, #8]
 8005982:	695a      	ldr	r2, [r3, #20]
 8005984:	9202      	str	r2, [sp, #8]
 8005986:	699a      	ldr	r2, [r3, #24]
 8005988:	9202      	str	r2, [sp, #8]
 800598a:	9a02      	ldr	r2, [sp, #8]
 800598c:	681a      	ldr	r2, [r3, #0]
 800598e:	f442 7200 	orr.w	r2, r2, #512	; 0x200
 8005992:	601a      	str	r2, [r3, #0]
 8005994:	f8df 8154 	ldr.w	r8, [pc, #340]	; 8005aec <HAL_I2C_Mem_Read+0x20c>
 8005998:	8d23      	ldrh	r3, [r4, #40]	; 0x28
 800599a:	2b00      	cmp	r3, #0
 800599c:	d12c      	bne.n	80059f8 <HAL_I2C_Mem_Read+0x118>
 800599e:	2220      	movs	r2, #32
 80059a0:	f884 203d 	strb.w	r2, [r4, #61]	; 0x3d
 80059a4:	f884 303c 	strb.w	r3, [r4, #60]	; 0x3c
 80059a8:	f884 303e 	strb.w	r3, [r4, #62]	; 0x3e
 80059ac:	e7a8      	b.n	8005900 <HAL_I2C_Mem_Read+0x20>
 80059ae:	2a01      	cmp	r2, #1
 80059b0:	d10a      	bne.n	80059c8 <HAL_I2C_Mem_Read+0xe8>
 80059b2:	681a      	ldr	r2, [r3, #0]
 80059b4:	f422 6280 	bic.w	r2, r2, #1024	; 0x400
 80059b8:	601a      	str	r2, [r3, #0]
 80059ba:	9003      	str	r0, [sp, #12]
 80059bc:	695a      	ldr	r2, [r3, #20]
 80059be:	9203      	str	r2, [sp, #12]
 80059c0:	699a      	ldr	r2, [r3, #24]
 80059c2:	9203      	str	r2, [sp, #12]
 80059c4:	9a03      	ldr	r2, [sp, #12]
 80059c6:	e7e1      	b.n	800598c <HAL_I2C_Mem_Read+0xac>
 80059c8:	2a02      	cmp	r2, #2
 80059ca:	d10e      	bne.n	80059ea <HAL_I2C_Mem_Read+0x10a>
 80059cc:	681a      	ldr	r2, [r3, #0]
 80059ce:	f422 6280 	bic.w	r2, r2, #1024	; 0x400
 80059d2:	601a      	str	r2, [r3, #0]
 80059d4:	681a      	ldr	r2, [r3, #0]
 80059d6:	f442 6200 	orr.w	r2, r2, #2048	; 0x800
 80059da:	601a      	str	r2, [r3, #0]
 80059dc:	9004      	str	r0, [sp, #16]
 80059de:	695a      	ldr	r2, [r3, #20]
 80059e0:	9204      	str	r2, [sp, #16]
 80059e2:	699b      	ldr	r3, [r3, #24]
 80059e4:	9304      	str	r3, [sp, #16]
 80059e6:	9b04      	ldr	r3, [sp, #16]
 80059e8:	e7d4      	b.n	8005994 <HAL_I2C_Mem_Read+0xb4>
 80059ea:	9005      	str	r0, [sp, #20]
 80059ec:	695a      	ldr	r2, [r3, #20]
 80059ee:	9205      	str	r2, [sp, #20]
 80059f0:	699b      	ldr	r3, [r3, #24]
 80059f2:	9305      	str	r3, [sp, #20]
 80059f4:	9b05      	ldr	r3, [sp, #20]
 80059f6:	e7cd      	b.n	8005994 <HAL_I2C_Mem_Read+0xb4>
 80059f8:	2b03      	cmp	r3, #3
 80059fa:	d856      	bhi.n	8005aaa <HAL_I2C_Mem_Read+0x1ca>
 80059fc:	2b01      	cmp	r3, #1
 80059fe:	d115      	bne.n	8005a2c <HAL_I2C_Mem_Read+0x14c>
 8005a00:	4632      	mov	r2, r6
 8005a02:	4639      	mov	r1, r7
 8005a04:	4620      	mov	r0, r4
 8005a06:	f7ff fc06 	bl	8005216 <I2C_WaitOnRXNEFlagUntilTimeout>
 8005a0a:	2800      	cmp	r0, #0
 8005a0c:	d1b3      	bne.n	8005976 <HAL_I2C_Mem_Read+0x96>
 8005a0e:	6823      	ldr	r3, [r4, #0]
 8005a10:	691a      	ldr	r2, [r3, #16]
 8005a12:	6a63      	ldr	r3, [r4, #36]	; 0x24
 8005a14:	701a      	strb	r2, [r3, #0]
 8005a16:	6a63      	ldr	r3, [r4, #36]	; 0x24
 8005a18:	3301      	adds	r3, #1
 8005a1a:	6263      	str	r3, [r4, #36]	; 0x24
 8005a1c:	8d23      	ldrh	r3, [r4, #40]	; 0x28
 8005a1e:	3b01      	subs	r3, #1
 8005a20:	8523      	strh	r3, [r4, #40]	; 0x28
 8005a22:	8d63      	ldrh	r3, [r4, #42]	; 0x2a
 8005a24:	3b01      	subs	r3, #1
 8005a26:	b29b      	uxth	r3, r3
 8005a28:	8563      	strh	r3, [r4, #42]	; 0x2a
 8005a2a:	e7b5      	b.n	8005998 <HAL_I2C_Mem_Read+0xb8>
 8005a2c:	2b02      	cmp	r3, #2
 8005a2e:	9600      	str	r6, [sp, #0]
 8005a30:	463b      	mov	r3, r7
 8005a32:	f04f 0200 	mov.w	r2, #0
 8005a36:	4641      	mov	r1, r8
 8005a38:	4620      	mov	r0, r4
 8005a3a:	d119      	bne.n	8005a70 <HAL_I2C_Mem_Read+0x190>
 8005a3c:	f7ff fb7e 	bl	800513c <I2C_WaitOnFlagUntilTimeout>
 8005a40:	2800      	cmp	r0, #0
 8005a42:	d198      	bne.n	8005976 <HAL_I2C_Mem_Read+0x96>
 8005a44:	6823      	ldr	r3, [r4, #0]
 8005a46:	681a      	ldr	r2, [r3, #0]
 8005a48:	f442 7200 	orr.w	r2, r2, #512	; 0x200
 8005a4c:	601a      	str	r2, [r3, #0]
 8005a4e:	691a      	ldr	r2, [r3, #16]
 8005a50:	6a63      	ldr	r3, [r4, #36]	; 0x24
 8005a52:	701a      	strb	r2, [r3, #0]
 8005a54:	6a62      	ldr	r2, [r4, #36]	; 0x24
 8005a56:	1c53      	adds	r3, r2, #1
 8005a58:	6263      	str	r3, [r4, #36]	; 0x24
 8005a5a:	8d23      	ldrh	r3, [r4, #40]	; 0x28
 8005a5c:	3b01      	subs	r3, #1
 8005a5e:	8523      	strh	r3, [r4, #40]	; 0x28
 8005a60:	8d63      	ldrh	r3, [r4, #42]	; 0x2a
 8005a62:	3b01      	subs	r3, #1
 8005a64:	b29b      	uxth	r3, r3
 8005a66:	8563      	strh	r3, [r4, #42]	; 0x2a
 8005a68:	6823      	ldr	r3, [r4, #0]
 8005a6a:	691b      	ldr	r3, [r3, #16]
 8005a6c:	7053      	strb	r3, [r2, #1]
 8005a6e:	e7d2      	b.n	8005a16 <HAL_I2C_Mem_Read+0x136>
 8005a70:	f7ff fb64 	bl	800513c <I2C_WaitOnFlagUntilTimeout>
 8005a74:	2800      	cmp	r0, #0
 8005a76:	f47f af7e 	bne.w	8005976 <HAL_I2C_Mem_Read+0x96>
 8005a7a:	6823      	ldr	r3, [r4, #0]
 8005a7c:	681a      	ldr	r2, [r3, #0]
 8005a7e:	f422 6280 	bic.w	r2, r2, #1024	; 0x400
 8005a82:	601a      	str	r2, [r3, #0]
 8005a84:	691a      	ldr	r2, [r3, #16]
 8005a86:	6a63      	ldr	r3, [r4, #36]	; 0x24
 8005a88:	701a      	strb	r2, [r3, #0]
 8005a8a:	6a63      	ldr	r3, [r4, #36]	; 0x24
 8005a8c:	9600      	str	r6, [sp, #0]
 8005a8e:	3301      	adds	r3, #1
 8005a90:	6263      	str	r3, [r4, #36]	; 0x24
 8005a92:	8d23      	ldrh	r3, [r4, #40]	; 0x28
 8005a94:	3b01      	subs	r3, #1
 8005a96:	8523      	strh	r3, [r4, #40]	; 0x28
 8005a98:	8d63      	ldrh	r3, [r4, #42]	; 0x2a
 8005a9a:	3b01      	subs	r3, #1
 8005a9c:	b29b      	uxth	r3, r3
 8005a9e:	8563      	strh	r3, [r4, #42]	; 0x2a
 8005aa0:	4602      	mov	r2, r0
 8005aa2:	463b      	mov	r3, r7
 8005aa4:	4641      	mov	r1, r8
 8005aa6:	4620      	mov	r0, r4
 8005aa8:	e7c8      	b.n	8005a3c <HAL_I2C_Mem_Read+0x15c>
 8005aaa:	4632      	mov	r2, r6
 8005aac:	4639      	mov	r1, r7
 8005aae:	4620      	mov	r0, r4
 8005ab0:	f7ff fbb1 	bl	8005216 <I2C_WaitOnRXNEFlagUntilTimeout>
 8005ab4:	2800      	cmp	r0, #0
 8005ab6:	f47f af5e 	bne.w	8005976 <HAL_I2C_Mem_Read+0x96>
 8005aba:	6823      	ldr	r3, [r4, #0]
 8005abc:	691a      	ldr	r2, [r3, #16]
 8005abe:	6a63      	ldr	r3, [r4, #36]	; 0x24
 8005ac0:	701a      	strb	r2, [r3, #0]
 8005ac2:	6a62      	ldr	r2, [r4, #36]	; 0x24
 8005ac4:	1c53      	adds	r3, r2, #1
 8005ac6:	6263      	str	r3, [r4, #36]	; 0x24
 8005ac8:	8d23      	ldrh	r3, [r4, #40]	; 0x28
 8005aca:	3b01      	subs	r3, #1
 8005acc:	8523      	strh	r3, [r4, #40]	; 0x28
 8005ace:	8d63      	ldrh	r3, [r4, #42]	; 0x2a
 8005ad0:	3b01      	subs	r3, #1
 8005ad2:	b29b      	uxth	r3, r3
 8005ad4:	8563      	strh	r3, [r4, #42]	; 0x2a
 8005ad6:	6823      	ldr	r3, [r4, #0]
 8005ad8:	6959      	ldr	r1, [r3, #20]
 8005ada:	0749      	lsls	r1, r1, #29
 8005adc:	f57f af5c 	bpl.w	8005998 <HAL_I2C_Mem_Read+0xb8>
 8005ae0:	e7c3      	b.n	8005a6a <HAL_I2C_Mem_Read+0x18a>
 8005ae2:	bf00      	nop
 8005ae4:	00100002 	.word	0x00100002
 8005ae8:	ffff0000 	.word	0xffff0000
 8005aec:	00010004 	.word	0x00010004

08005af0 <HAL_RCC_OscConfig>:
 8005af0:	e92d 41f3 	stmdb	sp!, {r0, r1, r4, r5, r6, r7, r8, lr}
 8005af4:	4604      	mov	r4, r0
 8005af6:	b340      	cbz	r0, 8005b4a <HAL_RCC_OscConfig+0x5a>
 8005af8:	6803      	ldr	r3, [r0, #0]
 8005afa:	07dd      	lsls	r5, r3, #31
 8005afc:	d410      	bmi.n	8005b20 <HAL_RCC_OscConfig+0x30>
 8005afe:	6823      	ldr	r3, [r4, #0]
 8005b00:	0798      	lsls	r0, r3, #30
 8005b02:	d45e      	bmi.n	8005bc2 <HAL_RCC_OscConfig+0xd2>
 8005b04:	6823      	ldr	r3, [r4, #0]
 8005b06:	071a      	lsls	r2, r3, #28
 8005b08:	f100 80a0 	bmi.w	8005c4c <HAL_RCC_OscConfig+0x15c>
 8005b0c:	6823      	ldr	r3, [r4, #0]
 8005b0e:	075b      	lsls	r3, r3, #29
 8005b10:	f100 80c0 	bmi.w	8005c94 <HAL_RCC_OscConfig+0x1a4>
 8005b14:	69a0      	ldr	r0, [r4, #24]
 8005b16:	2800      	cmp	r0, #0
 8005b18:	f040 8128 	bne.w	8005d6c <HAL_RCC_OscConfig+0x27c>
 8005b1c:	2000      	movs	r0, #0
 8005b1e:	e02b      	b.n	8005b78 <HAL_RCC_OscConfig+0x88>
 8005b20:	4b8f      	ldr	r3, [pc, #572]	; (8005d60 <HAL_RCC_OscConfig+0x270>)
 8005b22:	689a      	ldr	r2, [r3, #8]
 8005b24:	f002 020c 	and.w	r2, r2, #12
 8005b28:	2a04      	cmp	r2, #4
 8005b2a:	d007      	beq.n	8005b3c <HAL_RCC_OscConfig+0x4c>
 8005b2c:	689a      	ldr	r2, [r3, #8]
 8005b2e:	f002 020c 	and.w	r2, r2, #12
 8005b32:	2a08      	cmp	r2, #8
 8005b34:	d10b      	bne.n	8005b4e <HAL_RCC_OscConfig+0x5e>
 8005b36:	685a      	ldr	r2, [r3, #4]
 8005b38:	0251      	lsls	r1, r2, #9
 8005b3a:	d508      	bpl.n	8005b4e <HAL_RCC_OscConfig+0x5e>
 8005b3c:	4b88      	ldr	r3, [pc, #544]	; (8005d60 <HAL_RCC_OscConfig+0x270>)
 8005b3e:	681b      	ldr	r3, [r3, #0]
 8005b40:	039a      	lsls	r2, r3, #14
 8005b42:	d5dc      	bpl.n	8005afe <HAL_RCC_OscConfig+0xe>
 8005b44:	6863      	ldr	r3, [r4, #4]
 8005b46:	2b00      	cmp	r3, #0
 8005b48:	d1d9      	bne.n	8005afe <HAL_RCC_OscConfig+0xe>
 8005b4a:	2001      	movs	r0, #1
 8005b4c:	e014      	b.n	8005b78 <HAL_RCC_OscConfig+0x88>
 8005b4e:	6862      	ldr	r2, [r4, #4]
 8005b50:	f5b2 3f80 	cmp.w	r2, #65536	; 0x10000
 8005b54:	d113      	bne.n	8005b7e <HAL_RCC_OscConfig+0x8e>
 8005b56:	681a      	ldr	r2, [r3, #0]
 8005b58:	f442 3280 	orr.w	r2, r2, #65536	; 0x10000
 8005b5c:	601a      	str	r2, [r3, #0]
 8005b5e:	f7fe fd71 	bl	8004644 <HAL_GetTick>
 8005b62:	4e7f      	ldr	r6, [pc, #508]	; (8005d60 <HAL_RCC_OscConfig+0x270>)
 8005b64:	4605      	mov	r5, r0
 8005b66:	6833      	ldr	r3, [r6, #0]
 8005b68:	039b      	lsls	r3, r3, #14
 8005b6a:	d4c8      	bmi.n	8005afe <HAL_RCC_OscConfig+0xe>
 8005b6c:	f7fe fd6a 	bl	8004644 <HAL_GetTick>
 8005b70:	1b40      	subs	r0, r0, r5
 8005b72:	2864      	cmp	r0, #100	; 0x64
 8005b74:	d9f7      	bls.n	8005b66 <HAL_RCC_OscConfig+0x76>
 8005b76:	2003      	movs	r0, #3
 8005b78:	b002      	add	sp, #8
 8005b7a:	e8bd 81f0 	ldmia.w	sp!, {r4, r5, r6, r7, r8, pc}
 8005b7e:	4d78      	ldr	r5, [pc, #480]	; (8005d60 <HAL_RCC_OscConfig+0x270>)
 8005b80:	f5b2 2fa0 	cmp.w	r2, #327680	; 0x50000
 8005b84:	682b      	ldr	r3, [r5, #0]
 8005b86:	d107      	bne.n	8005b98 <HAL_RCC_OscConfig+0xa8>
 8005b88:	f443 2380 	orr.w	r3, r3, #262144	; 0x40000
 8005b8c:	602b      	str	r3, [r5, #0]
 8005b8e:	682b      	ldr	r3, [r5, #0]
 8005b90:	f443 3380 	orr.w	r3, r3, #65536	; 0x10000
 8005b94:	602b      	str	r3, [r5, #0]
 8005b96:	e7e2      	b.n	8005b5e <HAL_RCC_OscConfig+0x6e>
 8005b98:	f423 3380 	bic.w	r3, r3, #65536	; 0x10000
 8005b9c:	602b      	str	r3, [r5, #0]
 8005b9e:	682b      	ldr	r3, [r5, #0]
 8005ba0:	f423 2380 	bic.w	r3, r3, #262144	; 0x40000
 8005ba4:	602b      	str	r3, [r5, #0]
 8005ba6:	2a00      	cmp	r2, #0
 8005ba8:	d1d9      	bne.n	8005b5e <HAL_RCC_OscConfig+0x6e>
 8005baa:	f7fe fd4b 	bl	8004644 <HAL_GetTick>
 8005bae:	4606      	mov	r6, r0
 8005bb0:	682b      	ldr	r3, [r5, #0]
 8005bb2:	039f      	lsls	r7, r3, #14
 8005bb4:	d5a3      	bpl.n	8005afe <HAL_RCC_OscConfig+0xe>
 8005bb6:	f7fe fd45 	bl	8004644 <HAL_GetTick>
 8005bba:	1b80      	subs	r0, r0, r6
 8005bbc:	2864      	cmp	r0, #100	; 0x64
 8005bbe:	d9f7      	bls.n	8005bb0 <HAL_RCC_OscConfig+0xc0>
 8005bc0:	e7d9      	b.n	8005b76 <HAL_RCC_OscConfig+0x86>
 8005bc2:	4b67      	ldr	r3, [pc, #412]	; (8005d60 <HAL_RCC_OscConfig+0x270>)
 8005bc4:	689a      	ldr	r2, [r3, #8]
 8005bc6:	f012 0f0c 	tst.w	r2, #12
 8005bca:	d007      	beq.n	8005bdc <HAL_RCC_OscConfig+0xec>
 8005bcc:	689a      	ldr	r2, [r3, #8]
 8005bce:	f002 020c 	and.w	r2, r2, #12
 8005bd2:	2a08      	cmp	r2, #8
 8005bd4:	d111      	bne.n	8005bfa <HAL_RCC_OscConfig+0x10a>
 8005bd6:	685b      	ldr	r3, [r3, #4]
 8005bd8:	025e      	lsls	r6, r3, #9
 8005bda:	d40e      	bmi.n	8005bfa <HAL_RCC_OscConfig+0x10a>
 8005bdc:	4a60      	ldr	r2, [pc, #384]	; (8005d60 <HAL_RCC_OscConfig+0x270>)
 8005bde:	6813      	ldr	r3, [r2, #0]
 8005be0:	079d      	lsls	r5, r3, #30
 8005be2:	d502      	bpl.n	8005bea <HAL_RCC_OscConfig+0xfa>
 8005be4:	68e3      	ldr	r3, [r4, #12]
 8005be6:	2b01      	cmp	r3, #1
 8005be8:	d1af      	bne.n	8005b4a <HAL_RCC_OscConfig+0x5a>
 8005bea:	6813      	ldr	r3, [r2, #0]
 8005bec:	6921      	ldr	r1, [r4, #16]
 8005bee:	f023 03f8 	bic.w	r3, r3, #248	; 0xf8
 8005bf2:	ea43 03c1 	orr.w	r3, r3, r1, lsl #3
 8005bf6:	6013      	str	r3, [r2, #0]
 8005bf8:	e784      	b.n	8005b04 <HAL_RCC_OscConfig+0x14>
 8005bfa:	68e2      	ldr	r2, [r4, #12]
 8005bfc:	4b59      	ldr	r3, [pc, #356]	; (8005d64 <HAL_RCC_OscConfig+0x274>)
 8005bfe:	b1b2      	cbz	r2, 8005c2e <HAL_RCC_OscConfig+0x13e>
 8005c00:	2201      	movs	r2, #1
 8005c02:	601a      	str	r2, [r3, #0]
 8005c04:	f7fe fd1e 	bl	8004644 <HAL_GetTick>
 8005c08:	4d55      	ldr	r5, [pc, #340]	; (8005d60 <HAL_RCC_OscConfig+0x270>)
 8005c0a:	4606      	mov	r6, r0
 8005c0c:	682b      	ldr	r3, [r5, #0]
 8005c0e:	0798      	lsls	r0, r3, #30
 8005c10:	d507      	bpl.n	8005c22 <HAL_RCC_OscConfig+0x132>
 8005c12:	682b      	ldr	r3, [r5, #0]
 8005c14:	6922      	ldr	r2, [r4, #16]
 8005c16:	f023 03f8 	bic.w	r3, r3, #248	; 0xf8
 8005c1a:	ea43 03c2 	orr.w	r3, r3, r2, lsl #3
 8005c1e:	602b      	str	r3, [r5, #0]
 8005c20:	e770      	b.n	8005b04 <HAL_RCC_OscConfig+0x14>
 8005c22:	f7fe fd0f 	bl	8004644 <HAL_GetTick>
 8005c26:	1b80      	subs	r0, r0, r6
 8005c28:	2802      	cmp	r0, #2
 8005c2a:	d9ef      	bls.n	8005c0c <HAL_RCC_OscConfig+0x11c>
 8005c2c:	e7a3      	b.n	8005b76 <HAL_RCC_OscConfig+0x86>
 8005c2e:	601a      	str	r2, [r3, #0]
 8005c30:	f7fe fd08 	bl	8004644 <HAL_GetTick>
 8005c34:	4e4a      	ldr	r6, [pc, #296]	; (8005d60 <HAL_RCC_OscConfig+0x270>)
 8005c36:	4605      	mov	r5, r0
 8005c38:	6833      	ldr	r3, [r6, #0]
 8005c3a:	0799      	lsls	r1, r3, #30
 8005c3c:	f57f af62 	bpl.w	8005b04 <HAL_RCC_OscConfig+0x14>
 8005c40:	f7fe fd00 	bl	8004644 <HAL_GetTick>
 8005c44:	1b40      	subs	r0, r0, r5
 8005c46:	2802      	cmp	r0, #2
 8005c48:	d9f6      	bls.n	8005c38 <HAL_RCC_OscConfig+0x148>
 8005c4a:	e794      	b.n	8005b76 <HAL_RCC_OscConfig+0x86>
 8005c4c:	6962      	ldr	r2, [r4, #20]
 8005c4e:	4b45      	ldr	r3, [pc, #276]	; (8005d64 <HAL_RCC_OscConfig+0x274>)
 8005c50:	b182      	cbz	r2, 8005c74 <HAL_RCC_OscConfig+0x184>
 8005c52:	2201      	movs	r2, #1
 8005c54:	f8c3 2e80 	str.w	r2, [r3, #3712]	; 0xe80
 8005c58:	f7fe fcf4 	bl	8004644 <HAL_GetTick>
 8005c5c:	4e40      	ldr	r6, [pc, #256]	; (8005d60 <HAL_RCC_OscConfig+0x270>)
 8005c5e:	4605      	mov	r5, r0
 8005c60:	6f73      	ldr	r3, [r6, #116]	; 0x74
 8005c62:	079f      	lsls	r7, r3, #30
 8005c64:	f53f af52 	bmi.w	8005b0c <HAL_RCC_OscConfig+0x1c>
 8005c68:	f7fe fcec 	bl	8004644 <HAL_GetTick>
 8005c6c:	1b40      	subs	r0, r0, r5
 8005c6e:	2802      	cmp	r0, #2
 8005c70:	d9f6      	bls.n	8005c60 <HAL_RCC_OscConfig+0x170>
 8005c72:	e780      	b.n	8005b76 <HAL_RCC_OscConfig+0x86>
 8005c74:	f8c3 2e80 	str.w	r2, [r3, #3712]	; 0xe80
 8005c78:	f7fe fce4 	bl	8004644 <HAL_GetTick>
 8005c7c:	4e38      	ldr	r6, [pc, #224]	; (8005d60 <HAL_RCC_OscConfig+0x270>)
 8005c7e:	4605      	mov	r5, r0
 8005c80:	6f73      	ldr	r3, [r6, #116]	; 0x74
 8005c82:	0798      	lsls	r0, r3, #30
 8005c84:	f57f af42 	bpl.w	8005b0c <HAL_RCC_OscConfig+0x1c>
 8005c88:	f7fe fcdc 	bl	8004644 <HAL_GetTick>
 8005c8c:	1b40      	subs	r0, r0, r5
 8005c8e:	2802      	cmp	r0, #2
 8005c90:	d9f6      	bls.n	8005c80 <HAL_RCC_OscConfig+0x190>
 8005c92:	e770      	b.n	8005b76 <HAL_RCC_OscConfig+0x86>
 8005c94:	4b32      	ldr	r3, [pc, #200]	; (8005d60 <HAL_RCC_OscConfig+0x270>)
 8005c96:	6c1a      	ldr	r2, [r3, #64]	; 0x40
 8005c98:	f012 5280 	ands.w	r2, r2, #268435456	; 0x10000000
 8005c9c:	d128      	bne.n	8005cf0 <HAL_RCC_OscConfig+0x200>
 8005c9e:	9201      	str	r2, [sp, #4]
 8005ca0:	6c1a      	ldr	r2, [r3, #64]	; 0x40
 8005ca2:	f042 5280 	orr.w	r2, r2, #268435456	; 0x10000000
 8005ca6:	641a      	str	r2, [r3, #64]	; 0x40
 8005ca8:	6c1b      	ldr	r3, [r3, #64]	; 0x40
 8005caa:	f003 5380 	and.w	r3, r3, #268435456	; 0x10000000
 8005cae:	9301      	str	r3, [sp, #4]
 8005cb0:	9b01      	ldr	r3, [sp, #4]
 8005cb2:	2701      	movs	r7, #1
 8005cb4:	4d2c      	ldr	r5, [pc, #176]	; (8005d68 <HAL_RCC_OscConfig+0x278>)
 8005cb6:	682b      	ldr	r3, [r5, #0]
 8005cb8:	05d9      	lsls	r1, r3, #23
 8005cba:	d51b      	bpl.n	8005cf4 <HAL_RCC_OscConfig+0x204>
 8005cbc:	68a3      	ldr	r3, [r4, #8]
 8005cbe:	4d28      	ldr	r5, [pc, #160]	; (8005d60 <HAL_RCC_OscConfig+0x270>)
 8005cc0:	2b01      	cmp	r3, #1
 8005cc2:	d127      	bne.n	8005d14 <HAL_RCC_OscConfig+0x224>
 8005cc4:	6f2b      	ldr	r3, [r5, #112]	; 0x70
 8005cc6:	f043 0301 	orr.w	r3, r3, #1
 8005cca:	672b      	str	r3, [r5, #112]	; 0x70
 8005ccc:	f7fe fcba 	bl	8004644 <HAL_GetTick>
 8005cd0:	4e23      	ldr	r6, [pc, #140]	; (8005d60 <HAL_RCC_OscConfig+0x270>)
 8005cd2:	4605      	mov	r5, r0
 8005cd4:	f241 3888 	movw	r8, #5000	; 0x1388
 8005cd8:	6f33      	ldr	r3, [r6, #112]	; 0x70
 8005cda:	079b      	lsls	r3, r3, #30
 8005cdc:	d539      	bpl.n	8005d52 <HAL_RCC_OscConfig+0x262>
 8005cde:	2f00      	cmp	r7, #0
 8005ce0:	f43f af18 	beq.w	8005b14 <HAL_RCC_OscConfig+0x24>
 8005ce4:	4a1e      	ldr	r2, [pc, #120]	; (8005d60 <HAL_RCC_OscConfig+0x270>)
 8005ce6:	6c13      	ldr	r3, [r2, #64]	; 0x40
 8005ce8:	f023 5380 	bic.w	r3, r3, #268435456	; 0x10000000
 8005cec:	6413      	str	r3, [r2, #64]	; 0x40
 8005cee:	e711      	b.n	8005b14 <HAL_RCC_OscConfig+0x24>
 8005cf0:	2700      	movs	r7, #0
 8005cf2:	e7df      	b.n	8005cb4 <HAL_RCC_OscConfig+0x1c4>
 8005cf4:	682b      	ldr	r3, [r5, #0]
 8005cf6:	f443 7380 	orr.w	r3, r3, #256	; 0x100
 8005cfa:	602b      	str	r3, [r5, #0]
 8005cfc:	f7fe fca2 	bl	8004644 <HAL_GetTick>
 8005d00:	4606      	mov	r6, r0
 8005d02:	682b      	ldr	r3, [r5, #0]
 8005d04:	05da      	lsls	r2, r3, #23
 8005d06:	d4d9      	bmi.n	8005cbc <HAL_RCC_OscConfig+0x1cc>
 8005d08:	f7fe fc9c 	bl	8004644 <HAL_GetTick>
 8005d0c:	1b80      	subs	r0, r0, r6
 8005d0e:	2802      	cmp	r0, #2
 8005d10:	d9f7      	bls.n	8005d02 <HAL_RCC_OscConfig+0x212>
 8005d12:	e730      	b.n	8005b76 <HAL_RCC_OscConfig+0x86>
 8005d14:	2b05      	cmp	r3, #5
 8005d16:	d104      	bne.n	8005d22 <HAL_RCC_OscConfig+0x232>
 8005d18:	6f2b      	ldr	r3, [r5, #112]	; 0x70
 8005d1a:	f043 0304 	orr.w	r3, r3, #4
 8005d1e:	672b      	str	r3, [r5, #112]	; 0x70
 8005d20:	e7d0      	b.n	8005cc4 <HAL_RCC_OscConfig+0x1d4>
 8005d22:	6f2a      	ldr	r2, [r5, #112]	; 0x70
 8005d24:	f022 0201 	bic.w	r2, r2, #1
 8005d28:	672a      	str	r2, [r5, #112]	; 0x70
 8005d2a:	6f2a      	ldr	r2, [r5, #112]	; 0x70
 8005d2c:	f022 0204 	bic.w	r2, r2, #4
 8005d30:	672a      	str	r2, [r5, #112]	; 0x70
 8005d32:	2b00      	cmp	r3, #0
 8005d34:	d1ca      	bne.n	8005ccc <HAL_RCC_OscConfig+0x1dc>
 8005d36:	f7fe fc85 	bl	8004644 <HAL_GetTick>
 8005d3a:	f241 3888 	movw	r8, #5000	; 0x1388
 8005d3e:	4606      	mov	r6, r0
 8005d40:	6f2b      	ldr	r3, [r5, #112]	; 0x70
 8005d42:	0798      	lsls	r0, r3, #30
 8005d44:	d5cb      	bpl.n	8005cde <HAL_RCC_OscConfig+0x1ee>
 8005d46:	f7fe fc7d 	bl	8004644 <HAL_GetTick>
 8005d4a:	1b80      	subs	r0, r0, r6
 8005d4c:	4540      	cmp	r0, r8
 8005d4e:	d9f7      	bls.n	8005d40 <HAL_RCC_OscConfig+0x250>
 8005d50:	e711      	b.n	8005b76 <HAL_RCC_OscConfig+0x86>
 8005d52:	f7fe fc77 	bl	8004644 <HAL_GetTick>
 8005d56:	1b40      	subs	r0, r0, r5
 8005d58:	4540      	cmp	r0, r8
 8005d5a:	d9bd      	bls.n	8005cd8 <HAL_RCC_OscConfig+0x1e8>
 8005d5c:	e70b      	b.n	8005b76 <HAL_RCC_OscConfig+0x86>
 8005d5e:	bf00      	nop
 8005d60:	40023800 	.word	0x40023800
 8005d64:	42470000 	.word	0x42470000
 8005d68:	40007000 	.word	0x40007000
 8005d6c:	4d36      	ldr	r5, [pc, #216]	; (8005e48 <HAL_RCC_OscConfig+0x358>)
 8005d6e:	68ab      	ldr	r3, [r5, #8]
 8005d70:	f003 030c 	and.w	r3, r3, #12
 8005d74:	2b08      	cmp	r3, #8
 8005d76:	d03d      	beq.n	8005df4 <HAL_RCC_OscConfig+0x304>
 8005d78:	4b34      	ldr	r3, [pc, #208]	; (8005e4c <HAL_RCC_OscConfig+0x35c>)
 8005d7a:	2200      	movs	r2, #0
 8005d7c:	2802      	cmp	r0, #2
 8005d7e:	661a      	str	r2, [r3, #96]	; 0x60
 8005d80:	d12b      	bne.n	8005dda <HAL_RCC_OscConfig+0x2ea>
 8005d82:	f7fe fc5f 	bl	8004644 <HAL_GetTick>
 8005d86:	4606      	mov	r6, r0
 8005d88:	682b      	ldr	r3, [r5, #0]
 8005d8a:	0199      	lsls	r1, r3, #6
 8005d8c:	d41f      	bmi.n	8005dce <HAL_RCC_OscConfig+0x2de>
 8005d8e:	e9d4 3207 	ldrd	r3, r2, [r4, #28]
 8005d92:	4313      	orrs	r3, r2
 8005d94:	6a62      	ldr	r2, [r4, #36]	; 0x24
 8005d96:	ea43 1382 	orr.w	r3, r3, r2, lsl #6
 8005d9a:	6ae2      	ldr	r2, [r4, #44]	; 0x2c
 8005d9c:	ea43 6302 	orr.w	r3, r3, r2, lsl #24
 8005da0:	6aa2      	ldr	r2, [r4, #40]	; 0x28
 8005da2:	0852      	lsrs	r2, r2, #1
 8005da4:	3a01      	subs	r2, #1
 8005da6:	ea43 4302 	orr.w	r3, r3, r2, lsl #16
 8005daa:	606b      	str	r3, [r5, #4]
 8005dac:	4b27      	ldr	r3, [pc, #156]	; (8005e4c <HAL_RCC_OscConfig+0x35c>)
 8005dae:	4d26      	ldr	r5, [pc, #152]	; (8005e48 <HAL_RCC_OscConfig+0x358>)
 8005db0:	2201      	movs	r2, #1
 8005db2:	661a      	str	r2, [r3, #96]	; 0x60
 8005db4:	f7fe fc46 	bl	8004644 <HAL_GetTick>
 8005db8:	4604      	mov	r4, r0
 8005dba:	682b      	ldr	r3, [r5, #0]
 8005dbc:	019a      	lsls	r2, r3, #6
 8005dbe:	f53f aead 	bmi.w	8005b1c <HAL_RCC_OscConfig+0x2c>
 8005dc2:	f7fe fc3f 	bl	8004644 <HAL_GetTick>
 8005dc6:	1b00      	subs	r0, r0, r4
 8005dc8:	2802      	cmp	r0, #2
 8005dca:	d9f6      	bls.n	8005dba <HAL_RCC_OscConfig+0x2ca>
 8005dcc:	e6d3      	b.n	8005b76 <HAL_RCC_OscConfig+0x86>
 8005dce:	f7fe fc39 	bl	8004644 <HAL_GetTick>
 8005dd2:	1b80      	subs	r0, r0, r6
 8005dd4:	2802      	cmp	r0, #2
 8005dd6:	d9d7      	bls.n	8005d88 <HAL_RCC_OscConfig+0x298>
 8005dd8:	e6cd      	b.n	8005b76 <HAL_RCC_OscConfig+0x86>
 8005dda:	f7fe fc33 	bl	8004644 <HAL_GetTick>
 8005dde:	4604      	mov	r4, r0
 8005de0:	682b      	ldr	r3, [r5, #0]
 8005de2:	019b      	lsls	r3, r3, #6
 8005de4:	f57f ae9a 	bpl.w	8005b1c <HAL_RCC_OscConfig+0x2c>
 8005de8:	f7fe fc2c 	bl	8004644 <HAL_GetTick>
 8005dec:	1b00      	subs	r0, r0, r4
 8005dee:	2802      	cmp	r0, #2
 8005df0:	d9f6      	bls.n	8005de0 <HAL_RCC_OscConfig+0x2f0>
 8005df2:	e6c0      	b.n	8005b76 <HAL_RCC_OscConfig+0x86>
 8005df4:	2801      	cmp	r0, #1
 8005df6:	f43f aebf 	beq.w	8005b78 <HAL_RCC_OscConfig+0x88>
 8005dfa:	686b      	ldr	r3, [r5, #4]
 8005dfc:	69e2      	ldr	r2, [r4, #28]
 8005dfe:	f403 0180 	and.w	r1, r3, #4194304	; 0x400000
 8005e02:	4291      	cmp	r1, r2
 8005e04:	f47f aea1 	bne.w	8005b4a <HAL_RCC_OscConfig+0x5a>
 8005e08:	6a21      	ldr	r1, [r4, #32]
 8005e0a:	f003 023f 	and.w	r2, r3, #63	; 0x3f
 8005e0e:	428a      	cmp	r2, r1
 8005e10:	f47f ae9b 	bne.w	8005b4a <HAL_RCC_OscConfig+0x5a>
 8005e14:	6a61      	ldr	r1, [r4, #36]	; 0x24
 8005e16:	f647 72c0 	movw	r2, #32704	; 0x7fc0
 8005e1a:	401a      	ands	r2, r3
 8005e1c:	ebb2 1f81 	cmp.w	r2, r1, lsl #6
 8005e20:	f47f ae93 	bne.w	8005b4a <HAL_RCC_OscConfig+0x5a>
 8005e24:	6aa2      	ldr	r2, [r4, #40]	; 0x28
 8005e26:	0852      	lsrs	r2, r2, #1
 8005e28:	f403 3140 	and.w	r1, r3, #196608	; 0x30000
 8005e2c:	3a01      	subs	r2, #1
 8005e2e:	ebb1 4f02 	cmp.w	r1, r2, lsl #16
 8005e32:	f47f ae8a 	bne.w	8005b4a <HAL_RCC_OscConfig+0x5a>
 8005e36:	6ae2      	ldr	r2, [r4, #44]	; 0x2c
 8005e38:	f003 6370 	and.w	r3, r3, #251658240	; 0xf000000
 8005e3c:	ebb3 6f02 	cmp.w	r3, r2, lsl #24
 8005e40:	f43f ae6c 	beq.w	8005b1c <HAL_RCC_OscConfig+0x2c>
 8005e44:	e681      	b.n	8005b4a <HAL_RCC_OscConfig+0x5a>
 8005e46:	bf00      	nop
 8005e48:	40023800 	.word	0x40023800
 8005e4c:	42470000 	.word	0x42470000

08005e50 <HAL_RCC_GetSysClockFreq>:
 8005e50:	b538      	push	{r3, r4, r5, lr}
 8005e52:	4d14      	ldr	r5, [pc, #80]	; (8005ea4 <HAL_RCC_GetSysClockFreq+0x54>)
 8005e54:	68ab      	ldr	r3, [r5, #8]
 8005e56:	f003 030c 	and.w	r3, r3, #12
 8005e5a:	2b08      	cmp	r3, #8
 8005e5c:	d11f      	bne.n	8005e9e <HAL_RCC_GetSysClockFreq+0x4e>
 8005e5e:	686a      	ldr	r2, [r5, #4]
 8005e60:	686b      	ldr	r3, [r5, #4]
 8005e62:	4811      	ldr	r0, [pc, #68]	; (8005ea8 <HAL_RCC_GetSysClockFreq+0x58>)
 8005e64:	f413 0380 	ands.w	r3, r3, #4194304	; 0x400000
 8005e68:	bf15      	itete	ne
 8005e6a:	6869      	ldrne	r1, [r5, #4]
 8005e6c:	686c      	ldreq	r4, [r5, #4]
 8005e6e:	f3c1 1188 	ubfxne	r1, r1, #6, #9
 8005e72:	f3c4 1488 	ubfxeq	r4, r4, #6, #9
 8005e76:	bf18      	it	ne
 8005e78:	2300      	movne	r3, #0
 8005e7a:	f002 023f 	and.w	r2, r2, #63	; 0x3f
 8005e7e:	bf14      	ite	ne
 8005e80:	fba1 0100 	umullne	r0, r1, r1, r0
 8005e84:	fba4 0100 	umulleq	r0, r1, r4, r0
 8005e88:	f7fa fef6 	bl	8000c78 <__aeabi_uldivmod>
 8005e8c:	4b05      	ldr	r3, [pc, #20]	; (8005ea4 <HAL_RCC_GetSysClockFreq+0x54>)
 8005e8e:	685b      	ldr	r3, [r3, #4]
 8005e90:	f3c3 4301 	ubfx	r3, r3, #16, #2
 8005e94:	3301      	adds	r3, #1
 8005e96:	005b      	lsls	r3, r3, #1
 8005e98:	fbb0 f0f3 	udiv	r0, r0, r3
 8005e9c:	bd38      	pop	{r3, r4, r5, pc}
 8005e9e:	4802      	ldr	r0, [pc, #8]	; (8005ea8 <HAL_RCC_GetSysClockFreq+0x58>)
 8005ea0:	e7fc      	b.n	8005e9c <HAL_RCC_GetSysClockFreq+0x4c>
 8005ea2:	bf00      	nop
 8005ea4:	40023800 	.word	0x40023800
 8005ea8:	00f42400 	.word	0x00f42400

08005eac <HAL_RCC_ClockConfig>:
 8005eac:	e92d 41f0 	stmdb	sp!, {r4, r5, r6, r7, r8, lr}
 8005eb0:	460d      	mov	r5, r1
 8005eb2:	4604      	mov	r4, r0
 8005eb4:	b910      	cbnz	r0, 8005ebc <HAL_RCC_ClockConfig+0x10>
 8005eb6:	2001      	movs	r0, #1
 8005eb8:	e8bd 81f0 	ldmia.w	sp!, {r4, r5, r6, r7, r8, pc}
 8005ebc:	4b44      	ldr	r3, [pc, #272]	; (8005fd0 <HAL_RCC_ClockConfig+0x124>)
 8005ebe:	681a      	ldr	r2, [r3, #0]
 8005ec0:	f002 0207 	and.w	r2, r2, #7
 8005ec4:	428a      	cmp	r2, r1
 8005ec6:	d328      	bcc.n	8005f1a <HAL_RCC_ClockConfig+0x6e>
 8005ec8:	6822      	ldr	r2, [r4, #0]
 8005eca:	0797      	lsls	r7, r2, #30
 8005ecc:	d42d      	bmi.n	8005f2a <HAL_RCC_ClockConfig+0x7e>
 8005ece:	07d0      	lsls	r0, r2, #31
 8005ed0:	d441      	bmi.n	8005f56 <HAL_RCC_ClockConfig+0xaa>
 8005ed2:	4b3f      	ldr	r3, [pc, #252]	; (8005fd0 <HAL_RCC_ClockConfig+0x124>)
 8005ed4:	681a      	ldr	r2, [r3, #0]
 8005ed6:	f002 0207 	and.w	r2, r2, #7
 8005eda:	42aa      	cmp	r2, r5
 8005edc:	d866      	bhi.n	8005fac <HAL_RCC_ClockConfig+0x100>
 8005ede:	6822      	ldr	r2, [r4, #0]
 8005ee0:	0751      	lsls	r1, r2, #29
 8005ee2:	d46c      	bmi.n	8005fbe <HAL_RCC_ClockConfig+0x112>
 8005ee4:	0713      	lsls	r3, r2, #28
 8005ee6:	d507      	bpl.n	8005ef8 <HAL_RCC_ClockConfig+0x4c>
 8005ee8:	4a3a      	ldr	r2, [pc, #232]	; (8005fd4 <HAL_RCC_ClockConfig+0x128>)
 8005eea:	6921      	ldr	r1, [r4, #16]
 8005eec:	6893      	ldr	r3, [r2, #8]
 8005eee:	f423 4360 	bic.w	r3, r3, #57344	; 0xe000
 8005ef2:	ea43 03c1 	orr.w	r3, r3, r1, lsl #3
 8005ef6:	6093      	str	r3, [r2, #8]
 8005ef8:	f7ff ffaa 	bl	8005e50 <HAL_RCC_GetSysClockFreq>
 8005efc:	4b35      	ldr	r3, [pc, #212]	; (8005fd4 <HAL_RCC_ClockConfig+0x128>)
 8005efe:	4a36      	ldr	r2, [pc, #216]	; (8005fd8 <HAL_RCC_ClockConfig+0x12c>)
 8005f00:	689b      	ldr	r3, [r3, #8]
 8005f02:	f3c3 1303 	ubfx	r3, r3, #4, #4
 8005f06:	5cd3      	ldrb	r3, [r2, r3]
 8005f08:	40d8      	lsrs	r0, r3
 8005f0a:	4b34      	ldr	r3, [pc, #208]	; (8005fdc <HAL_RCC_ClockConfig+0x130>)
 8005f0c:	6018      	str	r0, [r3, #0]
 8005f0e:	4b34      	ldr	r3, [pc, #208]	; (8005fe0 <HAL_RCC_ClockConfig+0x134>)
 8005f10:	6818      	ldr	r0, [r3, #0]
 8005f12:	f7fe fb4d 	bl	80045b0 <HAL_InitTick>
 8005f16:	2000      	movs	r0, #0
 8005f18:	e7ce      	b.n	8005eb8 <HAL_RCC_ClockConfig+0xc>
 8005f1a:	b2ca      	uxtb	r2, r1
 8005f1c:	701a      	strb	r2, [r3, #0]
 8005f1e:	681b      	ldr	r3, [r3, #0]
 8005f20:	f003 0307 	and.w	r3, r3, #7
 8005f24:	428b      	cmp	r3, r1
 8005f26:	d1c6      	bne.n	8005eb6 <HAL_RCC_ClockConfig+0xa>
 8005f28:	e7ce      	b.n	8005ec8 <HAL_RCC_ClockConfig+0x1c>
 8005f2a:	4b2a      	ldr	r3, [pc, #168]	; (8005fd4 <HAL_RCC_ClockConfig+0x128>)
 8005f2c:	f012 0f04 	tst.w	r2, #4
 8005f30:	bf1e      	ittt	ne
 8005f32:	6899      	ldrne	r1, [r3, #8]
 8005f34:	f441 51e0 	orrne.w	r1, r1, #7168	; 0x1c00
 8005f38:	6099      	strne	r1, [r3, #8]
 8005f3a:	0716      	lsls	r6, r2, #28
 8005f3c:	bf42      	ittt	mi
 8005f3e:	6899      	ldrmi	r1, [r3, #8]
 8005f40:	f441 4160 	orrmi.w	r1, r1, #57344	; 0xe000
 8005f44:	6099      	strmi	r1, [r3, #8]
 8005f46:	4923      	ldr	r1, [pc, #140]	; (8005fd4 <HAL_RCC_ClockConfig+0x128>)
 8005f48:	68a0      	ldr	r0, [r4, #8]
 8005f4a:	688b      	ldr	r3, [r1, #8]
 8005f4c:	f023 03f0 	bic.w	r3, r3, #240	; 0xf0
 8005f50:	4303      	orrs	r3, r0
 8005f52:	608b      	str	r3, [r1, #8]
 8005f54:	e7bb      	b.n	8005ece <HAL_RCC_ClockConfig+0x22>
 8005f56:	6862      	ldr	r2, [r4, #4]
 8005f58:	4b1e      	ldr	r3, [pc, #120]	; (8005fd4 <HAL_RCC_ClockConfig+0x128>)
 8005f5a:	2a01      	cmp	r2, #1
 8005f5c:	d11c      	bne.n	8005f98 <HAL_RCC_ClockConfig+0xec>
 8005f5e:	681b      	ldr	r3, [r3, #0]
 8005f60:	f413 3f00 	tst.w	r3, #131072	; 0x20000
 8005f64:	d0a7      	beq.n	8005eb6 <HAL_RCC_ClockConfig+0xa>
 8005f66:	4e1b      	ldr	r6, [pc, #108]	; (8005fd4 <HAL_RCC_ClockConfig+0x128>)
 8005f68:	68b3      	ldr	r3, [r6, #8]
 8005f6a:	f023 0303 	bic.w	r3, r3, #3
 8005f6e:	4313      	orrs	r3, r2
 8005f70:	60b3      	str	r3, [r6, #8]
 8005f72:	f7fe fb67 	bl	8004644 <HAL_GetTick>
 8005f76:	f241 3888 	movw	r8, #5000	; 0x1388
 8005f7a:	4607      	mov	r7, r0
 8005f7c:	68b3      	ldr	r3, [r6, #8]
 8005f7e:	6862      	ldr	r2, [r4, #4]
 8005f80:	f003 030c 	and.w	r3, r3, #12
 8005f84:	ebb3 0f82 	cmp.w	r3, r2, lsl #2
 8005f88:	d0a3      	beq.n	8005ed2 <HAL_RCC_ClockConfig+0x26>
 8005f8a:	f7fe fb5b 	bl	8004644 <HAL_GetTick>
 8005f8e:	1bc0      	subs	r0, r0, r7
 8005f90:	4540      	cmp	r0, r8
 8005f92:	d9f3      	bls.n	8005f7c <HAL_RCC_ClockConfig+0xd0>
 8005f94:	2003      	movs	r0, #3
 8005f96:	e78f      	b.n	8005eb8 <HAL_RCC_ClockConfig+0xc>
 8005f98:	1e91      	subs	r1, r2, #2
 8005f9a:	2901      	cmp	r1, #1
 8005f9c:	681b      	ldr	r3, [r3, #0]
 8005f9e:	d802      	bhi.n	8005fa6 <HAL_RCC_ClockConfig+0xfa>
 8005fa0:	f013 7f00 	tst.w	r3, #33554432	; 0x2000000
 8005fa4:	e7de      	b.n	8005f64 <HAL_RCC_ClockConfig+0xb8>
 8005fa6:	f013 0f02 	tst.w	r3, #2
 8005faa:	e7db      	b.n	8005f64 <HAL_RCC_ClockConfig+0xb8>
 8005fac:	b2ea      	uxtb	r2, r5
 8005fae:	701a      	strb	r2, [r3, #0]
 8005fb0:	681b      	ldr	r3, [r3, #0]
 8005fb2:	f003 0307 	and.w	r3, r3, #7
 8005fb6:	42ab      	cmp	r3, r5
 8005fb8:	f47f af7d 	bne.w	8005eb6 <HAL_RCC_ClockConfig+0xa>
 8005fbc:	e78f      	b.n	8005ede <HAL_RCC_ClockConfig+0x32>
 8005fbe:	4905      	ldr	r1, [pc, #20]	; (8005fd4 <HAL_RCC_ClockConfig+0x128>)
 8005fc0:	68e0      	ldr	r0, [r4, #12]
 8005fc2:	688b      	ldr	r3, [r1, #8]
 8005fc4:	f423 53e0 	bic.w	r3, r3, #7168	; 0x1c00
 8005fc8:	4303      	orrs	r3, r0
 8005fca:	608b      	str	r3, [r1, #8]
 8005fcc:	e78a      	b.n	8005ee4 <HAL_RCC_ClockConfig+0x38>
 8005fce:	bf00      	nop
 8005fd0:	40023c00 	.word	0x40023c00
 8005fd4:	40023800 	.word	0x40023800
 8005fd8:	0800b54c 	.word	0x0800b54c
 8005fdc:	200000c0 	.word	0x200000c0
 8005fe0:	200000c8 	.word	0x200000c8

08005fe4 <HAL_RCC_GetPCLK1Freq>:
 8005fe4:	4b04      	ldr	r3, [pc, #16]	; (8005ff8 <HAL_RCC_GetPCLK1Freq+0x14>)
 8005fe6:	4a05      	ldr	r2, [pc, #20]	; (8005ffc <HAL_RCC_GetPCLK1Freq+0x18>)
 8005fe8:	689b      	ldr	r3, [r3, #8]
 8005fea:	f3c3 2382 	ubfx	r3, r3, #10, #3
 8005fee:	5cd3      	ldrb	r3, [r2, r3]
 8005ff0:	4a03      	ldr	r2, [pc, #12]	; (8006000 <HAL_RCC_GetPCLK1Freq+0x1c>)
 8005ff2:	6810      	ldr	r0, [r2, #0]
 8005ff4:	40d8      	lsrs	r0, r3
 8005ff6:	4770      	bx	lr
 8005ff8:	40023800 	.word	0x40023800
 8005ffc:	0800b55c 	.word	0x0800b55c
 8006000:	200000c0 	.word	0x200000c0

08006004 <HAL_RCC_GetPCLK2Freq>:
 8006004:	4b04      	ldr	r3, [pc, #16]	; (8006018 <HAL_RCC_GetPCLK2Freq+0x14>)
 8006006:	4a05      	ldr	r2, [pc, #20]	; (800601c <HAL_RCC_GetPCLK2Freq+0x18>)
 8006008:	689b      	ldr	r3, [r3, #8]
 800600a:	f3c3 3342 	ubfx	r3, r3, #13, #3
 800600e:	5cd3      	ldrb	r3, [r2, r3]
 8006010:	4a03      	ldr	r2, [pc, #12]	; (8006020 <HAL_RCC_GetPCLK2Freq+0x1c>)
 8006012:	6810      	ldr	r0, [r2, #0]
 8006014:	40d8      	lsrs	r0, r3
 8006016:	4770      	bx	lr
 8006018:	40023800 	.word	0x40023800
 800601c:	0800b55c 	.word	0x0800b55c
 8006020:	200000c0 	.word	0x200000c0

08006024 <SD_FindSCR>:
 8006024:	b5f0      	push	{r4, r5, r6, r7, lr}
 8006026:	b089      	sub	sp, #36	; 0x24
 8006028:	4605      	mov	r5, r0
 800602a:	460e      	mov	r6, r1
 800602c:	f7fe fb0a 	bl	8004644 <HAL_GetTick>
 8006030:	2300      	movs	r3, #0
 8006032:	4607      	mov	r7, r0
 8006034:	2108      	movs	r1, #8
 8006036:	6828      	ldr	r0, [r5, #0]
 8006038:	e9cd 3300 	strd	r3, r3, [sp]
 800603c:	f001 faa2 	bl	8007584 <SDMMC_CmdBlockLength>
 8006040:	4604      	mov	r4, r0
 8006042:	b9d8      	cbnz	r0, 800607c <SD_FindSCR+0x58>
 8006044:	6d29      	ldr	r1, [r5, #80]	; 0x50
 8006046:	6828      	ldr	r0, [r5, #0]
 8006048:	0409      	lsls	r1, r1, #16
 800604a:	f001 fb45 	bl	80076d8 <SDMMC_CmdAppCommand>
 800604e:	4604      	mov	r4, r0
 8006050:	b9a0      	cbnz	r0, 800607c <SD_FindSCR+0x58>
 8006052:	f04f 32ff 	mov.w	r2, #4294967295	; 0xffffffff
 8006056:	2308      	movs	r3, #8
 8006058:	e9cd 2302 	strd	r2, r3, [sp, #8]
 800605c:	2130      	movs	r1, #48	; 0x30
 800605e:	2302      	movs	r3, #2
 8006060:	e9cd 1304 	strd	r1, r3, [sp, #16]
 8006064:	9006      	str	r0, [sp, #24]
 8006066:	2301      	movs	r3, #1
 8006068:	a902      	add	r1, sp, #8
 800606a:	6828      	ldr	r0, [r5, #0]
 800606c:	9307      	str	r3, [sp, #28]
 800606e:	f001 f9bf 	bl	80073f0 <SDIO_ConfigData>
 8006072:	6828      	ldr	r0, [r5, #0]
 8006074:	f001 fb60 	bl	8007738 <SDMMC_CmdSendSCR>
 8006078:	4604      	mov	r4, r0
 800607a:	b190      	cbz	r0, 80060a2 <SD_FindSCR+0x7e>
 800607c:	4620      	mov	r0, r4
 800607e:	b009      	add	sp, #36	; 0x24
 8006080:	bdf0      	pop	{r4, r5, r6, r7, pc}
 8006082:	6b42      	ldr	r2, [r0, #52]	; 0x34
 8006084:	0293      	lsls	r3, r2, #10
 8006086:	d512      	bpl.n	80060ae <SD_FindSCR+0x8a>
 8006088:	f001 f98c 	bl	80073a4 <SDIO_ReadFIFO>
 800608c:	ab08      	add	r3, sp, #32
 800608e:	eb03 0384 	add.w	r3, r3, r4, lsl #2
 8006092:	3401      	adds	r4, #1
 8006094:	f843 0c20 	str.w	r0, [r3, #-32]
 8006098:	f7fe fad4 	bl	8004644 <HAL_GetTick>
 800609c:	1bc0      	subs	r0, r0, r7
 800609e:	3001      	adds	r0, #1
 80060a0:	d023      	beq.n	80060ea <SD_FindSCR+0xc6>
 80060a2:	6828      	ldr	r0, [r5, #0]
 80060a4:	6b42      	ldr	r2, [r0, #52]	; 0x34
 80060a6:	f012 0f2a 	tst.w	r2, #42	; 0x2a
 80060aa:	d0ea      	beq.n	8006082 <SD_FindSCR+0x5e>
 80060ac:	e002      	b.n	80060b4 <SD_FindSCR+0x90>
 80060ae:	6b42      	ldr	r2, [r0, #52]	; 0x34
 80060b0:	0491      	lsls	r1, r2, #18
 80060b2:	d4f1      	bmi.n	8006098 <SD_FindSCR+0x74>
 80060b4:	6b42      	ldr	r2, [r0, #52]	; 0x34
 80060b6:	0712      	lsls	r2, r2, #28
 80060b8:	d502      	bpl.n	80060c0 <SD_FindSCR+0x9c>
 80060ba:	2408      	movs	r4, #8
 80060bc:	6384      	str	r4, [r0, #56]	; 0x38
 80060be:	e7dd      	b.n	800607c <SD_FindSCR+0x58>
 80060c0:	6b42      	ldr	r2, [r0, #52]	; 0x34
 80060c2:	0793      	lsls	r3, r2, #30
 80060c4:	d501      	bpl.n	80060ca <SD_FindSCR+0xa6>
 80060c6:	2402      	movs	r4, #2
 80060c8:	e7f8      	b.n	80060bc <SD_FindSCR+0x98>
 80060ca:	6b44      	ldr	r4, [r0, #52]	; 0x34
 80060cc:	f014 0420 	ands.w	r4, r4, #32
 80060d0:	d001      	beq.n	80060d6 <SD_FindSCR+0xb2>
 80060d2:	2420      	movs	r4, #32
 80060d4:	e7f2      	b.n	80060bc <SD_FindSCR+0x98>
 80060d6:	9b01      	ldr	r3, [sp, #4]
 80060d8:	f240 523a 	movw	r2, #1338	; 0x53a
 80060dc:	ba1b      	rev	r3, r3
 80060de:	6382      	str	r2, [r0, #56]	; 0x38
 80060e0:	6033      	str	r3, [r6, #0]
 80060e2:	9b00      	ldr	r3, [sp, #0]
 80060e4:	ba1b      	rev	r3, r3
 80060e6:	6073      	str	r3, [r6, #4]
 80060e8:	e7c8      	b.n	800607c <SD_FindSCR+0x58>
 80060ea:	f04f 4400 	mov.w	r4, #2147483648	; 0x80000000
 80060ee:	e7c5      	b.n	800607c <SD_FindSCR+0x58>

080060f0 <HAL_SD_ReadBlocks>:
 80060f0:	e92d 4ff0 	stmdb	sp!, {r4, r5, r6, r7, r8, r9, sl, fp, lr}
 80060f4:	b089      	sub	sp, #36	; 0x24
 80060f6:	4604      	mov	r4, r0
 80060f8:	460d      	mov	r5, r1
 80060fa:	4616      	mov	r6, r2
 80060fc:	469a      	mov	sl, r3
 80060fe:	f7fe faa1 	bl	8004644 <HAL_GetTick>
 8006102:	4680      	mov	r8, r0
 8006104:	b92d      	cbnz	r5, 8006112 <HAL_SD_ReadBlocks+0x22>
 8006106:	6ba3      	ldr	r3, [r4, #56]	; 0x38
 8006108:	f043 6300 	orr.w	r3, r3, #134217728	; 0x8000000
 800610c:	63a3      	str	r3, [r4, #56]	; 0x38
 800610e:	2701      	movs	r7, #1
 8006110:	e010      	b.n	8006134 <HAL_SD_ReadBlocks+0x44>
 8006112:	f894 3034 	ldrb.w	r3, [r4, #52]	; 0x34
 8006116:	2b01      	cmp	r3, #1
 8006118:	b2df      	uxtb	r7, r3
 800611a:	f040 80e7 	bne.w	80062ec <HAL_SD_ReadBlocks+0x1fc>
 800611e:	6de2      	ldr	r2, [r4, #92]	; 0x5c
 8006120:	eb06 030a 	add.w	r3, r6, sl
 8006124:	2100      	movs	r1, #0
 8006126:	4293      	cmp	r3, r2
 8006128:	63a1      	str	r1, [r4, #56]	; 0x38
 800612a:	d907      	bls.n	800613c <HAL_SD_ReadBlocks+0x4c>
 800612c:	6ba3      	ldr	r3, [r4, #56]	; 0x38
 800612e:	f043 7300 	orr.w	r3, r3, #33554432	; 0x2000000
 8006132:	63a3      	str	r3, [r4, #56]	; 0x38
 8006134:	4638      	mov	r0, r7
 8006136:	b009      	add	sp, #36	; 0x24
 8006138:	e8bd 8ff0 	ldmia.w	sp!, {r4, r5, r6, r7, r8, r9, sl, fp, pc}
 800613c:	2303      	movs	r3, #3
 800613e:	f884 3034 	strb.w	r3, [r4, #52]	; 0x34
 8006142:	6c63      	ldr	r3, [r4, #68]	; 0x44
 8006144:	6820      	ldr	r0, [r4, #0]
 8006146:	2b01      	cmp	r3, #1
 8006148:	f04f 33ff 	mov.w	r3, #4294967295	; 0xffffffff
 800614c:	9302      	str	r3, [sp, #8]
 800614e:	ea4f 234a 	mov.w	r3, sl, lsl #9
 8006152:	62c1      	str	r1, [r0, #44]	; 0x2c
 8006154:	9303      	str	r3, [sp, #12]
 8006156:	f04f 0200 	mov.w	r2, #0
 800615a:	f04f 0390 	mov.w	r3, #144	; 0x90
 800615e:	f04f 0b01 	mov.w	fp, #1
 8006162:	f04f 0902 	mov.w	r9, #2
 8006166:	a902      	add	r1, sp, #8
 8006168:	bf18      	it	ne
 800616a:	0276      	lslne	r6, r6, #9
 800616c:	e9cd 3904 	strd	r3, r9, [sp, #16]
 8006170:	e9cd 2b06 	strd	r2, fp, [sp, #24]
 8006174:	f001 f93c 	bl	80073f0 <SDIO_ConfigData>
 8006178:	45da      	cmp	sl, fp
 800617a:	d912      	bls.n	80061a2 <HAL_SD_ReadBlocks+0xb2>
 800617c:	6820      	ldr	r0, [r4, #0]
 800617e:	f8c4 9030 	str.w	r9, [r4, #48]	; 0x30
 8006182:	4631      	mov	r1, r6
 8006184:	f001 fa2e 	bl	80075e4 <SDMMC_CmdReadMultiBlock>
 8006188:	b190      	cbz	r0, 80061b0 <HAL_SD_ReadBlocks+0xc0>
 800618a:	6823      	ldr	r3, [r4, #0]
 800618c:	4a59      	ldr	r2, [pc, #356]	; (80062f4 <HAL_SD_ReadBlocks+0x204>)
 800618e:	639a      	str	r2, [r3, #56]	; 0x38
 8006190:	6ba3      	ldr	r3, [r4, #56]	; 0x38
 8006192:	4318      	orrs	r0, r3
 8006194:	63a0      	str	r0, [r4, #56]	; 0x38
 8006196:	2301      	movs	r3, #1
 8006198:	f884 3034 	strb.w	r3, [r4, #52]	; 0x34
 800619c:	2300      	movs	r3, #0
 800619e:	6323      	str	r3, [r4, #48]	; 0x30
 80061a0:	e7c8      	b.n	8006134 <HAL_SD_ReadBlocks+0x44>
 80061a2:	6820      	ldr	r0, [r4, #0]
 80061a4:	f8c4 b030 	str.w	fp, [r4, #48]	; 0x30
 80061a8:	4631      	mov	r1, r6
 80061aa:	f001 fa03 	bl	80075b4 <SDMMC_CmdReadSingleBlock>
 80061ae:	e7eb      	b.n	8006188 <HAL_SD_ReadBlocks+0x98>
 80061b0:	9e03      	ldr	r6, [sp, #12]
 80061b2:	f240 3b2a 	movw	fp, #810	; 0x32a
 80061b6:	6820      	ldr	r0, [r4, #0]
 80061b8:	6b43      	ldr	r3, [r0, #52]	; 0x34
 80061ba:	ea13 0f0b 	tst.w	r3, fp
 80061be:	6b43      	ldr	r3, [r0, #52]	; 0x34
 80061c0:	d017      	beq.n	80061f2 <HAL_SD_ReadBlocks+0x102>
 80061c2:	05db      	lsls	r3, r3, #23
 80061c4:	d509      	bpl.n	80061da <HAL_SD_ReadBlocks+0xea>
 80061c6:	f1ba 0f01 	cmp.w	sl, #1
 80061ca:	d906      	bls.n	80061da <HAL_SD_ReadBlocks+0xea>
 80061cc:	6c63      	ldr	r3, [r4, #68]	; 0x44
 80061ce:	2b03      	cmp	r3, #3
 80061d0:	d003      	beq.n	80061da <HAL_SD_ReadBlocks+0xea>
 80061d2:	f001 fa4f 	bl	8007674 <SDMMC_CmdStopTransfer>
 80061d6:	2800      	cmp	r0, #0
 80061d8:	d1d7      	bne.n	800618a <HAL_SD_ReadBlocks+0x9a>
 80061da:	6823      	ldr	r3, [r4, #0]
 80061dc:	6b59      	ldr	r1, [r3, #52]	; 0x34
 80061de:	f011 0108 	ands.w	r1, r1, #8
 80061e2:	d038      	beq.n	8006256 <HAL_SD_ReadBlocks+0x166>
 80061e4:	4a43      	ldr	r2, [pc, #268]	; (80062f4 <HAL_SD_ReadBlocks+0x204>)
 80061e6:	639a      	str	r2, [r3, #56]	; 0x38
 80061e8:	6ba3      	ldr	r3, [r4, #56]	; 0x38
 80061ea:	f043 0308 	orr.w	r3, r3, #8
 80061ee:	63a3      	str	r3, [r4, #56]	; 0x38
 80061f0:	e7d1      	b.n	8006196 <HAL_SD_ReadBlocks+0xa6>
 80061f2:	041a      	lsls	r2, r3, #16
 80061f4:	d51a      	bpl.n	800622c <HAL_SD_ReadBlocks+0x13c>
 80061f6:	b1ce      	cbz	r6, 800622c <HAL_SD_ReadBlocks+0x13c>
 80061f8:	f105 0904 	add.w	r9, r5, #4
 80061fc:	f105 0224 	add.w	r2, r5, #36	; 0x24
 8006200:	6820      	ldr	r0, [r4, #0]
 8006202:	9201      	str	r2, [sp, #4]
 8006204:	f001 f8ce 	bl	80073a4 <SDIO_ReadFIFO>
 8006208:	0a01      	lsrs	r1, r0, #8
 800620a:	f809 0c04 	strb.w	r0, [r9, #-4]
 800620e:	f809 1c03 	strb.w	r1, [r9, #-3]
 8006212:	9a01      	ldr	r2, [sp, #4]
 8006214:	0c01      	lsrs	r1, r0, #16
 8006216:	0e00      	lsrs	r0, r0, #24
 8006218:	f809 1c02 	strb.w	r1, [r9, #-2]
 800621c:	f809 0c01 	strb.w	r0, [r9, #-1]
 8006220:	f109 0904 	add.w	r9, r9, #4
 8006224:	454a      	cmp	r2, r9
 8006226:	d1eb      	bne.n	8006200 <HAL_SD_ReadBlocks+0x110>
 8006228:	3520      	adds	r5, #32
 800622a:	3e20      	subs	r6, #32
 800622c:	f7fe fa0a 	bl	8004644 <HAL_GetTick>
 8006230:	9b12      	ldr	r3, [sp, #72]	; 0x48
 8006232:	eba0 0008 	sub.w	r0, r0, r8
 8006236:	4298      	cmp	r0, r3
 8006238:	d3bd      	bcc.n	80061b6 <HAL_SD_ReadBlocks+0xc6>
 800623a:	6823      	ldr	r3, [r4, #0]
 800623c:	4a2d      	ldr	r2, [pc, #180]	; (80062f4 <HAL_SD_ReadBlocks+0x204>)
 800623e:	639a      	str	r2, [r3, #56]	; 0x38
 8006240:	6ba3      	ldr	r3, [r4, #56]	; 0x38
 8006242:	f043 4300 	orr.w	r3, r3, #2147483648	; 0x80000000
 8006246:	63a3      	str	r3, [r4, #56]	; 0x38
 8006248:	2301      	movs	r3, #1
 800624a:	f884 3034 	strb.w	r3, [r4, #52]	; 0x34
 800624e:	2300      	movs	r3, #0
 8006250:	6323      	str	r3, [r4, #48]	; 0x30
 8006252:	2703      	movs	r7, #3
 8006254:	e76e      	b.n	8006134 <HAL_SD_ReadBlocks+0x44>
 8006256:	6b5a      	ldr	r2, [r3, #52]	; 0x34
 8006258:	f012 0202 	ands.w	r2, r2, #2
 800625c:	d00a      	beq.n	8006274 <HAL_SD_ReadBlocks+0x184>
 800625e:	4a25      	ldr	r2, [pc, #148]	; (80062f4 <HAL_SD_ReadBlocks+0x204>)
 8006260:	639a      	str	r2, [r3, #56]	; 0x38
 8006262:	6ba3      	ldr	r3, [r4, #56]	; 0x38
 8006264:	f043 0302 	orr.w	r3, r3, #2
 8006268:	63a3      	str	r3, [r4, #56]	; 0x38
 800626a:	2301      	movs	r3, #1
 800626c:	f884 3034 	strb.w	r3, [r4, #52]	; 0x34
 8006270:	6321      	str	r1, [r4, #48]	; 0x30
 8006272:	e75f      	b.n	8006134 <HAL_SD_ReadBlocks+0x44>
 8006274:	6b59      	ldr	r1, [r3, #52]	; 0x34
 8006276:	0689      	lsls	r1, r1, #26
 8006278:	d529      	bpl.n	80062ce <HAL_SD_ReadBlocks+0x1de>
 800627a:	491e      	ldr	r1, [pc, #120]	; (80062f4 <HAL_SD_ReadBlocks+0x204>)
 800627c:	6399      	str	r1, [r3, #56]	; 0x38
 800627e:	6ba3      	ldr	r3, [r4, #56]	; 0x38
 8006280:	f043 0320 	orr.w	r3, r3, #32
 8006284:	63a3      	str	r3, [r4, #56]	; 0x38
 8006286:	2301      	movs	r3, #1
 8006288:	f884 3034 	strb.w	r3, [r4, #52]	; 0x34
 800628c:	6322      	str	r2, [r4, #48]	; 0x30
 800628e:	e751      	b.n	8006134 <HAL_SD_ReadBlocks+0x44>
 8006290:	f001 f888 	bl	80073a4 <SDIO_ReadFIFO>
 8006294:	0a03      	lsrs	r3, r0, #8
 8006296:	f805 3c03 	strb.w	r3, [r5, #-3]
 800629a:	0c03      	lsrs	r3, r0, #16
 800629c:	f805 3c02 	strb.w	r3, [r5, #-2]
 80062a0:	0e03      	lsrs	r3, r0, #24
 80062a2:	f805 3c01 	strb.w	r3, [r5, #-1]
 80062a6:	f805 0c04 	strb.w	r0, [r5, #-4]
 80062aa:	f7fe f9cb 	bl	8004644 <HAL_GetTick>
 80062ae:	9b12      	ldr	r3, [sp, #72]	; 0x48
 80062b0:	eba0 0008 	sub.w	r0, r0, r8
 80062b4:	4298      	cmp	r0, r3
 80062b6:	f1a6 0604 	sub.w	r6, r6, #4
 80062ba:	f105 0504 	add.w	r5, r5, #4
 80062be:	d307      	bcc.n	80062d0 <HAL_SD_ReadBlocks+0x1e0>
 80062c0:	6823      	ldr	r3, [r4, #0]
 80062c2:	4a0c      	ldr	r2, [pc, #48]	; (80062f4 <HAL_SD_ReadBlocks+0x204>)
 80062c4:	639a      	str	r2, [r3, #56]	; 0x38
 80062c6:	6ba3      	ldr	r3, [r4, #56]	; 0x38
 80062c8:	f043 4300 	orr.w	r3, r3, #2147483648	; 0x80000000
 80062cc:	e78f      	b.n	80061ee <HAL_SD_ReadBlocks+0xfe>
 80062ce:	3504      	adds	r5, #4
 80062d0:	6820      	ldr	r0, [r4, #0]
 80062d2:	6b43      	ldr	r3, [r0, #52]	; 0x34
 80062d4:	029b      	lsls	r3, r3, #10
 80062d6:	d501      	bpl.n	80062dc <HAL_SD_ReadBlocks+0x1ec>
 80062d8:	2e00      	cmp	r6, #0
 80062da:	d1d9      	bne.n	8006290 <HAL_SD_ReadBlocks+0x1a0>
 80062dc:	f240 533a 	movw	r3, #1338	; 0x53a
 80062e0:	6383      	str	r3, [r0, #56]	; 0x38
 80062e2:	2301      	movs	r3, #1
 80062e4:	f884 3034 	strb.w	r3, [r4, #52]	; 0x34
 80062e8:	2700      	movs	r7, #0
 80062ea:	e723      	b.n	8006134 <HAL_SD_ReadBlocks+0x44>
 80062ec:	6ba3      	ldr	r3, [r4, #56]	; 0x38
 80062ee:	f043 5300 	orr.w	r3, r3, #536870912	; 0x20000000
 80062f2:	e70b      	b.n	800610c <HAL_SD_ReadBlocks+0x1c>
 80062f4:	004005ff 	.word	0x004005ff

080062f8 <HAL_SD_WriteBlocks>:
 80062f8:	e92d 4ff0 	stmdb	sp!, {r4, r5, r6, r7, r8, r9, sl, fp, lr}
 80062fc:	b089      	sub	sp, #36	; 0x24
 80062fe:	4604      	mov	r4, r0
 8006300:	460d      	mov	r5, r1
 8006302:	4692      	mov	sl, r2
 8006304:	461f      	mov	r7, r3
 8006306:	f7fe f99d 	bl	8004644 <HAL_GetTick>
 800630a:	4681      	mov	r9, r0
 800630c:	b935      	cbnz	r5, 800631c <HAL_SD_WriteBlocks+0x24>
 800630e:	6ba3      	ldr	r3, [r4, #56]	; 0x38
 8006310:	f043 6300 	orr.w	r3, r3, #134217728	; 0x8000000
 8006314:	63a3      	str	r3, [r4, #56]	; 0x38
 8006316:	f04f 0801 	mov.w	r8, #1
 800631a:	e011      	b.n	8006340 <HAL_SD_WriteBlocks+0x48>
 800631c:	f894 3034 	ldrb.w	r3, [r4, #52]	; 0x34
 8006320:	2b01      	cmp	r3, #1
 8006322:	fa5f f883 	uxtb.w	r8, r3
 8006326:	f040 80b1 	bne.w	800648c <HAL_SD_WriteBlocks+0x194>
 800632a:	6de2      	ldr	r2, [r4, #92]	; 0x5c
 800632c:	eb0a 0307 	add.w	r3, sl, r7
 8006330:	2100      	movs	r1, #0
 8006332:	4293      	cmp	r3, r2
 8006334:	63a1      	str	r1, [r4, #56]	; 0x38
 8006336:	d907      	bls.n	8006348 <HAL_SD_WriteBlocks+0x50>
 8006338:	6ba3      	ldr	r3, [r4, #56]	; 0x38
 800633a:	f043 7300 	orr.w	r3, r3, #33554432	; 0x2000000
 800633e:	63a3      	str	r3, [r4, #56]	; 0x38
 8006340:	4640      	mov	r0, r8
 8006342:	b009      	add	sp, #36	; 0x24
 8006344:	e8bd 8ff0 	ldmia.w	sp!, {r4, r5, r6, r7, r8, r9, sl, fp, pc}
 8006348:	2303      	movs	r3, #3
 800634a:	f884 3034 	strb.w	r3, [r4, #52]	; 0x34
 800634e:	6c63      	ldr	r3, [r4, #68]	; 0x44
 8006350:	6820      	ldr	r0, [r4, #0]
 8006352:	2b01      	cmp	r3, #1
 8006354:	f04f 33ff 	mov.w	r3, #4294967295	; 0xffffffff
 8006358:	9302      	str	r3, [sp, #8]
 800635a:	ea4f 2347 	mov.w	r3, r7, lsl #9
 800635e:	62c1      	str	r1, [r0, #44]	; 0x2c
 8006360:	9303      	str	r3, [sp, #12]
 8006362:	f04f 0190 	mov.w	r1, #144	; 0x90
 8006366:	f04f 0300 	mov.w	r3, #0
 800636a:	e9cd 1304 	strd	r1, r3, [sp, #16]
 800636e:	9306      	str	r3, [sp, #24]
 8006370:	a902      	add	r1, sp, #8
 8006372:	f04f 0301 	mov.w	r3, #1
 8006376:	bf18      	it	ne
 8006378:	ea4f 2a4a 	movne.w	sl, sl, lsl #9
 800637c:	9307      	str	r3, [sp, #28]
 800637e:	f001 f837 	bl	80073f0 <SDIO_ConfigData>
 8006382:	2f01      	cmp	r7, #1
 8006384:	d912      	bls.n	80063ac <HAL_SD_WriteBlocks+0xb4>
 8006386:	2320      	movs	r3, #32
 8006388:	6820      	ldr	r0, [r4, #0]
 800638a:	6323      	str	r3, [r4, #48]	; 0x30
 800638c:	4651      	mov	r1, sl
 800638e:	f001 f959 	bl	8007644 <SDMMC_CmdWriteMultiBlock>
 8006392:	b190      	cbz	r0, 80063ba <HAL_SD_WriteBlocks+0xc2>
 8006394:	6823      	ldr	r3, [r4, #0]
 8006396:	4a3f      	ldr	r2, [pc, #252]	; (8006494 <HAL_SD_WriteBlocks+0x19c>)
 8006398:	639a      	str	r2, [r3, #56]	; 0x38
 800639a:	6ba3      	ldr	r3, [r4, #56]	; 0x38
 800639c:	4318      	orrs	r0, r3
 800639e:	63a0      	str	r0, [r4, #56]	; 0x38
 80063a0:	2301      	movs	r3, #1
 80063a2:	f884 3034 	strb.w	r3, [r4, #52]	; 0x34
 80063a6:	2300      	movs	r3, #0
 80063a8:	6323      	str	r3, [r4, #48]	; 0x30
 80063aa:	e7c9      	b.n	8006340 <HAL_SD_WriteBlocks+0x48>
 80063ac:	2310      	movs	r3, #16
 80063ae:	6820      	ldr	r0, [r4, #0]
 80063b0:	6323      	str	r3, [r4, #48]	; 0x30
 80063b2:	4651      	mov	r1, sl
 80063b4:	f001 f92e 	bl	8007614 <SDMMC_CmdWriteSingleBlock>
 80063b8:	e7eb      	b.n	8006392 <HAL_SD_WriteBlocks+0x9a>
 80063ba:	9e03      	ldr	r6, [sp, #12]
 80063bc:	f240 3a1a 	movw	sl, #794	; 0x31a
 80063c0:	6820      	ldr	r0, [r4, #0]
 80063c2:	6b43      	ldr	r3, [r0, #52]	; 0x34
 80063c4:	ea13 0f0a 	tst.w	r3, sl
 80063c8:	6b43      	ldr	r3, [r0, #52]	; 0x34
 80063ca:	d016      	beq.n	80063fa <HAL_SD_WriteBlocks+0x102>
 80063cc:	05db      	lsls	r3, r3, #23
 80063ce:	d508      	bpl.n	80063e2 <HAL_SD_WriteBlocks+0xea>
 80063d0:	2f01      	cmp	r7, #1
 80063d2:	d906      	bls.n	80063e2 <HAL_SD_WriteBlocks+0xea>
 80063d4:	6c63      	ldr	r3, [r4, #68]	; 0x44
 80063d6:	2b03      	cmp	r3, #3
 80063d8:	d003      	beq.n	80063e2 <HAL_SD_WriteBlocks+0xea>
 80063da:	f001 f94b 	bl	8007674 <SDMMC_CmdStopTransfer>
 80063de:	2800      	cmp	r0, #0
 80063e0:	d1d8      	bne.n	8006394 <HAL_SD_WriteBlocks+0x9c>
 80063e2:	6823      	ldr	r3, [r4, #0]
 80063e4:	6b58      	ldr	r0, [r3, #52]	; 0x34
 80063e6:	f010 0008 	ands.w	r0, r0, #8
 80063ea:	d029      	beq.n	8006440 <HAL_SD_WriteBlocks+0x148>
 80063ec:	4a29      	ldr	r2, [pc, #164]	; (8006494 <HAL_SD_WriteBlocks+0x19c>)
 80063ee:	639a      	str	r2, [r3, #56]	; 0x38
 80063f0:	6ba3      	ldr	r3, [r4, #56]	; 0x38
 80063f2:	f043 0308 	orr.w	r3, r3, #8
 80063f6:	63a3      	str	r3, [r4, #56]	; 0x38
 80063f8:	e7d2      	b.n	80063a0 <HAL_SD_WriteBlocks+0xa8>
 80063fa:	045a      	lsls	r2, r3, #17
 80063fc:	d50c      	bpl.n	8006418 <HAL_SD_WriteBlocks+0x120>
 80063fe:	b15e      	cbz	r6, 8006418 <HAL_SD_WriteBlocks+0x120>
 8006400:	f105 0b20 	add.w	fp, r5, #32
 8006404:	f855 2b04 	ldr.w	r2, [r5], #4
 8006408:	6820      	ldr	r0, [r4, #0]
 800640a:	9201      	str	r2, [sp, #4]
 800640c:	a901      	add	r1, sp, #4
 800640e:	f000 ffcc 	bl	80073aa <SDIO_WriteFIFO>
 8006412:	45ab      	cmp	fp, r5
 8006414:	d1f6      	bne.n	8006404 <HAL_SD_WriteBlocks+0x10c>
 8006416:	3e20      	subs	r6, #32
 8006418:	f7fe f914 	bl	8004644 <HAL_GetTick>
 800641c:	9b12      	ldr	r3, [sp, #72]	; 0x48
 800641e:	eba0 0009 	sub.w	r0, r0, r9
 8006422:	4298      	cmp	r0, r3
 8006424:	d3cc      	bcc.n	80063c0 <HAL_SD_WriteBlocks+0xc8>
 8006426:	6823      	ldr	r3, [r4, #0]
 8006428:	4a1a      	ldr	r2, [pc, #104]	; (8006494 <HAL_SD_WriteBlocks+0x19c>)
 800642a:	639a      	str	r2, [r3, #56]	; 0x38
 800642c:	6ba3      	ldr	r3, [r4, #56]	; 0x38
 800642e:	63a3      	str	r3, [r4, #56]	; 0x38
 8006430:	2301      	movs	r3, #1
 8006432:	f884 3034 	strb.w	r3, [r4, #52]	; 0x34
 8006436:	2300      	movs	r3, #0
 8006438:	6323      	str	r3, [r4, #48]	; 0x30
 800643a:	f04f 0803 	mov.w	r8, #3
 800643e:	e77f      	b.n	8006340 <HAL_SD_WriteBlocks+0x48>
 8006440:	6b59      	ldr	r1, [r3, #52]	; 0x34
 8006442:	f011 0102 	ands.w	r1, r1, #2
 8006446:	d00a      	beq.n	800645e <HAL_SD_WriteBlocks+0x166>
 8006448:	4a12      	ldr	r2, [pc, #72]	; (8006494 <HAL_SD_WriteBlocks+0x19c>)
 800644a:	639a      	str	r2, [r3, #56]	; 0x38
 800644c:	6ba3      	ldr	r3, [r4, #56]	; 0x38
 800644e:	f043 0302 	orr.w	r3, r3, #2
 8006452:	63a3      	str	r3, [r4, #56]	; 0x38
 8006454:	2301      	movs	r3, #1
 8006456:	f884 3034 	strb.w	r3, [r4, #52]	; 0x34
 800645a:	6320      	str	r0, [r4, #48]	; 0x30
 800645c:	e770      	b.n	8006340 <HAL_SD_WriteBlocks+0x48>
 800645e:	6b5a      	ldr	r2, [r3, #52]	; 0x34
 8006460:	f012 0210 	ands.w	r2, r2, #16
 8006464:	d00a      	beq.n	800647c <HAL_SD_WriteBlocks+0x184>
 8006466:	4a0b      	ldr	r2, [pc, #44]	; (8006494 <HAL_SD_WriteBlocks+0x19c>)
 8006468:	639a      	str	r2, [r3, #56]	; 0x38
 800646a:	6ba3      	ldr	r3, [r4, #56]	; 0x38
 800646c:	f043 0310 	orr.w	r3, r3, #16
 8006470:	63a3      	str	r3, [r4, #56]	; 0x38
 8006472:	2301      	movs	r3, #1
 8006474:	f884 3034 	strb.w	r3, [r4, #52]	; 0x34
 8006478:	6321      	str	r1, [r4, #48]	; 0x30
 800647a:	e761      	b.n	8006340 <HAL_SD_WriteBlocks+0x48>
 800647c:	f240 513a 	movw	r1, #1338	; 0x53a
 8006480:	6399      	str	r1, [r3, #56]	; 0x38
 8006482:	2301      	movs	r3, #1
 8006484:	f884 3034 	strb.w	r3, [r4, #52]	; 0x34
 8006488:	4690      	mov	r8, r2
 800648a:	e759      	b.n	8006340 <HAL_SD_WriteBlocks+0x48>
 800648c:	6ba3      	ldr	r3, [r4, #56]	; 0x38
 800648e:	f043 5300 	orr.w	r3, r3, #536870912	; 0x20000000
 8006492:	e73f      	b.n	8006314 <HAL_SD_WriteBlocks+0x1c>
 8006494:	004005ff 	.word	0x004005ff

08006498 <HAL_SD_GetCardCSD>:
 8006498:	6e43      	ldr	r3, [r0, #100]	; 0x64
 800649a:	0f9a      	lsrs	r2, r3, #30
 800649c:	700a      	strb	r2, [r1, #0]
 800649e:	f3c3 6283 	ubfx	r2, r3, #26, #4
 80064a2:	704a      	strb	r2, [r1, #1]
 80064a4:	f3c3 6201 	ubfx	r2, r3, #24, #2
 80064a8:	708a      	strb	r2, [r1, #2]
 80064aa:	f3c3 4207 	ubfx	r2, r3, #16, #8
 80064ae:	70ca      	strb	r2, [r1, #3]
 80064b0:	f3c3 2207 	ubfx	r2, r3, #8, #8
 80064b4:	b2db      	uxtb	r3, r3
 80064b6:	710a      	strb	r2, [r1, #4]
 80064b8:	714b      	strb	r3, [r1, #5]
 80064ba:	6e83      	ldr	r3, [r0, #104]	; 0x68
 80064bc:	0d1a      	lsrs	r2, r3, #20
 80064be:	80ca      	strh	r2, [r1, #6]
 80064c0:	f3c3 4203 	ubfx	r2, r3, #16, #4
 80064c4:	720a      	strb	r2, [r1, #8]
 80064c6:	f3c3 32c0 	ubfx	r2, r3, #15, #1
 80064ca:	724a      	strb	r2, [r1, #9]
 80064cc:	f3c3 3280 	ubfx	r2, r3, #14, #1
 80064d0:	728a      	strb	r2, [r1, #10]
 80064d2:	f3c3 3240 	ubfx	r2, r3, #13, #1
 80064d6:	72ca      	strb	r2, [r1, #11]
 80064d8:	f3c3 3200 	ubfx	r2, r3, #12, #1
 80064dc:	730a      	strb	r2, [r1, #12]
 80064de:	2200      	movs	r2, #0
 80064e0:	734a      	strb	r2, [r1, #13]
 80064e2:	6c42      	ldr	r2, [r0, #68]	; 0x44
 80064e4:	b510      	push	{r4, lr}
 80064e6:	2a00      	cmp	r2, #0
 80064e8:	d16c      	bne.n	80065c4 <HAL_SD_GetCardCSD+0x12c>
 80064ea:	6ec2      	ldr	r2, [r0, #108]	; 0x6c
 80064ec:	f640 74fc 	movw	r4, #4092	; 0xffc
 80064f0:	ea04 0383 	and.w	r3, r4, r3, lsl #2
 80064f4:	ea43 7392 	orr.w	r3, r3, r2, lsr #30
 80064f8:	610b      	str	r3, [r1, #16]
 80064fa:	f3c2 63c2 	ubfx	r3, r2, #27, #3
 80064fe:	750b      	strb	r3, [r1, #20]
 8006500:	f3c2 6302 	ubfx	r3, r2, #24, #3
 8006504:	754b      	strb	r3, [r1, #21]
 8006506:	f3c2 5342 	ubfx	r3, r2, #21, #3
 800650a:	758b      	strb	r3, [r1, #22]
 800650c:	f3c2 4382 	ubfx	r3, r2, #18, #3
 8006510:	f3c2 32c2 	ubfx	r2, r2, #15, #3
 8006514:	75cb      	strb	r3, [r1, #23]
 8006516:	760a      	strb	r2, [r1, #24]
 8006518:	690b      	ldr	r3, [r1, #16]
 800651a:	7e0a      	ldrb	r2, [r1, #24]
 800651c:	f002 0207 	and.w	r2, r2, #7
 8006520:	3301      	adds	r3, #1
 8006522:	3202      	adds	r2, #2
 8006524:	fa03 f202 	lsl.w	r2, r3, r2
 8006528:	6542      	str	r2, [r0, #84]	; 0x54
 800652a:	7a0b      	ldrb	r3, [r1, #8]
 800652c:	f003 040f 	and.w	r4, r3, #15
 8006530:	2301      	movs	r3, #1
 8006532:	40a3      	lsls	r3, r4
 8006534:	6583      	str	r3, [r0, #88]	; 0x58
 8006536:	0a5b      	lsrs	r3, r3, #9
 8006538:	4353      	muls	r3, r2
 800653a:	65c3      	str	r3, [r0, #92]	; 0x5c
 800653c:	f44f 7300 	mov.w	r3, #512	; 0x200
 8006540:	6603      	str	r3, [r0, #96]	; 0x60
 8006542:	6ec3      	ldr	r3, [r0, #108]	; 0x6c
 8006544:	f3c3 3280 	ubfx	r2, r3, #14, #1
 8006548:	764a      	strb	r2, [r1, #25]
 800654a:	f3c3 12c6 	ubfx	r2, r3, #7, #7
 800654e:	f003 037f 	and.w	r3, r3, #127	; 0x7f
 8006552:	768a      	strb	r2, [r1, #26]
 8006554:	76cb      	strb	r3, [r1, #27]
 8006556:	6f03      	ldr	r3, [r0, #112]	; 0x70
 8006558:	0fda      	lsrs	r2, r3, #31
 800655a:	770a      	strb	r2, [r1, #28]
 800655c:	f3c3 7241 	ubfx	r2, r3, #29, #2
 8006560:	774a      	strb	r2, [r1, #29]
 8006562:	f3c3 6282 	ubfx	r2, r3, #26, #3
 8006566:	778a      	strb	r2, [r1, #30]
 8006568:	f3c3 5283 	ubfx	r2, r3, #22, #4
 800656c:	77ca      	strb	r2, [r1, #31]
 800656e:	f3c3 5240 	ubfx	r2, r3, #21, #1
 8006572:	f881 2020 	strb.w	r2, [r1, #32]
 8006576:	2000      	movs	r0, #0
 8006578:	f3c3 4200 	ubfx	r2, r3, #16, #1
 800657c:	f881 0021 	strb.w	r0, [r1, #33]	; 0x21
 8006580:	f881 2022 	strb.w	r2, [r1, #34]	; 0x22
 8006584:	f3c3 32c0 	ubfx	r2, r3, #15, #1
 8006588:	f881 2023 	strb.w	r2, [r1, #35]	; 0x23
 800658c:	f3c3 3280 	ubfx	r2, r3, #14, #1
 8006590:	f881 2024 	strb.w	r2, [r1, #36]	; 0x24
 8006594:	f3c3 3240 	ubfx	r2, r3, #13, #1
 8006598:	f881 2025 	strb.w	r2, [r1, #37]	; 0x25
 800659c:	f3c3 3200 	ubfx	r2, r3, #12, #1
 80065a0:	f881 2026 	strb.w	r2, [r1, #38]	; 0x26
 80065a4:	f3c3 2281 	ubfx	r2, r3, #10, #2
 80065a8:	f881 2027 	strb.w	r2, [r1, #39]	; 0x27
 80065ac:	f3c3 2201 	ubfx	r2, r3, #8, #2
 80065b0:	f3c3 0346 	ubfx	r3, r3, #1, #7
 80065b4:	f881 2028 	strb.w	r2, [r1, #40]	; 0x28
 80065b8:	f881 3029 	strb.w	r3, [r1, #41]	; 0x29
 80065bc:	2301      	movs	r3, #1
 80065be:	f881 302a 	strb.w	r3, [r1, #42]	; 0x2a
 80065c2:	bd10      	pop	{r4, pc}
 80065c4:	2a01      	cmp	r2, #1
 80065c6:	d10f      	bne.n	80065e8 <HAL_SD_GetCardCSD+0x150>
 80065c8:	f8b0 206e 	ldrh.w	r2, [r0, #110]	; 0x6e
 80065cc:	041b      	lsls	r3, r3, #16
 80065ce:	f403 137c 	and.w	r3, r3, #4128768	; 0x3f0000
 80065d2:	4313      	orrs	r3, r2
 80065d4:	610b      	str	r3, [r1, #16]
 80065d6:	690b      	ldr	r3, [r1, #16]
 80065d8:	3301      	adds	r3, #1
 80065da:	029b      	lsls	r3, r3, #10
 80065dc:	6543      	str	r3, [r0, #84]	; 0x54
 80065de:	65c3      	str	r3, [r0, #92]	; 0x5c
 80065e0:	f44f 7300 	mov.w	r3, #512	; 0x200
 80065e4:	6583      	str	r3, [r0, #88]	; 0x58
 80065e6:	e7ab      	b.n	8006540 <HAL_SD_GetCardCSD+0xa8>
 80065e8:	6803      	ldr	r3, [r0, #0]
 80065ea:	4a05      	ldr	r2, [pc, #20]	; (8006600 <HAL_SD_GetCardCSD+0x168>)
 80065ec:	639a      	str	r2, [r3, #56]	; 0x38
 80065ee:	6b83      	ldr	r3, [r0, #56]	; 0x38
 80065f0:	f043 5380 	orr.w	r3, r3, #268435456	; 0x10000000
 80065f4:	6383      	str	r3, [r0, #56]	; 0x38
 80065f6:	2301      	movs	r3, #1
 80065f8:	f880 3034 	strb.w	r3, [r0, #52]	; 0x34
 80065fc:	4618      	mov	r0, r3
 80065fe:	e7e0      	b.n	80065c2 <HAL_SD_GetCardCSD+0x12a>
 8006600:	004005ff 	.word	0x004005ff

08006604 <HAL_SD_InitCard>:
 8006604:	e92d 41f0 	stmdb	sp!, {r4, r5, r6, r7, r8, lr}
 8006608:	2300      	movs	r3, #0
 800660a:	b098      	sub	sp, #96	; 0x60
 800660c:	e9cd 3309 	strd	r3, r3, [sp, #36]	; 0x24
 8006610:	e9cd 3307 	strd	r3, r3, [sp, #28]
 8006614:	930b      	str	r3, [sp, #44]	; 0x2c
 8006616:	2376      	movs	r3, #118	; 0x76
 8006618:	930c      	str	r3, [sp, #48]	; 0x30
 800661a:	ab0a      	add	r3, sp, #40	; 0x28
 800661c:	4604      	mov	r4, r0
 800661e:	e893 0007 	ldmia.w	r3, {r0, r1, r2}
 8006622:	e88d 0007 	stmia.w	sp, {r0, r1, r2}
 8006626:	ab07      	add	r3, sp, #28
 8006628:	cb0e      	ldmia	r3, {r1, r2, r3}
 800662a:	6820      	ldr	r0, [r4, #0]
 800662c:	f000 fe9e 	bl	800736c <SDIO_Init>
 8006630:	4605      	mov	r5, r0
 8006632:	2800      	cmp	r0, #0
 8006634:	f040 80df 	bne.w	80067f6 <HAL_SD_InitCard+0x1f2>
 8006638:	4f70      	ldr	r7, [pc, #448]	; (80067fc <HAL_SD_InitCard+0x1f8>)
 800663a:	2601      	movs	r6, #1
 800663c:	f8c7 00a0 	str.w	r0, [r7, #160]	; 0xa0
 8006640:	6820      	ldr	r0, [r4, #0]
 8006642:	f000 feb7 	bl	80073b4 <SDIO_PowerState_ON>
 8006646:	2002      	movs	r0, #2
 8006648:	f8c7 60a0 	str.w	r6, [r7, #160]	; 0xa0
 800664c:	f7fe f800 	bl	8004650 <HAL_Delay>
 8006650:	6820      	ldr	r0, [r4, #0]
 8006652:	9506      	str	r5, [sp, #24]
 8006654:	f000 fee0 	bl	8007418 <SDMMC_CmdGoIdleState>
 8006658:	4605      	mov	r5, r0
 800665a:	b940      	cbnz	r0, 800666e <HAL_SD_InitCard+0x6a>
 800665c:	6820      	ldr	r0, [r4, #0]
 800665e:	f001 f9a9 	bl	80079b4 <SDMMC_CmdOperCond>
 8006662:	b170      	cbz	r0, 8006682 <HAL_SD_InitCard+0x7e>
 8006664:	6820      	ldr	r0, [r4, #0]
 8006666:	64a5      	str	r5, [r4, #72]	; 0x48
 8006668:	f000 fed6 	bl	8007418 <SDMMC_CmdGoIdleState>
 800666c:	b190      	cbz	r0, 8006694 <HAL_SD_InitCard+0x90>
 800666e:	2501      	movs	r5, #1
 8006670:	f884 5034 	strb.w	r5, [r4, #52]	; 0x34
 8006674:	6ba3      	ldr	r3, [r4, #56]	; 0x38
 8006676:	4303      	orrs	r3, r0
 8006678:	63a3      	str	r3, [r4, #56]	; 0x38
 800667a:	4628      	mov	r0, r5
 800667c:	b018      	add	sp, #96	; 0x60
 800667e:	e8bd 81f0 	ldmia.w	sp!, {r4, r5, r6, r7, r8, pc}
 8006682:	64a6      	str	r6, [r4, #72]	; 0x48
 8006684:	6820      	ldr	r0, [r4, #0]
 8006686:	2100      	movs	r1, #0
 8006688:	f001 f826 	bl	80076d8 <SDMMC_CmdAppCommand>
 800668c:	b128      	cbz	r0, 800669a <HAL_SD_InitCard+0x96>
 800668e:	f04f 5080 	mov.w	r0, #268435456	; 0x10000000
 8006692:	e7ec      	b.n	800666e <HAL_SD_InitCard+0x6a>
 8006694:	6ca3      	ldr	r3, [r4, #72]	; 0x48
 8006696:	2b01      	cmp	r3, #1
 8006698:	d0f4      	beq.n	8006684 <HAL_SD_InitCard+0x80>
 800669a:	f8df 8168 	ldr.w	r8, [pc, #360]	; 8006804 <HAL_SD_InitCard+0x200>
 800669e:	2600      	movs	r6, #0
 80066a0:	f64f 77fe 	movw	r7, #65534	; 0xfffe
 80066a4:	e014      	b.n	80066d0 <HAL_SD_InitCard+0xcc>
 80066a6:	6820      	ldr	r0, [r4, #0]
 80066a8:	4631      	mov	r1, r6
 80066aa:	f001 f815 	bl	80076d8 <SDMMC_CmdAppCommand>
 80066ae:	2800      	cmp	r0, #0
 80066b0:	d1dd      	bne.n	800666e <HAL_SD_InitCard+0x6a>
 80066b2:	6820      	ldr	r0, [r4, #0]
 80066b4:	4641      	mov	r1, r8
 80066b6:	f001 f8df 	bl	8007878 <SDMMC_CmdAppOperCommand>
 80066ba:	2800      	cmp	r0, #0
 80066bc:	d1e7      	bne.n	800668e <HAL_SD_InitCard+0x8a>
 80066be:	4631      	mov	r1, r6
 80066c0:	6820      	ldr	r0, [r4, #0]
 80066c2:	f000 fe92 	bl	80073ea <SDIO_GetResponse>
 80066c6:	9b06      	ldr	r3, [sp, #24]
 80066c8:	3301      	adds	r3, #1
 80066ca:	4605      	mov	r5, r0
 80066cc:	0fc6      	lsrs	r6, r0, #31
 80066ce:	9306      	str	r3, [sp, #24]
 80066d0:	9b06      	ldr	r3, [sp, #24]
 80066d2:	42bb      	cmp	r3, r7
 80066d4:	d801      	bhi.n	80066da <HAL_SD_InitCard+0xd6>
 80066d6:	2e00      	cmp	r6, #0
 80066d8:	d0e5      	beq.n	80066a6 <HAL_SD_InitCard+0xa2>
 80066da:	9b06      	ldr	r3, [sp, #24]
 80066dc:	42bb      	cmp	r3, r7
 80066de:	d80c      	bhi.n	80066fa <HAL_SD_InitCard+0xf6>
 80066e0:	f3c5 7580 	ubfx	r5, r5, #30, #1
 80066e4:	2301      	movs	r3, #1
 80066e6:	6820      	ldr	r0, [r4, #0]
 80066e8:	6465      	str	r5, [r4, #68]	; 0x44
 80066ea:	f8ad 3016 	strh.w	r3, [sp, #22]
 80066ee:	f000 fe65 	bl	80073bc <SDIO_GetPowerState>
 80066f2:	b928      	cbnz	r0, 8006700 <HAL_SD_InitCard+0xfc>
 80066f4:	f04f 6080 	mov.w	r0, #67108864	; 0x4000000
 80066f8:	e7b9      	b.n	800666e <HAL_SD_InitCard+0x6a>
 80066fa:	f04f 7080 	mov.w	r0, #16777216	; 0x1000000
 80066fe:	e7b6      	b.n	800666e <HAL_SD_InitCard+0x6a>
 8006700:	6c63      	ldr	r3, [r4, #68]	; 0x44
 8006702:	2b03      	cmp	r3, #3
 8006704:	d043      	beq.n	800678e <HAL_SD_InitCard+0x18a>
 8006706:	6820      	ldr	r0, [r4, #0]
 8006708:	f001 f86c 	bl	80077e4 <SDMMC_CmdSendCID>
 800670c:	2800      	cmp	r0, #0
 800670e:	d1ae      	bne.n	800666e <HAL_SD_InitCard+0x6a>
 8006710:	4601      	mov	r1, r0
 8006712:	6820      	ldr	r0, [r4, #0]
 8006714:	f000 fe69 	bl	80073ea <SDIO_GetResponse>
 8006718:	2104      	movs	r1, #4
 800671a:	6760      	str	r0, [r4, #116]	; 0x74
 800671c:	6820      	ldr	r0, [r4, #0]
 800671e:	f000 fe64 	bl	80073ea <SDIO_GetResponse>
 8006722:	2108      	movs	r1, #8
 8006724:	67a0      	str	r0, [r4, #120]	; 0x78
 8006726:	6820      	ldr	r0, [r4, #0]
 8006728:	f000 fe5f 	bl	80073ea <SDIO_GetResponse>
 800672c:	210c      	movs	r1, #12
 800672e:	67e0      	str	r0, [r4, #124]	; 0x7c
 8006730:	6820      	ldr	r0, [r4, #0]
 8006732:	f000 fe5a 	bl	80073ea <SDIO_GetResponse>
 8006736:	6c63      	ldr	r3, [r4, #68]	; 0x44
 8006738:	f8c4 0080 	str.w	r0, [r4, #128]	; 0x80
 800673c:	2b03      	cmp	r3, #3
 800673e:	d026      	beq.n	800678e <HAL_SD_InitCard+0x18a>
 8006740:	6820      	ldr	r0, [r4, #0]
 8006742:	f10d 0116 	add.w	r1, sp, #22
 8006746:	f001 f8f3 	bl	8007930 <SDMMC_CmdSetRelAdd>
 800674a:	2800      	cmp	r0, #0
 800674c:	d18f      	bne.n	800666e <HAL_SD_InitCard+0x6a>
 800674e:	6c63      	ldr	r3, [r4, #68]	; 0x44
 8006750:	6820      	ldr	r0, [r4, #0]
 8006752:	2b03      	cmp	r3, #3
 8006754:	d01b      	beq.n	800678e <HAL_SD_InitCard+0x18a>
 8006756:	f8bd 1016 	ldrh.w	r1, [sp, #22]
 800675a:	6521      	str	r1, [r4, #80]	; 0x50
 800675c:	0409      	lsls	r1, r1, #16
 800675e:	f001 f856 	bl	800780e <SDMMC_CmdSendCSD>
 8006762:	2800      	cmp	r0, #0
 8006764:	d183      	bne.n	800666e <HAL_SD_InitCard+0x6a>
 8006766:	4601      	mov	r1, r0
 8006768:	6820      	ldr	r0, [r4, #0]
 800676a:	f000 fe3e 	bl	80073ea <SDIO_GetResponse>
 800676e:	2104      	movs	r1, #4
 8006770:	6660      	str	r0, [r4, #100]	; 0x64
 8006772:	6820      	ldr	r0, [r4, #0]
 8006774:	f000 fe39 	bl	80073ea <SDIO_GetResponse>
 8006778:	2108      	movs	r1, #8
 800677a:	66a0      	str	r0, [r4, #104]	; 0x68
 800677c:	6820      	ldr	r0, [r4, #0]
 800677e:	f000 fe34 	bl	80073ea <SDIO_GetResponse>
 8006782:	210c      	movs	r1, #12
 8006784:	66e0      	str	r0, [r4, #108]	; 0x6c
 8006786:	6820      	ldr	r0, [r4, #0]
 8006788:	f000 fe2f 	bl	80073ea <SDIO_GetResponse>
 800678c:	6720      	str	r0, [r4, #112]	; 0x70
 800678e:	2104      	movs	r1, #4
 8006790:	6820      	ldr	r0, [r4, #0]
 8006792:	f000 fe2a 	bl	80073ea <SDIO_GetResponse>
 8006796:	0d00      	lsrs	r0, r0, #20
 8006798:	64e0      	str	r0, [r4, #76]	; 0x4c
 800679a:	a90d      	add	r1, sp, #52	; 0x34
 800679c:	4620      	mov	r0, r4
 800679e:	f7ff fe7b 	bl	8006498 <HAL_SD_GetCardCSD>
 80067a2:	4605      	mov	r5, r0
 80067a4:	2800      	cmp	r0, #0
 80067a6:	f47f af72 	bne.w	800668e <HAL_SD_InitCard+0x8a>
 80067aa:	6d22      	ldr	r2, [r4, #80]	; 0x50
 80067ac:	4603      	mov	r3, r0
 80067ae:	0412      	lsls	r2, r2, #16
 80067b0:	6820      	ldr	r0, [r4, #0]
 80067b2:	f000 ff79 	bl	80076a8 <SDMMC_CmdSelDesel>
 80067b6:	2800      	cmp	r0, #0
 80067b8:	f47f af59 	bne.w	800666e <HAL_SD_InitCard+0x6a>
 80067bc:	f104 0310 	add.w	r3, r4, #16
 80067c0:	e893 0007 	ldmia.w	r3, {r0, r1, r2}
 80067c4:	e88d 0007 	stmia.w	sp, {r0, r1, r2}
 80067c8:	1d23      	adds	r3, r4, #4
 80067ca:	cb0e      	ldmia	r3, {r1, r2, r3}
 80067cc:	6820      	ldr	r0, [r4, #0]
 80067ce:	f000 fdcd 	bl	800736c <SDIO_Init>
 80067d2:	6820      	ldr	r0, [r4, #0]
 80067d4:	f44f 7100 	mov.w	r1, #512	; 0x200
 80067d8:	f000 fed4 	bl	8007584 <SDMMC_CmdBlockLength>
 80067dc:	2800      	cmp	r0, #0
 80067de:	f43f af4c 	beq.w	800667a <HAL_SD_InitCard+0x76>
 80067e2:	6823      	ldr	r3, [r4, #0]
 80067e4:	4a06      	ldr	r2, [pc, #24]	; (8006800 <HAL_SD_InitCard+0x1fc>)
 80067e6:	639a      	str	r2, [r3, #56]	; 0x38
 80067e8:	6ba3      	ldr	r3, [r4, #56]	; 0x38
 80067ea:	2501      	movs	r5, #1
 80067ec:	4318      	orrs	r0, r3
 80067ee:	63a0      	str	r0, [r4, #56]	; 0x38
 80067f0:	f884 5034 	strb.w	r5, [r4, #52]	; 0x34
 80067f4:	e741      	b.n	800667a <HAL_SD_InitCard+0x76>
 80067f6:	2501      	movs	r5, #1
 80067f8:	e73f      	b.n	800667a <HAL_SD_InitCard+0x76>
 80067fa:	bf00      	nop
 80067fc:	42258000 	.word	0x42258000
 8006800:	004005ff 	.word	0x004005ff
 8006804:	c1100000 	.word	0xc1100000

08006808 <HAL_SD_Init>:
 8006808:	b510      	push	{r4, lr}
 800680a:	4604      	mov	r4, r0
 800680c:	b908      	cbnz	r0, 8006812 <HAL_SD_Init+0xa>
 800680e:	2001      	movs	r0, #1
 8006810:	bd10      	pop	{r4, pc}
 8006812:	f890 3034 	ldrb.w	r3, [r0, #52]	; 0x34
 8006816:	f003 02ff 	and.w	r2, r3, #255	; 0xff
 800681a:	b913      	cbnz	r3, 8006822 <HAL_SD_Init+0x1a>
 800681c:	7702      	strb	r2, [r0, #28]
 800681e:	f7fd fbdb 	bl	8003fd8 <HAL_SD_MspInit>
 8006822:	2303      	movs	r3, #3
 8006824:	f884 3034 	strb.w	r3, [r4, #52]	; 0x34
 8006828:	4620      	mov	r0, r4
 800682a:	f7ff feeb 	bl	8006604 <HAL_SD_InitCard>
 800682e:	2800      	cmp	r0, #0
 8006830:	d1ed      	bne.n	800680e <HAL_SD_Init+0x6>
 8006832:	2301      	movs	r3, #1
 8006834:	63a0      	str	r0, [r4, #56]	; 0x38
 8006836:	6320      	str	r0, [r4, #48]	; 0x30
 8006838:	f884 3034 	strb.w	r3, [r4, #52]	; 0x34
 800683c:	e7e8      	b.n	8006810 <HAL_SD_Init+0x8>

0800683e <HAL_SD_GetCardInfo>:
 800683e:	6c43      	ldr	r3, [r0, #68]	; 0x44
 8006840:	600b      	str	r3, [r1, #0]
 8006842:	6c83      	ldr	r3, [r0, #72]	; 0x48
 8006844:	604b      	str	r3, [r1, #4]
 8006846:	6cc3      	ldr	r3, [r0, #76]	; 0x4c
 8006848:	608b      	str	r3, [r1, #8]
 800684a:	6d03      	ldr	r3, [r0, #80]	; 0x50
 800684c:	60cb      	str	r3, [r1, #12]
 800684e:	6d43      	ldr	r3, [r0, #84]	; 0x54
 8006850:	610b      	str	r3, [r1, #16]
 8006852:	6d83      	ldr	r3, [r0, #88]	; 0x58
 8006854:	614b      	str	r3, [r1, #20]
 8006856:	6dc3      	ldr	r3, [r0, #92]	; 0x5c
 8006858:	618b      	str	r3, [r1, #24]
 800685a:	6e03      	ldr	r3, [r0, #96]	; 0x60
 800685c:	61cb      	str	r3, [r1, #28]
 800685e:	2000      	movs	r0, #0
 8006860:	4770      	bx	lr
	...

08006864 <HAL_SD_ConfigWideBusOperation>:
 8006864:	b5f0      	push	{r4, r5, r6, r7, lr}
 8006866:	2303      	movs	r3, #3
 8006868:	f880 3034 	strb.w	r3, [r0, #52]	; 0x34
 800686c:	6c43      	ldr	r3, [r0, #68]	; 0x44
 800686e:	2b03      	cmp	r3, #3
 8006870:	b08b      	sub	sp, #44	; 0x2c
 8006872:	4604      	mov	r4, r0
 8006874:	460d      	mov	r5, r1
 8006876:	d002      	beq.n	800687e <HAL_SD_ConfigWideBusOperation+0x1a>
 8006878:	f5b1 5f80 	cmp.w	r1, #4096	; 0x1000
 800687c:	d103      	bne.n	8006886 <HAL_SD_ConfigWideBusOperation+0x22>
 800687e:	6ba3      	ldr	r3, [r4, #56]	; 0x38
 8006880:	f043 5380 	orr.w	r3, r3, #268435456	; 0x10000000
 8006884:	e05d      	b.n	8006942 <HAL_SD_ConfigWideBusOperation+0xde>
 8006886:	f5b1 6f00 	cmp.w	r1, #2048	; 0x800
 800688a:	6800      	ldr	r0, [r0, #0]
 800688c:	d137      	bne.n	80068fe <HAL_SD_ConfigWideBusOperation+0x9a>
 800688e:	2100      	movs	r1, #0
 8006890:	e9cd 1104 	strd	r1, r1, [sp, #16]
 8006894:	f000 fda9 	bl	80073ea <SDIO_GetResponse>
 8006898:	0180      	lsls	r0, r0, #6
 800689a:	d449      	bmi.n	8006930 <HAL_SD_ConfigWideBusOperation+0xcc>
 800689c:	a904      	add	r1, sp, #16
 800689e:	4620      	mov	r0, r4
 80068a0:	f7ff fbc0 	bl	8006024 <SD_FindSCR>
 80068a4:	b960      	cbnz	r0, 80068c0 <HAL_SD_ConfigWideBusOperation+0x5c>
 80068a6:	9b05      	ldr	r3, [sp, #20]
 80068a8:	0359      	lsls	r1, r3, #13
 80068aa:	d544      	bpl.n	8006936 <HAL_SD_ConfigWideBusOperation+0xd2>
 80068ac:	6d21      	ldr	r1, [r4, #80]	; 0x50
 80068ae:	6820      	ldr	r0, [r4, #0]
 80068b0:	0409      	lsls	r1, r1, #16
 80068b2:	f000 ff11 	bl	80076d8 <SDMMC_CmdAppCommand>
 80068b6:	b918      	cbnz	r0, 80068c0 <HAL_SD_ConfigWideBusOperation+0x5c>
 80068b8:	2102      	movs	r1, #2
 80068ba:	6820      	ldr	r0, [r4, #0]
 80068bc:	f000 ff24 	bl	8007708 <SDMMC_CmdBusWidth>
 80068c0:	6ba3      	ldr	r3, [r4, #56]	; 0x38
 80068c2:	4318      	orrs	r0, r3
 80068c4:	63a0      	str	r0, [r4, #56]	; 0x38
 80068c6:	6ba6      	ldr	r6, [r4, #56]	; 0x38
 80068c8:	6827      	ldr	r7, [r4, #0]
 80068ca:	2e00      	cmp	r6, #0
 80068cc:	d03b      	beq.n	8006946 <HAL_SD_ConfigWideBusOperation+0xe2>
 80068ce:	4b29      	ldr	r3, [pc, #164]	; (8006974 <HAL_SD_ConfigWideBusOperation+0x110>)
 80068d0:	63bb      	str	r3, [r7, #56]	; 0x38
 80068d2:	2501      	movs	r5, #1
 80068d4:	f884 5034 	strb.w	r5, [r4, #52]	; 0x34
 80068d8:	6820      	ldr	r0, [r4, #0]
 80068da:	f44f 7100 	mov.w	r1, #512	; 0x200
 80068de:	f000 fe51 	bl	8007584 <SDMMC_CmdBlockLength>
 80068e2:	b130      	cbz	r0, 80068f2 <HAL_SD_ConfigWideBusOperation+0x8e>
 80068e4:	6823      	ldr	r3, [r4, #0]
 80068e6:	4a23      	ldr	r2, [pc, #140]	; (8006974 <HAL_SD_ConfigWideBusOperation+0x110>)
 80068e8:	639a      	str	r2, [r3, #56]	; 0x38
 80068ea:	6ba3      	ldr	r3, [r4, #56]	; 0x38
 80068ec:	4318      	orrs	r0, r3
 80068ee:	63a0      	str	r0, [r4, #56]	; 0x38
 80068f0:	2501      	movs	r5, #1
 80068f2:	2301      	movs	r3, #1
 80068f4:	4628      	mov	r0, r5
 80068f6:	f884 3034 	strb.w	r3, [r4, #52]	; 0x34
 80068fa:	b00b      	add	sp, #44	; 0x2c
 80068fc:	bdf0      	pop	{r4, r5, r6, r7, pc}
 80068fe:	b9e9      	cbnz	r1, 800693c <HAL_SD_ConfigWideBusOperation+0xd8>
 8006900:	e9cd 1104 	strd	r1, r1, [sp, #16]
 8006904:	f000 fd71 	bl	80073ea <SDIO_GetResponse>
 8006908:	0182      	lsls	r2, r0, #6
 800690a:	d411      	bmi.n	8006930 <HAL_SD_ConfigWideBusOperation+0xcc>
 800690c:	a904      	add	r1, sp, #16
 800690e:	4620      	mov	r0, r4
 8006910:	f7ff fb88 	bl	8006024 <SD_FindSCR>
 8006914:	2800      	cmp	r0, #0
 8006916:	d1d3      	bne.n	80068c0 <HAL_SD_ConfigWideBusOperation+0x5c>
 8006918:	9b05      	ldr	r3, [sp, #20]
 800691a:	03db      	lsls	r3, r3, #15
 800691c:	d50b      	bpl.n	8006936 <HAL_SD_ConfigWideBusOperation+0xd2>
 800691e:	6d21      	ldr	r1, [r4, #80]	; 0x50
 8006920:	6820      	ldr	r0, [r4, #0]
 8006922:	0409      	lsls	r1, r1, #16
 8006924:	f000 fed8 	bl	80076d8 <SDMMC_CmdAppCommand>
 8006928:	2800      	cmp	r0, #0
 800692a:	d1c9      	bne.n	80068c0 <HAL_SD_ConfigWideBusOperation+0x5c>
 800692c:	4601      	mov	r1, r0
 800692e:	e7c4      	b.n	80068ba <HAL_SD_ConfigWideBusOperation+0x56>
 8006930:	f44f 6000 	mov.w	r0, #2048	; 0x800
 8006934:	e7c4      	b.n	80068c0 <HAL_SD_ConfigWideBusOperation+0x5c>
 8006936:	f04f 6080 	mov.w	r0, #67108864	; 0x4000000
 800693a:	e7c1      	b.n	80068c0 <HAL_SD_ConfigWideBusOperation+0x5c>
 800693c:	6ba3      	ldr	r3, [r4, #56]	; 0x38
 800693e:	f043 6300 	orr.w	r3, r3, #134217728	; 0x8000000
 8006942:	63a3      	str	r3, [r4, #56]	; 0x38
 8006944:	e7bf      	b.n	80068c6 <HAL_SD_ConfigWideBusOperation+0x62>
 8006946:	6863      	ldr	r3, [r4, #4]
 8006948:	9304      	str	r3, [sp, #16]
 800694a:	68a3      	ldr	r3, [r4, #8]
 800694c:	9305      	str	r3, [sp, #20]
 800694e:	68e3      	ldr	r3, [r4, #12]
 8006950:	e9cd 3506 	strd	r3, r5, [sp, #24]
 8006954:	6963      	ldr	r3, [r4, #20]
 8006956:	9308      	str	r3, [sp, #32]
 8006958:	69a3      	ldr	r3, [r4, #24]
 800695a:	9309      	str	r3, [sp, #36]	; 0x24
 800695c:	ab0a      	add	r3, sp, #40	; 0x28
 800695e:	e913 0007 	ldmdb	r3, {r0, r1, r2}
 8006962:	e88d 0007 	stmia.w	sp, {r0, r1, r2}
 8006966:	ab04      	add	r3, sp, #16
 8006968:	cb0e      	ldmia	r3, {r1, r2, r3}
 800696a:	4638      	mov	r0, r7
 800696c:	f000 fcfe 	bl	800736c <SDIO_Init>
 8006970:	4635      	mov	r5, r6
 8006972:	e7b1      	b.n	80068d8 <HAL_SD_ConfigWideBusOperation+0x74>
 8006974:	004005ff 	.word	0x004005ff

08006978 <HAL_SD_GetCardState>:
 8006978:	6d01      	ldr	r1, [r0, #80]	; 0x50
 800697a:	b510      	push	{r4, lr}
 800697c:	0409      	lsls	r1, r1, #16
 800697e:	4604      	mov	r4, r0
 8006980:	6800      	ldr	r0, [r0, #0]
 8006982:	f000 fef1 	bl	8007768 <SDMMC_CmdSendStatus>
 8006986:	4601      	mov	r1, r0
 8006988:	b928      	cbnz	r0, 8006996 <HAL_SD_GetCardState+0x1e>
 800698a:	6820      	ldr	r0, [r4, #0]
 800698c:	f000 fd2d 	bl	80073ea <SDIO_GetResponse>
 8006990:	f3c0 2043 	ubfx	r0, r0, #9, #4
 8006994:	bd10      	pop	{r4, pc}
 8006996:	6ba0      	ldr	r0, [r4, #56]	; 0x38
 8006998:	4308      	orrs	r0, r1
 800699a:	63a0      	str	r0, [r4, #56]	; 0x38
 800699c:	2000      	movs	r0, #0
 800699e:	e7f7      	b.n	8006990 <HAL_SD_GetCardState+0x18>

080069a0 <TIM_OC1_SetConfig>:
 80069a0:	6a03      	ldr	r3, [r0, #32]
 80069a2:	f023 0301 	bic.w	r3, r3, #1
 80069a6:	6203      	str	r3, [r0, #32]
 80069a8:	6a03      	ldr	r3, [r0, #32]
 80069aa:	b570      	push	{r4, r5, r6, lr}
 80069ac:	6844      	ldr	r4, [r0, #4]
 80069ae:	6982      	ldr	r2, [r0, #24]
 80069b0:	680d      	ldr	r5, [r1, #0]
 80069b2:	f022 0273 	bic.w	r2, r2, #115	; 0x73
 80069b6:	432a      	orrs	r2, r5
 80069b8:	688d      	ldr	r5, [r1, #8]
 80069ba:	f023 0302 	bic.w	r3, r3, #2
 80069be:	432b      	orrs	r3, r5
 80069c0:	4d0e      	ldr	r5, [pc, #56]	; (80069fc <TIM_OC1_SetConfig+0x5c>)
 80069c2:	42a8      	cmp	r0, r5
 80069c4:	d002      	beq.n	80069cc <TIM_OC1_SetConfig+0x2c>
 80069c6:	4e0e      	ldr	r6, [pc, #56]	; (8006a00 <TIM_OC1_SetConfig+0x60>)
 80069c8:	42b0      	cmp	r0, r6
 80069ca:	d110      	bne.n	80069ee <TIM_OC1_SetConfig+0x4e>
 80069cc:	68ce      	ldr	r6, [r1, #12]
 80069ce:	f023 0308 	bic.w	r3, r3, #8
 80069d2:	4333      	orrs	r3, r6
 80069d4:	42a8      	cmp	r0, r5
 80069d6:	f023 0304 	bic.w	r3, r3, #4
 80069da:	d002      	beq.n	80069e2 <TIM_OC1_SetConfig+0x42>
 80069dc:	4d08      	ldr	r5, [pc, #32]	; (8006a00 <TIM_OC1_SetConfig+0x60>)
 80069de:	42a8      	cmp	r0, r5
 80069e0:	d105      	bne.n	80069ee <TIM_OC1_SetConfig+0x4e>
 80069e2:	e9d1 5605 	ldrd	r5, r6, [r1, #20]
 80069e6:	f424 7440 	bic.w	r4, r4, #768	; 0x300
 80069ea:	4335      	orrs	r5, r6
 80069ec:	432c      	orrs	r4, r5
 80069ee:	6044      	str	r4, [r0, #4]
 80069f0:	6182      	str	r2, [r0, #24]
 80069f2:	684a      	ldr	r2, [r1, #4]
 80069f4:	6342      	str	r2, [r0, #52]	; 0x34
 80069f6:	6203      	str	r3, [r0, #32]
 80069f8:	bd70      	pop	{r4, r5, r6, pc}
 80069fa:	bf00      	nop
 80069fc:	40010000 	.word	0x40010000
 8006a00:	40010400 	.word	0x40010400

08006a04 <TIM_OC3_SetConfig>:
 8006a04:	6a03      	ldr	r3, [r0, #32]
 8006a06:	f423 7380 	bic.w	r3, r3, #256	; 0x100
 8006a0a:	6203      	str	r3, [r0, #32]
 8006a0c:	6a03      	ldr	r3, [r0, #32]
 8006a0e:	b570      	push	{r4, r5, r6, lr}
 8006a10:	6844      	ldr	r4, [r0, #4]
 8006a12:	69c2      	ldr	r2, [r0, #28]
 8006a14:	680d      	ldr	r5, [r1, #0]
 8006a16:	f022 0273 	bic.w	r2, r2, #115	; 0x73
 8006a1a:	432a      	orrs	r2, r5
 8006a1c:	688d      	ldr	r5, [r1, #8]
 8006a1e:	f423 7300 	bic.w	r3, r3, #512	; 0x200
 8006a22:	ea43 2305 	orr.w	r3, r3, r5, lsl #8
 8006a26:	4d11      	ldr	r5, [pc, #68]	; (8006a6c <TIM_OC3_SetConfig+0x68>)
 8006a28:	42a8      	cmp	r0, r5
 8006a2a:	d003      	beq.n	8006a34 <TIM_OC3_SetConfig+0x30>
 8006a2c:	f505 6580 	add.w	r5, r5, #1024	; 0x400
 8006a30:	42a8      	cmp	r0, r5
 8006a32:	d114      	bne.n	8006a5e <TIM_OC3_SetConfig+0x5a>
 8006a34:	68cd      	ldr	r5, [r1, #12]
 8006a36:	f423 6300 	bic.w	r3, r3, #2048	; 0x800
 8006a3a:	ea43 2305 	orr.w	r3, r3, r5, lsl #8
 8006a3e:	4d0b      	ldr	r5, [pc, #44]	; (8006a6c <TIM_OC3_SetConfig+0x68>)
 8006a40:	42a8      	cmp	r0, r5
 8006a42:	f423 6380 	bic.w	r3, r3, #1024	; 0x400
 8006a46:	d003      	beq.n	8006a50 <TIM_OC3_SetConfig+0x4c>
 8006a48:	f505 6580 	add.w	r5, r5, #1024	; 0x400
 8006a4c:	42a8      	cmp	r0, r5
 8006a4e:	d106      	bne.n	8006a5e <TIM_OC3_SetConfig+0x5a>
 8006a50:	e9d1 5605 	ldrd	r5, r6, [r1, #20]
 8006a54:	f424 5440 	bic.w	r4, r4, #12288	; 0x3000
 8006a58:	4335      	orrs	r5, r6
 8006a5a:	ea44 1405 	orr.w	r4, r4, r5, lsl #4
 8006a5e:	6044      	str	r4, [r0, #4]
 8006a60:	61c2      	str	r2, [r0, #28]
 8006a62:	684a      	ldr	r2, [r1, #4]
 8006a64:	63c2      	str	r2, [r0, #60]	; 0x3c
 8006a66:	6203      	str	r3, [r0, #32]
 8006a68:	bd70      	pop	{r4, r5, r6, pc}
 8006a6a:	bf00      	nop
 8006a6c:	40010000 	.word	0x40010000

08006a70 <TIM_OC4_SetConfig>:
 8006a70:	6a03      	ldr	r3, [r0, #32]
 8006a72:	f423 5380 	bic.w	r3, r3, #4096	; 0x1000
 8006a76:	6203      	str	r3, [r0, #32]
 8006a78:	6a03      	ldr	r3, [r0, #32]
 8006a7a:	b530      	push	{r4, r5, lr}
 8006a7c:	6844      	ldr	r4, [r0, #4]
 8006a7e:	69c2      	ldr	r2, [r0, #28]
 8006a80:	680d      	ldr	r5, [r1, #0]
 8006a82:	f422 42e6 	bic.w	r2, r2, #29440	; 0x7300
 8006a86:	ea42 2205 	orr.w	r2, r2, r5, lsl #8
 8006a8a:	688d      	ldr	r5, [r1, #8]
 8006a8c:	f423 5300 	bic.w	r3, r3, #8192	; 0x2000
 8006a90:	ea43 3305 	orr.w	r3, r3, r5, lsl #12
 8006a94:	4d08      	ldr	r5, [pc, #32]	; (8006ab8 <TIM_OC4_SetConfig+0x48>)
 8006a96:	42a8      	cmp	r0, r5
 8006a98:	d003      	beq.n	8006aa2 <TIM_OC4_SetConfig+0x32>
 8006a9a:	f505 6580 	add.w	r5, r5, #1024	; 0x400
 8006a9e:	42a8      	cmp	r0, r5
 8006aa0:	d104      	bne.n	8006aac <TIM_OC4_SetConfig+0x3c>
 8006aa2:	694d      	ldr	r5, [r1, #20]
 8006aa4:	f424 4480 	bic.w	r4, r4, #16384	; 0x4000
 8006aa8:	ea44 1485 	orr.w	r4, r4, r5, lsl #6
 8006aac:	6044      	str	r4, [r0, #4]
 8006aae:	61c2      	str	r2, [r0, #28]
 8006ab0:	684a      	ldr	r2, [r1, #4]
 8006ab2:	6402      	str	r2, [r0, #64]	; 0x40
 8006ab4:	6203      	str	r3, [r0, #32]
 8006ab6:	bd30      	pop	{r4, r5, pc}
 8006ab8:	40010000 	.word	0x40010000

08006abc <HAL_TIM_Base_Start_IT>:
 8006abc:	f890 303d 	ldrb.w	r3, [r0, #61]	; 0x3d
 8006ac0:	2b01      	cmp	r3, #1
 8006ac2:	d130      	bne.n	8006b26 <HAL_TIM_Base_Start_IT+0x6a>
 8006ac4:	2302      	movs	r3, #2
 8006ac6:	f880 303d 	strb.w	r3, [r0, #61]	; 0x3d
 8006aca:	6803      	ldr	r3, [r0, #0]
 8006acc:	68da      	ldr	r2, [r3, #12]
 8006ace:	f042 0201 	orr.w	r2, r2, #1
 8006ad2:	60da      	str	r2, [r3, #12]
 8006ad4:	4a15      	ldr	r2, [pc, #84]	; (8006b2c <HAL_TIM_Base_Start_IT+0x70>)
 8006ad6:	4293      	cmp	r3, r2
 8006ad8:	d01a      	beq.n	8006b10 <HAL_TIM_Base_Start_IT+0x54>
 8006ada:	f1b3 4f80 	cmp.w	r3, #1073741824	; 0x40000000
 8006ade:	d017      	beq.n	8006b10 <HAL_TIM_Base_Start_IT+0x54>
 8006ae0:	f5a2 427c 	sub.w	r2, r2, #64512	; 0xfc00
 8006ae4:	4293      	cmp	r3, r2
 8006ae6:	d013      	beq.n	8006b10 <HAL_TIM_Base_Start_IT+0x54>
 8006ae8:	f502 6280 	add.w	r2, r2, #1024	; 0x400
 8006aec:	4293      	cmp	r3, r2
 8006aee:	d00f      	beq.n	8006b10 <HAL_TIM_Base_Start_IT+0x54>
 8006af0:	f502 6280 	add.w	r2, r2, #1024	; 0x400
 8006af4:	4293      	cmp	r3, r2
 8006af6:	d00b      	beq.n	8006b10 <HAL_TIM_Base_Start_IT+0x54>
 8006af8:	f502 4278 	add.w	r2, r2, #63488	; 0xf800
 8006afc:	4293      	cmp	r3, r2
 8006afe:	d007      	beq.n	8006b10 <HAL_TIM_Base_Start_IT+0x54>
 8006b00:	f502 5270 	add.w	r2, r2, #15360	; 0x3c00
 8006b04:	4293      	cmp	r3, r2
 8006b06:	d003      	beq.n	8006b10 <HAL_TIM_Base_Start_IT+0x54>
 8006b08:	f5a2 3294 	sub.w	r2, r2, #75776	; 0x12800
 8006b0c:	4293      	cmp	r3, r2
 8006b0e:	d104      	bne.n	8006b1a <HAL_TIM_Base_Start_IT+0x5e>
 8006b10:	689a      	ldr	r2, [r3, #8]
 8006b12:	f002 0207 	and.w	r2, r2, #7
 8006b16:	2a06      	cmp	r2, #6
 8006b18:	d003      	beq.n	8006b22 <HAL_TIM_Base_Start_IT+0x66>
 8006b1a:	681a      	ldr	r2, [r3, #0]
 8006b1c:	f042 0201 	orr.w	r2, r2, #1
 8006b20:	601a      	str	r2, [r3, #0]
 8006b22:	2000      	movs	r0, #0
 8006b24:	4770      	bx	lr
 8006b26:	2001      	movs	r0, #1
 8006b28:	4770      	bx	lr
 8006b2a:	bf00      	nop
 8006b2c:	40010000 	.word	0x40010000

08006b30 <HAL_TIM_Base_Stop_IT>:
 8006b30:	6803      	ldr	r3, [r0, #0]
 8006b32:	68da      	ldr	r2, [r3, #12]
 8006b34:	f022 0201 	bic.w	r2, r2, #1
 8006b38:	60da      	str	r2, [r3, #12]
 8006b3a:	6a19      	ldr	r1, [r3, #32]
 8006b3c:	f241 1211 	movw	r2, #4369	; 0x1111
 8006b40:	4211      	tst	r1, r2
 8006b42:	d108      	bne.n	8006b56 <HAL_TIM_Base_Stop_IT+0x26>
 8006b44:	6a19      	ldr	r1, [r3, #32]
 8006b46:	f240 4244 	movw	r2, #1092	; 0x444
 8006b4a:	4211      	tst	r1, r2
 8006b4c:	bf02      	ittt	eq
 8006b4e:	681a      	ldreq	r2, [r3, #0]
 8006b50:	f022 0201 	biceq.w	r2, r2, #1
 8006b54:	601a      	streq	r2, [r3, #0]
 8006b56:	2301      	movs	r3, #1
 8006b58:	f880 303d 	strb.w	r3, [r0, #61]	; 0x3d
 8006b5c:	2000      	movs	r0, #0
 8006b5e:	4770      	bx	lr

08006b60 <HAL_TIM_OC_DelayElapsedCallback>:
 8006b60:	4770      	bx	lr

08006b62 <HAL_TIM_IC_CaptureCallback>:
 8006b62:	4770      	bx	lr

08006b64 <HAL_TIM_PWM_PulseFinishedCallback>:
 8006b64:	4770      	bx	lr

08006b66 <HAL_TIM_TriggerCallback>:
 8006b66:	4770      	bx	lr

08006b68 <HAL_TIM_IRQHandler>:
 8006b68:	6803      	ldr	r3, [r0, #0]
 8006b6a:	691a      	ldr	r2, [r3, #16]
 8006b6c:	0791      	lsls	r1, r2, #30
 8006b6e:	b510      	push	{r4, lr}
 8006b70:	4604      	mov	r4, r0
 8006b72:	d50e      	bpl.n	8006b92 <HAL_TIM_IRQHandler+0x2a>
 8006b74:	68da      	ldr	r2, [r3, #12]
 8006b76:	0792      	lsls	r2, r2, #30
 8006b78:	d50b      	bpl.n	8006b92 <HAL_TIM_IRQHandler+0x2a>
 8006b7a:	f06f 0202 	mvn.w	r2, #2
 8006b7e:	611a      	str	r2, [r3, #16]
 8006b80:	2201      	movs	r2, #1
 8006b82:	7702      	strb	r2, [r0, #28]
 8006b84:	699b      	ldr	r3, [r3, #24]
 8006b86:	079b      	lsls	r3, r3, #30
 8006b88:	d077      	beq.n	8006c7a <HAL_TIM_IRQHandler+0x112>
 8006b8a:	f7ff ffea 	bl	8006b62 <HAL_TIM_IC_CaptureCallback>
 8006b8e:	2300      	movs	r3, #0
 8006b90:	7723      	strb	r3, [r4, #28]
 8006b92:	6823      	ldr	r3, [r4, #0]
 8006b94:	691a      	ldr	r2, [r3, #16]
 8006b96:	0750      	lsls	r0, r2, #29
 8006b98:	d510      	bpl.n	8006bbc <HAL_TIM_IRQHandler+0x54>
 8006b9a:	68da      	ldr	r2, [r3, #12]
 8006b9c:	0751      	lsls	r1, r2, #29
 8006b9e:	d50d      	bpl.n	8006bbc <HAL_TIM_IRQHandler+0x54>
 8006ba0:	f06f 0204 	mvn.w	r2, #4
 8006ba4:	611a      	str	r2, [r3, #16]
 8006ba6:	2202      	movs	r2, #2
 8006ba8:	7722      	strb	r2, [r4, #28]
 8006baa:	699b      	ldr	r3, [r3, #24]
 8006bac:	f413 7f40 	tst.w	r3, #768	; 0x300
 8006bb0:	4620      	mov	r0, r4
 8006bb2:	d068      	beq.n	8006c86 <HAL_TIM_IRQHandler+0x11e>
 8006bb4:	f7ff ffd5 	bl	8006b62 <HAL_TIM_IC_CaptureCallback>
 8006bb8:	2300      	movs	r3, #0
 8006bba:	7723      	strb	r3, [r4, #28]
 8006bbc:	6823      	ldr	r3, [r4, #0]
 8006bbe:	691a      	ldr	r2, [r3, #16]
 8006bc0:	0712      	lsls	r2, r2, #28
 8006bc2:	d50f      	bpl.n	8006be4 <HAL_TIM_IRQHandler+0x7c>
 8006bc4:	68da      	ldr	r2, [r3, #12]
 8006bc6:	0710      	lsls	r0, r2, #28
 8006bc8:	d50c      	bpl.n	8006be4 <HAL_TIM_IRQHandler+0x7c>
 8006bca:	f06f 0208 	mvn.w	r2, #8
 8006bce:	611a      	str	r2, [r3, #16]
 8006bd0:	2204      	movs	r2, #4
 8006bd2:	7722      	strb	r2, [r4, #28]
 8006bd4:	69db      	ldr	r3, [r3, #28]
 8006bd6:	0799      	lsls	r1, r3, #30
 8006bd8:	4620      	mov	r0, r4
 8006bda:	d05a      	beq.n	8006c92 <HAL_TIM_IRQHandler+0x12a>
 8006bdc:	f7ff ffc1 	bl	8006b62 <HAL_TIM_IC_CaptureCallback>
 8006be0:	2300      	movs	r3, #0
 8006be2:	7723      	strb	r3, [r4, #28]
 8006be4:	6823      	ldr	r3, [r4, #0]
 8006be6:	691a      	ldr	r2, [r3, #16]
 8006be8:	06d2      	lsls	r2, r2, #27
 8006bea:	d510      	bpl.n	8006c0e <HAL_TIM_IRQHandler+0xa6>
 8006bec:	68da      	ldr	r2, [r3, #12]
 8006bee:	06d0      	lsls	r0, r2, #27
 8006bf0:	d50d      	bpl.n	8006c0e <HAL_TIM_IRQHandler+0xa6>
 8006bf2:	f06f 0210 	mvn.w	r2, #16
 8006bf6:	611a      	str	r2, [r3, #16]
 8006bf8:	2208      	movs	r2, #8
 8006bfa:	7722      	strb	r2, [r4, #28]
 8006bfc:	69db      	ldr	r3, [r3, #28]
 8006bfe:	f413 7f40 	tst.w	r3, #768	; 0x300
 8006c02:	4620      	mov	r0, r4
 8006c04:	d04b      	beq.n	8006c9e <HAL_TIM_IRQHandler+0x136>
 8006c06:	f7ff ffac 	bl	8006b62 <HAL_TIM_IC_CaptureCallback>
 8006c0a:	2300      	movs	r3, #0
 8006c0c:	7723      	strb	r3, [r4, #28]
 8006c0e:	6823      	ldr	r3, [r4, #0]
 8006c10:	691a      	ldr	r2, [r3, #16]
 8006c12:	07d1      	lsls	r1, r2, #31
 8006c14:	d508      	bpl.n	8006c28 <HAL_TIM_IRQHandler+0xc0>
 8006c16:	68da      	ldr	r2, [r3, #12]
 8006c18:	07d2      	lsls	r2, r2, #31
 8006c1a:	d505      	bpl.n	8006c28 <HAL_TIM_IRQHandler+0xc0>
 8006c1c:	f06f 0201 	mvn.w	r2, #1
 8006c20:	611a      	str	r2, [r3, #16]
 8006c22:	4620      	mov	r0, r4
 8006c24:	f7fc f930 	bl	8002e88 <HAL_TIM_PeriodElapsedCallback>
 8006c28:	6823      	ldr	r3, [r4, #0]
 8006c2a:	691a      	ldr	r2, [r3, #16]
 8006c2c:	0610      	lsls	r0, r2, #24
 8006c2e:	d508      	bpl.n	8006c42 <HAL_TIM_IRQHandler+0xda>
 8006c30:	68da      	ldr	r2, [r3, #12]
 8006c32:	0611      	lsls	r1, r2, #24
 8006c34:	d505      	bpl.n	8006c42 <HAL_TIM_IRQHandler+0xda>
 8006c36:	f06f 0280 	mvn.w	r2, #128	; 0x80
 8006c3a:	611a      	str	r2, [r3, #16]
 8006c3c:	4620      	mov	r0, r4
 8006c3e:	f000 fb08 	bl	8007252 <HAL_TIMEx_BreakCallback>
 8006c42:	6823      	ldr	r3, [r4, #0]
 8006c44:	691a      	ldr	r2, [r3, #16]
 8006c46:	0652      	lsls	r2, r2, #25
 8006c48:	d508      	bpl.n	8006c5c <HAL_TIM_IRQHandler+0xf4>
 8006c4a:	68da      	ldr	r2, [r3, #12]
 8006c4c:	0650      	lsls	r0, r2, #25
 8006c4e:	d505      	bpl.n	8006c5c <HAL_TIM_IRQHandler+0xf4>
 8006c50:	f06f 0240 	mvn.w	r2, #64	; 0x40
 8006c54:	611a      	str	r2, [r3, #16]
 8006c56:	4620      	mov	r0, r4
 8006c58:	f7ff ff85 	bl	8006b66 <HAL_TIM_TriggerCallback>
 8006c5c:	6823      	ldr	r3, [r4, #0]
 8006c5e:	691a      	ldr	r2, [r3, #16]
 8006c60:	0691      	lsls	r1, r2, #26
 8006c62:	d522      	bpl.n	8006caa <HAL_TIM_IRQHandler+0x142>
 8006c64:	68da      	ldr	r2, [r3, #12]
 8006c66:	0692      	lsls	r2, r2, #26
 8006c68:	d51f      	bpl.n	8006caa <HAL_TIM_IRQHandler+0x142>
 8006c6a:	f06f 0220 	mvn.w	r2, #32
 8006c6e:	4620      	mov	r0, r4
 8006c70:	611a      	str	r2, [r3, #16]
 8006c72:	e8bd 4010 	ldmia.w	sp!, {r4, lr}
 8006c76:	f000 baeb 	b.w	8007250 <HAL_TIMEx_CommutCallback>
 8006c7a:	f7ff ff71 	bl	8006b60 <HAL_TIM_OC_DelayElapsedCallback>
 8006c7e:	4620      	mov	r0, r4
 8006c80:	f7ff ff70 	bl	8006b64 <HAL_TIM_PWM_PulseFinishedCallback>
 8006c84:	e783      	b.n	8006b8e <HAL_TIM_IRQHandler+0x26>
 8006c86:	f7ff ff6b 	bl	8006b60 <HAL_TIM_OC_DelayElapsedCallback>
 8006c8a:	4620      	mov	r0, r4
 8006c8c:	f7ff ff6a 	bl	8006b64 <HAL_TIM_PWM_PulseFinishedCallback>
 8006c90:	e792      	b.n	8006bb8 <HAL_TIM_IRQHandler+0x50>
 8006c92:	f7ff ff65 	bl	8006b60 <HAL_TIM_OC_DelayElapsedCallback>
 8006c96:	4620      	mov	r0, r4
 8006c98:	f7ff ff64 	bl	8006b64 <HAL_TIM_PWM_PulseFinishedCallback>
 8006c9c:	e7a0      	b.n	8006be0 <HAL_TIM_IRQHandler+0x78>
 8006c9e:	f7ff ff5f 	bl	8006b60 <HAL_TIM_OC_DelayElapsedCallback>
 8006ca2:	4620      	mov	r0, r4
 8006ca4:	f7ff ff5e 	bl	8006b64 <HAL_TIM_PWM_PulseFinishedCallback>
 8006ca8:	e7af      	b.n	8006c0a <HAL_TIM_IRQHandler+0xa2>
 8006caa:	bd10      	pop	{r4, pc}

08006cac <TIM_Base_SetConfig>:
 8006cac:	4a30      	ldr	r2, [pc, #192]	; (8006d70 <TIM_Base_SetConfig+0xc4>)
 8006cae:	6803      	ldr	r3, [r0, #0]
 8006cb0:	4290      	cmp	r0, r2
 8006cb2:	d012      	beq.n	8006cda <TIM_Base_SetConfig+0x2e>
 8006cb4:	f1b0 4f80 	cmp.w	r0, #1073741824	; 0x40000000
 8006cb8:	d00f      	beq.n	8006cda <TIM_Base_SetConfig+0x2e>
 8006cba:	f5a2 427c 	sub.w	r2, r2, #64512	; 0xfc00
 8006cbe:	4290      	cmp	r0, r2
 8006cc0:	d00b      	beq.n	8006cda <TIM_Base_SetConfig+0x2e>
 8006cc2:	f502 6280 	add.w	r2, r2, #1024	; 0x400
 8006cc6:	4290      	cmp	r0, r2
 8006cc8:	d007      	beq.n	8006cda <TIM_Base_SetConfig+0x2e>
 8006cca:	f502 6280 	add.w	r2, r2, #1024	; 0x400
 8006cce:	4290      	cmp	r0, r2
 8006cd0:	d003      	beq.n	8006cda <TIM_Base_SetConfig+0x2e>
 8006cd2:	f502 4278 	add.w	r2, r2, #63488	; 0xf800
 8006cd6:	4290      	cmp	r0, r2
 8006cd8:	d119      	bne.n	8006d0e <TIM_Base_SetConfig+0x62>
 8006cda:	684a      	ldr	r2, [r1, #4]
 8006cdc:	f023 0370 	bic.w	r3, r3, #112	; 0x70
 8006ce0:	4313      	orrs	r3, r2
 8006ce2:	4a23      	ldr	r2, [pc, #140]	; (8006d70 <TIM_Base_SetConfig+0xc4>)
 8006ce4:	4290      	cmp	r0, r2
 8006ce6:	d029      	beq.n	8006d3c <TIM_Base_SetConfig+0x90>
 8006ce8:	f1b0 4f80 	cmp.w	r0, #1073741824	; 0x40000000
 8006cec:	d026      	beq.n	8006d3c <TIM_Base_SetConfig+0x90>
 8006cee:	f5a2 427c 	sub.w	r2, r2, #64512	; 0xfc00
 8006cf2:	4290      	cmp	r0, r2
 8006cf4:	d022      	beq.n	8006d3c <TIM_Base_SetConfig+0x90>
 8006cf6:	f502 6280 	add.w	r2, r2, #1024	; 0x400
 8006cfa:	4290      	cmp	r0, r2
 8006cfc:	d01e      	beq.n	8006d3c <TIM_Base_SetConfig+0x90>
 8006cfe:	f502 6280 	add.w	r2, r2, #1024	; 0x400
 8006d02:	4290      	cmp	r0, r2
 8006d04:	d01a      	beq.n	8006d3c <TIM_Base_SetConfig+0x90>
 8006d06:	f502 4278 	add.w	r2, r2, #63488	; 0xf800
 8006d0a:	4290      	cmp	r0, r2
 8006d0c:	d016      	beq.n	8006d3c <TIM_Base_SetConfig+0x90>
 8006d0e:	4a19      	ldr	r2, [pc, #100]	; (8006d74 <TIM_Base_SetConfig+0xc8>)
 8006d10:	4290      	cmp	r0, r2
 8006d12:	d013      	beq.n	8006d3c <TIM_Base_SetConfig+0x90>
 8006d14:	f502 6280 	add.w	r2, r2, #1024	; 0x400
 8006d18:	4290      	cmp	r0, r2
 8006d1a:	d00f      	beq.n	8006d3c <TIM_Base_SetConfig+0x90>
 8006d1c:	f502 6280 	add.w	r2, r2, #1024	; 0x400
 8006d20:	4290      	cmp	r0, r2
 8006d22:	d00b      	beq.n	8006d3c <TIM_Base_SetConfig+0x90>
 8006d24:	f5a2 3298 	sub.w	r2, r2, #77824	; 0x13000
 8006d28:	4290      	cmp	r0, r2
 8006d2a:	d007      	beq.n	8006d3c <TIM_Base_SetConfig+0x90>
 8006d2c:	f502 6280 	add.w	r2, r2, #1024	; 0x400
 8006d30:	4290      	cmp	r0, r2
 8006d32:	d003      	beq.n	8006d3c <TIM_Base_SetConfig+0x90>
 8006d34:	f502 6280 	add.w	r2, r2, #1024	; 0x400
 8006d38:	4290      	cmp	r0, r2
 8006d3a:	d103      	bne.n	8006d44 <TIM_Base_SetConfig+0x98>
 8006d3c:	68ca      	ldr	r2, [r1, #12]
 8006d3e:	f423 7340 	bic.w	r3, r3, #768	; 0x300
 8006d42:	4313      	orrs	r3, r2
 8006d44:	694a      	ldr	r2, [r1, #20]
 8006d46:	f023 0380 	bic.w	r3, r3, #128	; 0x80
 8006d4a:	4313      	orrs	r3, r2
 8006d4c:	6003      	str	r3, [r0, #0]
 8006d4e:	688b      	ldr	r3, [r1, #8]
 8006d50:	62c3      	str	r3, [r0, #44]	; 0x2c
 8006d52:	680b      	ldr	r3, [r1, #0]
 8006d54:	6283      	str	r3, [r0, #40]	; 0x28
 8006d56:	4b06      	ldr	r3, [pc, #24]	; (8006d70 <TIM_Base_SetConfig+0xc4>)
 8006d58:	4298      	cmp	r0, r3
 8006d5a:	d003      	beq.n	8006d64 <TIM_Base_SetConfig+0xb8>
 8006d5c:	f503 6380 	add.w	r3, r3, #1024	; 0x400
 8006d60:	4298      	cmp	r0, r3
 8006d62:	d101      	bne.n	8006d68 <TIM_Base_SetConfig+0xbc>
 8006d64:	690b      	ldr	r3, [r1, #16]
 8006d66:	6303      	str	r3, [r0, #48]	; 0x30
 8006d68:	2301      	movs	r3, #1
 8006d6a:	6143      	str	r3, [r0, #20]
 8006d6c:	4770      	bx	lr
 8006d6e:	bf00      	nop
 8006d70:	40010000 	.word	0x40010000
 8006d74:	40014000 	.word	0x40014000

08006d78 <HAL_TIM_Base_Init>:
 8006d78:	b510      	push	{r4, lr}
 8006d7a:	4604      	mov	r4, r0
 8006d7c:	b330      	cbz	r0, 8006dcc <HAL_TIM_Base_Init+0x54>
 8006d7e:	f890 303d 	ldrb.w	r3, [r0, #61]	; 0x3d
 8006d82:	f003 02ff 	and.w	r2, r3, #255	; 0xff
 8006d86:	b91b      	cbnz	r3, 8006d90 <HAL_TIM_Base_Init+0x18>
 8006d88:	f880 203c 	strb.w	r2, [r0, #60]	; 0x3c
 8006d8c:	f7fd f972 	bl	8004074 <HAL_TIM_Base_MspInit>
 8006d90:	2302      	movs	r3, #2
 8006d92:	6820      	ldr	r0, [r4, #0]
 8006d94:	f884 303d 	strb.w	r3, [r4, #61]	; 0x3d
 8006d98:	1d21      	adds	r1, r4, #4
 8006d9a:	f7ff ff87 	bl	8006cac <TIM_Base_SetConfig>
 8006d9e:	2301      	movs	r3, #1
 8006da0:	f884 3046 	strb.w	r3, [r4, #70]	; 0x46
 8006da4:	2000      	movs	r0, #0
 8006da6:	f884 303e 	strb.w	r3, [r4, #62]	; 0x3e
 8006daa:	f884 303f 	strb.w	r3, [r4, #63]	; 0x3f
 8006dae:	f884 3040 	strb.w	r3, [r4, #64]	; 0x40
 8006db2:	f884 3041 	strb.w	r3, [r4, #65]	; 0x41
 8006db6:	f884 3042 	strb.w	r3, [r4, #66]	; 0x42
 8006dba:	f884 3043 	strb.w	r3, [r4, #67]	; 0x43
 8006dbe:	f884 3044 	strb.w	r3, [r4, #68]	; 0x44
 8006dc2:	f884 3045 	strb.w	r3, [r4, #69]	; 0x45
 8006dc6:	f884 303d 	strb.w	r3, [r4, #61]	; 0x3d
 8006dca:	bd10      	pop	{r4, pc}
 8006dcc:	2001      	movs	r0, #1
 8006dce:	e7fc      	b.n	8006dca <HAL_TIM_Base_Init+0x52>

08006dd0 <HAL_TIM_PWM_Init>:
 8006dd0:	b510      	push	{r4, lr}
 8006dd2:	4604      	mov	r4, r0
 8006dd4:	b330      	cbz	r0, 8006e24 <HAL_TIM_PWM_Init+0x54>
 8006dd6:	f890 303d 	ldrb.w	r3, [r0, #61]	; 0x3d
 8006dda:	f003 02ff 	and.w	r2, r3, #255	; 0xff
 8006dde:	b91b      	cbnz	r3, 8006de8 <HAL_TIM_PWM_Init+0x18>
 8006de0:	f880 203c 	strb.w	r2, [r0, #60]	; 0x3c
 8006de4:	f7fd f9c4 	bl	8004170 <HAL_TIM_PWM_MspInit>
 8006de8:	2302      	movs	r3, #2
 8006dea:	6820      	ldr	r0, [r4, #0]
 8006dec:	f884 303d 	strb.w	r3, [r4, #61]	; 0x3d
 8006df0:	1d21      	adds	r1, r4, #4
 8006df2:	f7ff ff5b 	bl	8006cac <TIM_Base_SetConfig>
 8006df6:	2301      	movs	r3, #1
 8006df8:	f884 3046 	strb.w	r3, [r4, #70]	; 0x46
 8006dfc:	2000      	movs	r0, #0
 8006dfe:	f884 303e 	strb.w	r3, [r4, #62]	; 0x3e
 8006e02:	f884 303f 	strb.w	r3, [r4, #63]	; 0x3f
 8006e06:	f884 3040 	strb.w	r3, [r4, #64]	; 0x40
 8006e0a:	f884 3041 	strb.w	r3, [r4, #65]	; 0x41
 8006e0e:	f884 3042 	strb.w	r3, [r4, #66]	; 0x42
 8006e12:	f884 3043 	strb.w	r3, [r4, #67]	; 0x43
 8006e16:	f884 3044 	strb.w	r3, [r4, #68]	; 0x44
 8006e1a:	f884 3045 	strb.w	r3, [r4, #69]	; 0x45
 8006e1e:	f884 303d 	strb.w	r3, [r4, #61]	; 0x3d
 8006e22:	bd10      	pop	{r4, pc}
 8006e24:	2001      	movs	r0, #1
 8006e26:	e7fc      	b.n	8006e22 <HAL_TIM_PWM_Init+0x52>

08006e28 <TIM_OC2_SetConfig>:
 8006e28:	6a03      	ldr	r3, [r0, #32]
 8006e2a:	f023 0310 	bic.w	r3, r3, #16
 8006e2e:	6203      	str	r3, [r0, #32]
 8006e30:	6a03      	ldr	r3, [r0, #32]
 8006e32:	b570      	push	{r4, r5, r6, lr}
 8006e34:	6844      	ldr	r4, [r0, #4]
 8006e36:	6982      	ldr	r2, [r0, #24]
 8006e38:	680d      	ldr	r5, [r1, #0]
 8006e3a:	f422 42e6 	bic.w	r2, r2, #29440	; 0x7300
 8006e3e:	ea42 2205 	orr.w	r2, r2, r5, lsl #8
 8006e42:	688d      	ldr	r5, [r1, #8]
 8006e44:	f023 0320 	bic.w	r3, r3, #32
 8006e48:	ea43 1305 	orr.w	r3, r3, r5, lsl #4
 8006e4c:	4d10      	ldr	r5, [pc, #64]	; (8006e90 <TIM_OC2_SetConfig+0x68>)
 8006e4e:	42a8      	cmp	r0, r5
 8006e50:	d003      	beq.n	8006e5a <TIM_OC2_SetConfig+0x32>
 8006e52:	f505 6580 	add.w	r5, r5, #1024	; 0x400
 8006e56:	42a8      	cmp	r0, r5
 8006e58:	d114      	bne.n	8006e84 <TIM_OC2_SetConfig+0x5c>
 8006e5a:	68cd      	ldr	r5, [r1, #12]
 8006e5c:	f023 0380 	bic.w	r3, r3, #128	; 0x80
 8006e60:	ea43 1305 	orr.w	r3, r3, r5, lsl #4
 8006e64:	4d0a      	ldr	r5, [pc, #40]	; (8006e90 <TIM_OC2_SetConfig+0x68>)
 8006e66:	42a8      	cmp	r0, r5
 8006e68:	f023 0340 	bic.w	r3, r3, #64	; 0x40
 8006e6c:	d003      	beq.n	8006e76 <TIM_OC2_SetConfig+0x4e>
 8006e6e:	f505 6580 	add.w	r5, r5, #1024	; 0x400
 8006e72:	42a8      	cmp	r0, r5
 8006e74:	d106      	bne.n	8006e84 <TIM_OC2_SetConfig+0x5c>
 8006e76:	e9d1 5605 	ldrd	r5, r6, [r1, #20]
 8006e7a:	f424 6440 	bic.w	r4, r4, #3072	; 0xc00
 8006e7e:	4335      	orrs	r5, r6
 8006e80:	ea44 0485 	orr.w	r4, r4, r5, lsl #2
 8006e84:	6044      	str	r4, [r0, #4]
 8006e86:	6182      	str	r2, [r0, #24]
 8006e88:	684a      	ldr	r2, [r1, #4]
 8006e8a:	6382      	str	r2, [r0, #56]	; 0x38
 8006e8c:	6203      	str	r3, [r0, #32]
 8006e8e:	bd70      	pop	{r4, r5, r6, pc}
 8006e90:	40010000 	.word	0x40010000

08006e94 <HAL_TIM_PWM_ConfigChannel>:
 8006e94:	b570      	push	{r4, r5, r6, lr}
 8006e96:	f890 303c 	ldrb.w	r3, [r0, #60]	; 0x3c
 8006e9a:	2b01      	cmp	r3, #1
 8006e9c:	4605      	mov	r5, r0
 8006e9e:	d053      	beq.n	8006f48 <HAL_TIM_PWM_ConfigChannel+0xb4>
 8006ea0:	2001      	movs	r0, #1
 8006ea2:	2a08      	cmp	r2, #8
 8006ea4:	f885 003c 	strb.w	r0, [r5, #60]	; 0x3c
 8006ea8:	d03d      	beq.n	8006f26 <HAL_TIM_PWM_ConfigChannel+0x92>
 8006eaa:	d806      	bhi.n	8006eba <HAL_TIM_PWM_ConfigChannel+0x26>
 8006eac:	b1c2      	cbz	r2, 8006ee0 <HAL_TIM_PWM_ConfigChannel+0x4c>
 8006eae:	2a04      	cmp	r2, #4
 8006eb0:	d028      	beq.n	8006f04 <HAL_TIM_PWM_ConfigChannel+0x70>
 8006eb2:	2300      	movs	r3, #0
 8006eb4:	f885 303c 	strb.w	r3, [r5, #60]	; 0x3c
 8006eb8:	bd70      	pop	{r4, r5, r6, pc}
 8006eba:	2a0c      	cmp	r2, #12
 8006ebc:	d1f9      	bne.n	8006eb2 <HAL_TIM_PWM_ConfigChannel+0x1e>
 8006ebe:	6828      	ldr	r0, [r5, #0]
 8006ec0:	f7ff fdd6 	bl	8006a70 <TIM_OC4_SetConfig>
 8006ec4:	682b      	ldr	r3, [r5, #0]
 8006ec6:	6909      	ldr	r1, [r1, #16]
 8006ec8:	69da      	ldr	r2, [r3, #28]
 8006eca:	f442 6200 	orr.w	r2, r2, #2048	; 0x800
 8006ece:	61da      	str	r2, [r3, #28]
 8006ed0:	69da      	ldr	r2, [r3, #28]
 8006ed2:	f422 6280 	bic.w	r2, r2, #1024	; 0x400
 8006ed6:	61da      	str	r2, [r3, #28]
 8006ed8:	69da      	ldr	r2, [r3, #28]
 8006eda:	ea42 2201 	orr.w	r2, r2, r1, lsl #8
 8006ede:	e031      	b.n	8006f44 <HAL_TIM_PWM_ConfigChannel+0xb0>
 8006ee0:	6828      	ldr	r0, [r5, #0]
 8006ee2:	f7ff fd5d 	bl	80069a0 <TIM_OC1_SetConfig>
 8006ee6:	682b      	ldr	r3, [r5, #0]
 8006ee8:	6909      	ldr	r1, [r1, #16]
 8006eea:	699a      	ldr	r2, [r3, #24]
 8006eec:	f042 0208 	orr.w	r2, r2, #8
 8006ef0:	619a      	str	r2, [r3, #24]
 8006ef2:	699a      	ldr	r2, [r3, #24]
 8006ef4:	f022 0204 	bic.w	r2, r2, #4
 8006ef8:	619a      	str	r2, [r3, #24]
 8006efa:	699a      	ldr	r2, [r3, #24]
 8006efc:	430a      	orrs	r2, r1
 8006efe:	619a      	str	r2, [r3, #24]
 8006f00:	2000      	movs	r0, #0
 8006f02:	e7d6      	b.n	8006eb2 <HAL_TIM_PWM_ConfigChannel+0x1e>
 8006f04:	6828      	ldr	r0, [r5, #0]
 8006f06:	f7ff ff8f 	bl	8006e28 <TIM_OC2_SetConfig>
 8006f0a:	682b      	ldr	r3, [r5, #0]
 8006f0c:	6909      	ldr	r1, [r1, #16]
 8006f0e:	699a      	ldr	r2, [r3, #24]
 8006f10:	f442 6200 	orr.w	r2, r2, #2048	; 0x800
 8006f14:	619a      	str	r2, [r3, #24]
 8006f16:	699a      	ldr	r2, [r3, #24]
 8006f18:	f422 6280 	bic.w	r2, r2, #1024	; 0x400
 8006f1c:	619a      	str	r2, [r3, #24]
 8006f1e:	699a      	ldr	r2, [r3, #24]
 8006f20:	ea42 2201 	orr.w	r2, r2, r1, lsl #8
 8006f24:	e7eb      	b.n	8006efe <HAL_TIM_PWM_ConfigChannel+0x6a>
 8006f26:	6828      	ldr	r0, [r5, #0]
 8006f28:	f7ff fd6c 	bl	8006a04 <TIM_OC3_SetConfig>
 8006f2c:	682b      	ldr	r3, [r5, #0]
 8006f2e:	6909      	ldr	r1, [r1, #16]
 8006f30:	69da      	ldr	r2, [r3, #28]
 8006f32:	f042 0208 	orr.w	r2, r2, #8
 8006f36:	61da      	str	r2, [r3, #28]
 8006f38:	69da      	ldr	r2, [r3, #28]
 8006f3a:	f022 0204 	bic.w	r2, r2, #4
 8006f3e:	61da      	str	r2, [r3, #28]
 8006f40:	69da      	ldr	r2, [r3, #28]
 8006f42:	430a      	orrs	r2, r1
 8006f44:	61da      	str	r2, [r3, #28]
 8006f46:	e7db      	b.n	8006f00 <HAL_TIM_PWM_ConfigChannel+0x6c>
 8006f48:	2002      	movs	r0, #2
 8006f4a:	e7b5      	b.n	8006eb8 <HAL_TIM_PWM_ConfigChannel+0x24>

08006f4c <TIM_ETR_SetConfig>:
 8006f4c:	b510      	push	{r4, lr}
 8006f4e:	6884      	ldr	r4, [r0, #8]
 8006f50:	4311      	orrs	r1, r2
 8006f52:	f424 447f 	bic.w	r4, r4, #65280	; 0xff00
 8006f56:	ea41 2303 	orr.w	r3, r1, r3, lsl #8
 8006f5a:	4323      	orrs	r3, r4
 8006f5c:	6083      	str	r3, [r0, #8]
 8006f5e:	bd10      	pop	{r4, pc}

08006f60 <HAL_TIM_ConfigClockSource>:
 8006f60:	b570      	push	{r4, r5, r6, lr}
 8006f62:	f890 303c 	ldrb.w	r3, [r0, #60]	; 0x3c
 8006f66:	2b01      	cmp	r3, #1
 8006f68:	4604      	mov	r4, r0
 8006f6a:	f04f 0302 	mov.w	r3, #2
 8006f6e:	f000 8091 	beq.w	8007094 <HAL_TIM_ConfigClockSource+0x134>
 8006f72:	2201      	movs	r2, #1
 8006f74:	f880 303d 	strb.w	r3, [r0, #61]	; 0x3d
 8006f78:	f880 203c 	strb.w	r2, [r0, #60]	; 0x3c
 8006f7c:	6800      	ldr	r0, [r0, #0]
 8006f7e:	6883      	ldr	r3, [r0, #8]
 8006f80:	f423 437f 	bic.w	r3, r3, #65280	; 0xff00
 8006f84:	f023 0377 	bic.w	r3, r3, #119	; 0x77
 8006f88:	6083      	str	r3, [r0, #8]
 8006f8a:	680b      	ldr	r3, [r1, #0]
 8006f8c:	2b60      	cmp	r3, #96	; 0x60
 8006f8e:	d052      	beq.n	8007036 <HAL_TIM_ConfigClockSource+0xd6>
 8006f90:	d833      	bhi.n	8006ffa <HAL_TIM_ConfigClockSource+0x9a>
 8006f92:	2b40      	cmp	r3, #64	; 0x40
 8006f94:	d067      	beq.n	8007066 <HAL_TIM_ConfigClockSource+0x106>
 8006f96:	d816      	bhi.n	8006fc6 <HAL_TIM_ConfigClockSource+0x66>
 8006f98:	2b20      	cmp	r3, #32
 8006f9a:	d00d      	beq.n	8006fb8 <HAL_TIM_ConfigClockSource+0x58>
 8006f9c:	d80a      	bhi.n	8006fb4 <HAL_TIM_ConfigClockSource+0x54>
 8006f9e:	f033 0110 	bics.w	r1, r3, #16
 8006fa2:	d009      	beq.n	8006fb8 <HAL_TIM_ConfigClockSource+0x58>
 8006fa4:	2301      	movs	r3, #1
 8006fa6:	f884 303d 	strb.w	r3, [r4, #61]	; 0x3d
 8006faa:	2300      	movs	r3, #0
 8006fac:	f884 303c 	strb.w	r3, [r4, #60]	; 0x3c
 8006fb0:	4610      	mov	r0, r2
 8006fb2:	bd70      	pop	{r4, r5, r6, pc}
 8006fb4:	2b30      	cmp	r3, #48	; 0x30
 8006fb6:	d1f5      	bne.n	8006fa4 <HAL_TIM_ConfigClockSource+0x44>
 8006fb8:	6882      	ldr	r2, [r0, #8]
 8006fba:	f022 0270 	bic.w	r2, r2, #112	; 0x70
 8006fbe:	4313      	orrs	r3, r2
 8006fc0:	f043 0307 	orr.w	r3, r3, #7
 8006fc4:	e017      	b.n	8006ff6 <HAL_TIM_ConfigClockSource+0x96>
 8006fc6:	2b50      	cmp	r3, #80	; 0x50
 8006fc8:	d1ec      	bne.n	8006fa4 <HAL_TIM_ConfigClockSource+0x44>
 8006fca:	684a      	ldr	r2, [r1, #4]
 8006fcc:	68ce      	ldr	r6, [r1, #12]
 8006fce:	6a01      	ldr	r1, [r0, #32]
 8006fd0:	6a05      	ldr	r5, [r0, #32]
 8006fd2:	f025 0501 	bic.w	r5, r5, #1
 8006fd6:	6205      	str	r5, [r0, #32]
 8006fd8:	6983      	ldr	r3, [r0, #24]
 8006fda:	f021 010a 	bic.w	r1, r1, #10
 8006fde:	f023 03f0 	bic.w	r3, r3, #240	; 0xf0
 8006fe2:	ea43 1306 	orr.w	r3, r3, r6, lsl #4
 8006fe6:	430a      	orrs	r2, r1
 8006fe8:	6183      	str	r3, [r0, #24]
 8006fea:	6202      	str	r2, [r0, #32]
 8006fec:	6883      	ldr	r3, [r0, #8]
 8006fee:	f023 0370 	bic.w	r3, r3, #112	; 0x70
 8006ff2:	f043 0357 	orr.w	r3, r3, #87	; 0x57
 8006ff6:	6083      	str	r3, [r0, #8]
 8006ff8:	e011      	b.n	800701e <HAL_TIM_ConfigClockSource+0xbe>
 8006ffa:	f5b3 5f80 	cmp.w	r3, #4096	; 0x1000
 8006ffe:	d00e      	beq.n	800701e <HAL_TIM_ConfigClockSource+0xbe>
 8007000:	f5b3 5f00 	cmp.w	r3, #8192	; 0x2000
 8007004:	d00d      	beq.n	8007022 <HAL_TIM_ConfigClockSource+0xc2>
 8007006:	2b70      	cmp	r3, #112	; 0x70
 8007008:	d1cc      	bne.n	8006fa4 <HAL_TIM_ConfigClockSource+0x44>
 800700a:	68cb      	ldr	r3, [r1, #12]
 800700c:	e9d1 2101 	ldrd	r2, r1, [r1, #4]
 8007010:	f7ff ff9c 	bl	8006f4c <TIM_ETR_SetConfig>
 8007014:	6822      	ldr	r2, [r4, #0]
 8007016:	6893      	ldr	r3, [r2, #8]
 8007018:	f043 0377 	orr.w	r3, r3, #119	; 0x77
 800701c:	6093      	str	r3, [r2, #8]
 800701e:	2200      	movs	r2, #0
 8007020:	e7c0      	b.n	8006fa4 <HAL_TIM_ConfigClockSource+0x44>
 8007022:	68cb      	ldr	r3, [r1, #12]
 8007024:	e9d1 2101 	ldrd	r2, r1, [r1, #4]
 8007028:	f7ff ff90 	bl	8006f4c <TIM_ETR_SetConfig>
 800702c:	6822      	ldr	r2, [r4, #0]
 800702e:	6893      	ldr	r3, [r2, #8]
 8007030:	f443 4380 	orr.w	r3, r3, #16384	; 0x4000
 8007034:	e7f2      	b.n	800701c <HAL_TIM_ConfigClockSource+0xbc>
 8007036:	684d      	ldr	r5, [r1, #4]
 8007038:	68ce      	ldr	r6, [r1, #12]
 800703a:	6a01      	ldr	r1, [r0, #32]
 800703c:	f021 0110 	bic.w	r1, r1, #16
 8007040:	6201      	str	r1, [r0, #32]
 8007042:	6982      	ldr	r2, [r0, #24]
 8007044:	6a03      	ldr	r3, [r0, #32]
 8007046:	f422 4270 	bic.w	r2, r2, #61440	; 0xf000
 800704a:	f023 03a0 	bic.w	r3, r3, #160	; 0xa0
 800704e:	ea43 1305 	orr.w	r3, r3, r5, lsl #4
 8007052:	ea42 3206 	orr.w	r2, r2, r6, lsl #12
 8007056:	6182      	str	r2, [r0, #24]
 8007058:	6203      	str	r3, [r0, #32]
 800705a:	6883      	ldr	r3, [r0, #8]
 800705c:	f023 0370 	bic.w	r3, r3, #112	; 0x70
 8007060:	f043 0367 	orr.w	r3, r3, #103	; 0x67
 8007064:	e7c7      	b.n	8006ff6 <HAL_TIM_ConfigClockSource+0x96>
 8007066:	684a      	ldr	r2, [r1, #4]
 8007068:	68ce      	ldr	r6, [r1, #12]
 800706a:	6a01      	ldr	r1, [r0, #32]
 800706c:	6a05      	ldr	r5, [r0, #32]
 800706e:	f025 0501 	bic.w	r5, r5, #1
 8007072:	6205      	str	r5, [r0, #32]
 8007074:	6983      	ldr	r3, [r0, #24]
 8007076:	f021 010a 	bic.w	r1, r1, #10
 800707a:	f023 03f0 	bic.w	r3, r3, #240	; 0xf0
 800707e:	ea43 1306 	orr.w	r3, r3, r6, lsl #4
 8007082:	430a      	orrs	r2, r1
 8007084:	6183      	str	r3, [r0, #24]
 8007086:	6202      	str	r2, [r0, #32]
 8007088:	6883      	ldr	r3, [r0, #8]
 800708a:	f023 0370 	bic.w	r3, r3, #112	; 0x70
 800708e:	f043 0347 	orr.w	r3, r3, #71	; 0x47
 8007092:	e7b0      	b.n	8006ff6 <HAL_TIM_ConfigClockSource+0x96>
 8007094:	461a      	mov	r2, r3
 8007096:	e78b      	b.n	8006fb0 <HAL_TIM_ConfigClockSource+0x50>

08007098 <TIM_CCxChannelCmd>:
 8007098:	6a03      	ldr	r3, [r0, #32]
 800709a:	f001 011f 	and.w	r1, r1, #31
 800709e:	b510      	push	{r4, lr}
 80070a0:	2401      	movs	r4, #1
 80070a2:	408c      	lsls	r4, r1
 80070a4:	ea23 0304 	bic.w	r3, r3, r4
 80070a8:	6203      	str	r3, [r0, #32]
 80070aa:	6a03      	ldr	r3, [r0, #32]
 80070ac:	408a      	lsls	r2, r1
 80070ae:	431a      	orrs	r2, r3
 80070b0:	6202      	str	r2, [r0, #32]
 80070b2:	bd10      	pop	{r4, pc}

080070b4 <HAL_TIM_OC_Start>:
 80070b4:	b510      	push	{r4, lr}
 80070b6:	4604      	mov	r4, r0
 80070b8:	b929      	cbnz	r1, 80070c6 <HAL_TIM_OC_Start+0x12>
 80070ba:	f890 303e 	ldrb.w	r3, [r0, #62]	; 0x3e
 80070be:	2b01      	cmp	r3, #1
 80070c0:	d018      	beq.n	80070f4 <HAL_TIM_OC_Start+0x40>
 80070c2:	2001      	movs	r0, #1
 80070c4:	e02d      	b.n	8007122 <HAL_TIM_OC_Start+0x6e>
 80070c6:	2904      	cmp	r1, #4
 80070c8:	d10d      	bne.n	80070e6 <HAL_TIM_OC_Start+0x32>
 80070ca:	f890 303f 	ldrb.w	r3, [r0, #63]	; 0x3f
 80070ce:	3b01      	subs	r3, #1
 80070d0:	bf18      	it	ne
 80070d2:	2301      	movne	r3, #1
 80070d4:	2b00      	cmp	r3, #0
 80070d6:	d1f4      	bne.n	80070c2 <HAL_TIM_OC_Start+0xe>
 80070d8:	2904      	cmp	r1, #4
 80070da:	f04f 0302 	mov.w	r3, #2
 80070de:	d121      	bne.n	8007124 <HAL_TIM_OC_Start+0x70>
 80070e0:	f884 303f 	strb.w	r3, [r4, #63]	; 0x3f
 80070e4:	e009      	b.n	80070fa <HAL_TIM_OC_Start+0x46>
 80070e6:	2908      	cmp	r1, #8
 80070e8:	bf0c      	ite	eq
 80070ea:	f890 3040 	ldrbeq.w	r3, [r0, #64]	; 0x40
 80070ee:	f890 3041 	ldrbne.w	r3, [r0, #65]	; 0x41
 80070f2:	e7ec      	b.n	80070ce <HAL_TIM_OC_Start+0x1a>
 80070f4:	2302      	movs	r3, #2
 80070f6:	f880 303e 	strb.w	r3, [r0, #62]	; 0x3e
 80070fa:	6820      	ldr	r0, [r4, #0]
 80070fc:	2201      	movs	r2, #1
 80070fe:	f7ff ffcb 	bl	8007098 <TIM_CCxChannelCmd>
 8007102:	6823      	ldr	r3, [r4, #0]
 8007104:	491c      	ldr	r1, [pc, #112]	; (8007178 <HAL_TIM_OC_Start+0xc4>)
 8007106:	428b      	cmp	r3, r1
 8007108:	d013      	beq.n	8007132 <HAL_TIM_OC_Start+0x7e>
 800710a:	4a1c      	ldr	r2, [pc, #112]	; (800717c <HAL_TIM_OC_Start+0xc8>)
 800710c:	4293      	cmp	r3, r2
 800710e:	d010      	beq.n	8007132 <HAL_TIM_OC_Start+0x7e>
 8007110:	f1b3 4f80 	cmp.w	r3, #1073741824	; 0x40000000
 8007114:	d114      	bne.n	8007140 <HAL_TIM_OC_Start+0x8c>
 8007116:	689a      	ldr	r2, [r3, #8]
 8007118:	f002 0207 	and.w	r2, r2, #7
 800711c:	2a06      	cmp	r2, #6
 800711e:	d126      	bne.n	800716e <HAL_TIM_OC_Start+0xba>
 8007120:	2000      	movs	r0, #0
 8007122:	bd10      	pop	{r4, pc}
 8007124:	2908      	cmp	r1, #8
 8007126:	bf0c      	ite	eq
 8007128:	f884 3040 	strbeq.w	r3, [r4, #64]	; 0x40
 800712c:	f884 3041 	strbne.w	r3, [r4, #65]	; 0x41
 8007130:	e7e3      	b.n	80070fa <HAL_TIM_OC_Start+0x46>
 8007132:	6c5a      	ldr	r2, [r3, #68]	; 0x44
 8007134:	428b      	cmp	r3, r1
 8007136:	f442 4200 	orr.w	r2, r2, #32768	; 0x8000
 800713a:	645a      	str	r2, [r3, #68]	; 0x44
 800713c:	d0eb      	beq.n	8007116 <HAL_TIM_OC_Start+0x62>
 800713e:	e7e7      	b.n	8007110 <HAL_TIM_OC_Start+0x5c>
 8007140:	4a0f      	ldr	r2, [pc, #60]	; (8007180 <HAL_TIM_OC_Start+0xcc>)
 8007142:	4293      	cmp	r3, r2
 8007144:	d0e7      	beq.n	8007116 <HAL_TIM_OC_Start+0x62>
 8007146:	f502 6280 	add.w	r2, r2, #1024	; 0x400
 800714a:	4293      	cmp	r3, r2
 800714c:	d0e3      	beq.n	8007116 <HAL_TIM_OC_Start+0x62>
 800714e:	f502 6280 	add.w	r2, r2, #1024	; 0x400
 8007152:	4293      	cmp	r3, r2
 8007154:	d0df      	beq.n	8007116 <HAL_TIM_OC_Start+0x62>
 8007156:	f502 4278 	add.w	r2, r2, #63488	; 0xf800
 800715a:	4293      	cmp	r3, r2
 800715c:	d0db      	beq.n	8007116 <HAL_TIM_OC_Start+0x62>
 800715e:	f502 5270 	add.w	r2, r2, #15360	; 0x3c00
 8007162:	4293      	cmp	r3, r2
 8007164:	d0d7      	beq.n	8007116 <HAL_TIM_OC_Start+0x62>
 8007166:	f5a2 3294 	sub.w	r2, r2, #75776	; 0x12800
 800716a:	4293      	cmp	r3, r2
 800716c:	d0d3      	beq.n	8007116 <HAL_TIM_OC_Start+0x62>
 800716e:	681a      	ldr	r2, [r3, #0]
 8007170:	f042 0201 	orr.w	r2, r2, #1
 8007174:	601a      	str	r2, [r3, #0]
 8007176:	e7d3      	b.n	8007120 <HAL_TIM_OC_Start+0x6c>
 8007178:	40010000 	.word	0x40010000
 800717c:	40010400 	.word	0x40010400
 8007180:	40000400 	.word	0x40000400

08007184 <HAL_TIM_PWM_Start>:
 8007184:	f7ff bf96 	b.w	80070b4 <HAL_TIM_OC_Start>

08007188 <HAL_TIMEx_MasterConfigSynchronization>:
 8007188:	b530      	push	{r4, r5, lr}
 800718a:	f890 303c 	ldrb.w	r3, [r0, #60]	; 0x3c
 800718e:	2b01      	cmp	r3, #1
 8007190:	f04f 0302 	mov.w	r3, #2
 8007194:	d032      	beq.n	80071fc <HAL_TIMEx_MasterConfigSynchronization+0x74>
 8007196:	f880 303d 	strb.w	r3, [r0, #61]	; 0x3d
 800719a:	6803      	ldr	r3, [r0, #0]
 800719c:	680d      	ldr	r5, [r1, #0]
 800719e:	685c      	ldr	r4, [r3, #4]
 80071a0:	689a      	ldr	r2, [r3, #8]
 80071a2:	f024 0470 	bic.w	r4, r4, #112	; 0x70
 80071a6:	432c      	orrs	r4, r5
 80071a8:	605c      	str	r4, [r3, #4]
 80071aa:	4c15      	ldr	r4, [pc, #84]	; (8007200 <HAL_TIMEx_MasterConfigSynchronization+0x78>)
 80071ac:	42a3      	cmp	r3, r4
 80071ae:	d01a      	beq.n	80071e6 <HAL_TIMEx_MasterConfigSynchronization+0x5e>
 80071b0:	f1b3 4f80 	cmp.w	r3, #1073741824	; 0x40000000
 80071b4:	d017      	beq.n	80071e6 <HAL_TIMEx_MasterConfigSynchronization+0x5e>
 80071b6:	f5a4 447c 	sub.w	r4, r4, #64512	; 0xfc00
 80071ba:	42a3      	cmp	r3, r4
 80071bc:	d013      	beq.n	80071e6 <HAL_TIMEx_MasterConfigSynchronization+0x5e>
 80071be:	f504 6480 	add.w	r4, r4, #1024	; 0x400
 80071c2:	42a3      	cmp	r3, r4
 80071c4:	d00f      	beq.n	80071e6 <HAL_TIMEx_MasterConfigSynchronization+0x5e>
 80071c6:	f504 6480 	add.w	r4, r4, #1024	; 0x400
 80071ca:	42a3      	cmp	r3, r4
 80071cc:	d00b      	beq.n	80071e6 <HAL_TIMEx_MasterConfigSynchronization+0x5e>
 80071ce:	f504 4478 	add.w	r4, r4, #63488	; 0xf800
 80071d2:	42a3      	cmp	r3, r4
 80071d4:	d007      	beq.n	80071e6 <HAL_TIMEx_MasterConfigSynchronization+0x5e>
 80071d6:	f504 5470 	add.w	r4, r4, #15360	; 0x3c00
 80071da:	42a3      	cmp	r3, r4
 80071dc:	d003      	beq.n	80071e6 <HAL_TIMEx_MasterConfigSynchronization+0x5e>
 80071de:	f5a4 3494 	sub.w	r4, r4, #75776	; 0x12800
 80071e2:	42a3      	cmp	r3, r4
 80071e4:	d104      	bne.n	80071f0 <HAL_TIMEx_MasterConfigSynchronization+0x68>
 80071e6:	6849      	ldr	r1, [r1, #4]
 80071e8:	f022 0280 	bic.w	r2, r2, #128	; 0x80
 80071ec:	430a      	orrs	r2, r1
 80071ee:	609a      	str	r2, [r3, #8]
 80071f0:	2301      	movs	r3, #1
 80071f2:	f880 303d 	strb.w	r3, [r0, #61]	; 0x3d
 80071f6:	2300      	movs	r3, #0
 80071f8:	f880 303c 	strb.w	r3, [r0, #60]	; 0x3c
 80071fc:	4618      	mov	r0, r3
 80071fe:	bd30      	pop	{r4, r5, pc}
 8007200:	40010000 	.word	0x40010000

08007204 <HAL_TIMEx_ConfigBreakDeadTime>:
 8007204:	f890 303c 	ldrb.w	r3, [r0, #60]	; 0x3c
 8007208:	2b01      	cmp	r3, #1
 800720a:	d01f      	beq.n	800724c <HAL_TIMEx_ConfigBreakDeadTime+0x48>
 800720c:	68cb      	ldr	r3, [r1, #12]
 800720e:	688a      	ldr	r2, [r1, #8]
 8007210:	f423 7340 	bic.w	r3, r3, #768	; 0x300
 8007214:	4313      	orrs	r3, r2
 8007216:	684a      	ldr	r2, [r1, #4]
 8007218:	f423 6380 	bic.w	r3, r3, #1024	; 0x400
 800721c:	4313      	orrs	r3, r2
 800721e:	680a      	ldr	r2, [r1, #0]
 8007220:	f423 6300 	bic.w	r3, r3, #2048	; 0x800
 8007224:	4313      	orrs	r3, r2
 8007226:	690a      	ldr	r2, [r1, #16]
 8007228:	f423 5380 	bic.w	r3, r3, #4096	; 0x1000
 800722c:	4313      	orrs	r3, r2
 800722e:	694a      	ldr	r2, [r1, #20]
 8007230:	f423 5300 	bic.w	r3, r3, #8192	; 0x2000
 8007234:	4313      	orrs	r3, r2
 8007236:	69ca      	ldr	r2, [r1, #28]
 8007238:	f423 4380 	bic.w	r3, r3, #16384	; 0x4000
 800723c:	4313      	orrs	r3, r2
 800723e:	6802      	ldr	r2, [r0, #0]
 8007240:	6453      	str	r3, [r2, #68]	; 0x44
 8007242:	2300      	movs	r3, #0
 8007244:	f880 303c 	strb.w	r3, [r0, #60]	; 0x3c
 8007248:	4618      	mov	r0, r3
 800724a:	4770      	bx	lr
 800724c:	2002      	movs	r0, #2
 800724e:	4770      	bx	lr

08007250 <HAL_TIMEx_CommutCallback>:
 8007250:	4770      	bx	lr

08007252 <HAL_TIMEx_BreakCallback>:
 8007252:	4770      	bx	lr

08007254 <UART_SetConfig>:
 8007254:	6802      	ldr	r2, [r0, #0]
 8007256:	68c1      	ldr	r1, [r0, #12]
 8007258:	6913      	ldr	r3, [r2, #16]
 800725a:	f423 5340 	bic.w	r3, r3, #12288	; 0x3000
 800725e:	430b      	orrs	r3, r1
 8007260:	b570      	push	{r4, r5, r6, lr}
 8007262:	6113      	str	r3, [r2, #16]
 8007264:	4605      	mov	r5, r0
 8007266:	6883      	ldr	r3, [r0, #8]
 8007268:	6900      	ldr	r0, [r0, #16]
 800726a:	68d1      	ldr	r1, [r2, #12]
 800726c:	4303      	orrs	r3, r0
 800726e:	6968      	ldr	r0, [r5, #20]
 8007270:	4303      	orrs	r3, r0
 8007272:	69e8      	ldr	r0, [r5, #28]
 8007274:	f421 4116 	bic.w	r1, r1, #38400	; 0x9600
 8007278:	f021 010c 	bic.w	r1, r1, #12
 800727c:	4303      	orrs	r3, r0
 800727e:	430b      	orrs	r3, r1
 8007280:	60d3      	str	r3, [r2, #12]
 8007282:	6953      	ldr	r3, [r2, #20]
 8007284:	69a9      	ldr	r1, [r5, #24]
 8007286:	f423 7340 	bic.w	r3, r3, #768	; 0x300
 800728a:	430b      	orrs	r3, r1
 800728c:	6153      	str	r3, [r2, #20]
 800728e:	4b1f      	ldr	r3, [pc, #124]	; (800730c <UART_SetConfig+0xb8>)
 8007290:	429a      	cmp	r2, r3
 8007292:	d003      	beq.n	800729c <UART_SetConfig+0x48>
 8007294:	f503 6380 	add.w	r3, r3, #1024	; 0x400
 8007298:	429a      	cmp	r2, r3
 800729a:	d123      	bne.n	80072e4 <UART_SetConfig+0x90>
 800729c:	f7fe feb2 	bl	8006004 <HAL_RCC_GetPCLK2Freq>
 80072a0:	69eb      	ldr	r3, [r5, #28]
 80072a2:	2119      	movs	r1, #25
 80072a4:	f5b3 4f00 	cmp.w	r3, #32768	; 0x8000
 80072a8:	e9d5 4600 	ldrd	r4, r6, [r5]
 80072ac:	fba0 0101 	umull	r0, r1, r0, r1
 80072b0:	d11b      	bne.n	80072ea <UART_SetConfig+0x96>
 80072b2:	19b2      	adds	r2, r6, r6
 80072b4:	f04f 0300 	mov.w	r3, #0
 80072b8:	415b      	adcs	r3, r3
 80072ba:	f7f9 fcdd 	bl	8000c78 <__aeabi_uldivmod>
 80072be:	2164      	movs	r1, #100	; 0x64
 80072c0:	fbb0 f5f1 	udiv	r5, r0, r1
 80072c4:	fb01 0315 	mls	r3, r1, r5, r0
 80072c8:	00db      	lsls	r3, r3, #3
 80072ca:	3332      	adds	r3, #50	; 0x32
 80072cc:	fbb3 f3f1 	udiv	r3, r3, r1
 80072d0:	f003 0207 	and.w	r2, r3, #7
 80072d4:	005b      	lsls	r3, r3, #1
 80072d6:	eb02 1205 	add.w	r2, r2, r5, lsl #4
 80072da:	f403 73f8 	and.w	r3, r3, #496	; 0x1f0
 80072de:	4413      	add	r3, r2
 80072e0:	60a3      	str	r3, [r4, #8]
 80072e2:	bd70      	pop	{r4, r5, r6, pc}
 80072e4:	f7fe fe7e 	bl	8005fe4 <HAL_RCC_GetPCLK1Freq>
 80072e8:	e7da      	b.n	80072a0 <UART_SetConfig+0x4c>
 80072ea:	00b2      	lsls	r2, r6, #2
 80072ec:	0fb3      	lsrs	r3, r6, #30
 80072ee:	f7f9 fcc3 	bl	8000c78 <__aeabi_uldivmod>
 80072f2:	2264      	movs	r2, #100	; 0x64
 80072f4:	fbb0 f1f2 	udiv	r1, r0, r2
 80072f8:	fb02 0311 	mls	r3, r2, r1, r0
 80072fc:	011b      	lsls	r3, r3, #4
 80072fe:	3332      	adds	r3, #50	; 0x32
 8007300:	fbb3 f3f2 	udiv	r3, r3, r2
 8007304:	eb03 1301 	add.w	r3, r3, r1, lsl #4
 8007308:	e7ea      	b.n	80072e0 <UART_SetConfig+0x8c>
 800730a:	bf00      	nop
 800730c:	40011000 	.word	0x40011000

08007310 <HAL_UART_Init>:
 8007310:	b510      	push	{r4, lr}
 8007312:	4604      	mov	r4, r0
 8007314:	b340      	cbz	r0, 8007368 <HAL_UART_Init+0x58>
 8007316:	f890 303d 	ldrb.w	r3, [r0, #61]	; 0x3d
 800731a:	f003 02ff 	and.w	r2, r3, #255	; 0xff
 800731e:	b91b      	cbnz	r3, 8007328 <HAL_UART_Init+0x18>
 8007320:	f880 203c 	strb.w	r2, [r0, #60]	; 0x3c
 8007324:	f7fc ffba 	bl	800429c <HAL_UART_MspInit>
 8007328:	6822      	ldr	r2, [r4, #0]
 800732a:	2324      	movs	r3, #36	; 0x24
 800732c:	f884 303d 	strb.w	r3, [r4, #61]	; 0x3d
 8007330:	68d3      	ldr	r3, [r2, #12]
 8007332:	f423 5300 	bic.w	r3, r3, #8192	; 0x2000
 8007336:	60d3      	str	r3, [r2, #12]
 8007338:	4620      	mov	r0, r4
 800733a:	f7ff ff8b 	bl	8007254 <UART_SetConfig>
 800733e:	6823      	ldr	r3, [r4, #0]
 8007340:	691a      	ldr	r2, [r3, #16]
 8007342:	f422 4290 	bic.w	r2, r2, #18432	; 0x4800
 8007346:	611a      	str	r2, [r3, #16]
 8007348:	695a      	ldr	r2, [r3, #20]
 800734a:	f022 022a 	bic.w	r2, r2, #42	; 0x2a
 800734e:	615a      	str	r2, [r3, #20]
 8007350:	68da      	ldr	r2, [r3, #12]
 8007352:	f442 5200 	orr.w	r2, r2, #8192	; 0x2000
 8007356:	60da      	str	r2, [r3, #12]
 8007358:	2000      	movs	r0, #0
 800735a:	2320      	movs	r3, #32
 800735c:	6420      	str	r0, [r4, #64]	; 0x40
 800735e:	f884 303d 	strb.w	r3, [r4, #61]	; 0x3d
 8007362:	f884 303e 	strb.w	r3, [r4, #62]	; 0x3e
 8007366:	bd10      	pop	{r4, pc}
 8007368:	2001      	movs	r0, #1
 800736a:	e7fc      	b.n	8007366 <HAL_UART_Init+0x56>

0800736c <SDIO_Init>:
 800736c:	b084      	sub	sp, #16
 800736e:	b510      	push	{r4, lr}
 8007370:	ac03      	add	r4, sp, #12
 8007372:	e884 000e 	stmia.w	r4, {r1, r2, r3}
 8007376:	460b      	mov	r3, r1
 8007378:	9904      	ldr	r1, [sp, #16]
 800737a:	6842      	ldr	r2, [r0, #4]
 800737c:	430b      	orrs	r3, r1
 800737e:	9905      	ldr	r1, [sp, #20]
 8007380:	430b      	orrs	r3, r1
 8007382:	9906      	ldr	r1, [sp, #24]
 8007384:	430b      	orrs	r3, r1
 8007386:	9907      	ldr	r1, [sp, #28]
 8007388:	430b      	orrs	r3, r1
 800738a:	9908      	ldr	r1, [sp, #32]
 800738c:	e8bd 4010 	ldmia.w	sp!, {r4, lr}
 8007390:	f422 42fd 	bic.w	r2, r2, #32384	; 0x7e80
 8007394:	430b      	orrs	r3, r1
 8007396:	f022 027f 	bic.w	r2, r2, #127	; 0x7f
 800739a:	4313      	orrs	r3, r2
 800739c:	6043      	str	r3, [r0, #4]
 800739e:	b004      	add	sp, #16
 80073a0:	2000      	movs	r0, #0
 80073a2:	4770      	bx	lr

080073a4 <SDIO_ReadFIFO>:
 80073a4:	f8d0 0080 	ldr.w	r0, [r0, #128]	; 0x80
 80073a8:	4770      	bx	lr

080073aa <SDIO_WriteFIFO>:
 80073aa:	680b      	ldr	r3, [r1, #0]
 80073ac:	f8c0 3080 	str.w	r3, [r0, #128]	; 0x80
 80073b0:	2000      	movs	r0, #0
 80073b2:	4770      	bx	lr

080073b4 <SDIO_PowerState_ON>:
 80073b4:	2303      	movs	r3, #3
 80073b6:	6003      	str	r3, [r0, #0]
 80073b8:	2000      	movs	r0, #0
 80073ba:	4770      	bx	lr

080073bc <SDIO_GetPowerState>:
 80073bc:	6800      	ldr	r0, [r0, #0]
 80073be:	f000 0003 	and.w	r0, r0, #3
 80073c2:	4770      	bx	lr

080073c4 <SDIO_SendCommand>:
 80073c4:	680b      	ldr	r3, [r1, #0]
 80073c6:	b510      	push	{r4, lr}
 80073c8:	6083      	str	r3, [r0, #8]
 80073ca:	e9d1 3401 	ldrd	r3, r4, [r1, #4]
 80073ce:	68c2      	ldr	r2, [r0, #12]
 80073d0:	4323      	orrs	r3, r4
 80073d2:	68cc      	ldr	r4, [r1, #12]
 80073d4:	6909      	ldr	r1, [r1, #16]
 80073d6:	4323      	orrs	r3, r4
 80073d8:	f422 627f 	bic.w	r2, r2, #4080	; 0xff0
 80073dc:	430b      	orrs	r3, r1
 80073de:	f022 020f 	bic.w	r2, r2, #15
 80073e2:	4313      	orrs	r3, r2
 80073e4:	60c3      	str	r3, [r0, #12]
 80073e6:	2000      	movs	r0, #0
 80073e8:	bd10      	pop	{r4, pc}

080073ea <SDIO_GetResponse>:
 80073ea:	3014      	adds	r0, #20
 80073ec:	5840      	ldr	r0, [r0, r1]
 80073ee:	4770      	bx	lr

080073f0 <SDIO_ConfigData>:
 80073f0:	680b      	ldr	r3, [r1, #0]
 80073f2:	b510      	push	{r4, lr}
 80073f4:	6243      	str	r3, [r0, #36]	; 0x24
 80073f6:	684b      	ldr	r3, [r1, #4]
 80073f8:	6283      	str	r3, [r0, #40]	; 0x28
 80073fa:	e9d1 3402 	ldrd	r3, r4, [r1, #8]
 80073fe:	4323      	orrs	r3, r4
 8007400:	690c      	ldr	r4, [r1, #16]
 8007402:	6ac2      	ldr	r2, [r0, #44]	; 0x2c
 8007404:	6949      	ldr	r1, [r1, #20]
 8007406:	4323      	orrs	r3, r4
 8007408:	430b      	orrs	r3, r1
 800740a:	f022 02f7 	bic.w	r2, r2, #247	; 0xf7
 800740e:	4313      	orrs	r3, r2
 8007410:	62c3      	str	r3, [r0, #44]	; 0x2c
 8007412:	2000      	movs	r0, #0
 8007414:	bd10      	pop	{r4, pc}
	...

08007418 <SDMMC_CmdGoIdleState>:
 8007418:	b510      	push	{r4, lr}
 800741a:	2300      	movs	r3, #0
 800741c:	b086      	sub	sp, #24
 800741e:	e9cd 3301 	strd	r3, r3, [sp, #4]
 8007422:	e9cd 3303 	strd	r3, r3, [sp, #12]
 8007426:	a901      	add	r1, sp, #4
 8007428:	f44f 6380 	mov.w	r3, #1024	; 0x400
 800742c:	9305      	str	r3, [sp, #20]
 800742e:	4604      	mov	r4, r0
 8007430:	f7ff ffc8 	bl	80073c4 <SDIO_SendCommand>
 8007434:	4b0a      	ldr	r3, [pc, #40]	; (8007460 <SDMMC_CmdGoIdleState+0x48>)
 8007436:	f44f 52fa 	mov.w	r2, #8000	; 0x1f40
 800743a:	681b      	ldr	r3, [r3, #0]
 800743c:	fbb3 f3f2 	udiv	r3, r3, r2
 8007440:	f241 3288 	movw	r2, #5000	; 0x1388
 8007444:	4353      	muls	r3, r2
 8007446:	3b01      	subs	r3, #1
 8007448:	d307      	bcc.n	800745a <SDMMC_CmdGoIdleState+0x42>
 800744a:	6b62      	ldr	r2, [r4, #52]	; 0x34
 800744c:	0612      	lsls	r2, r2, #24
 800744e:	d5fa      	bpl.n	8007446 <SDMMC_CmdGoIdleState+0x2e>
 8007450:	23c5      	movs	r3, #197	; 0xc5
 8007452:	63a3      	str	r3, [r4, #56]	; 0x38
 8007454:	2000      	movs	r0, #0
 8007456:	b006      	add	sp, #24
 8007458:	bd10      	pop	{r4, pc}
 800745a:	f04f 4000 	mov.w	r0, #2147483648	; 0x80000000
 800745e:	e7fa      	b.n	8007456 <SDMMC_CmdGoIdleState+0x3e>
 8007460:	200000c0 	.word	0x200000c0

08007464 <SDMMC_GetCmdResp1>:
 8007464:	4b45      	ldr	r3, [pc, #276]	; (800757c <SDMMC_GetCmdResp1+0x118>)
 8007466:	b510      	push	{r4, lr}
 8007468:	681b      	ldr	r3, [r3, #0]
 800746a:	4604      	mov	r4, r0
 800746c:	f44f 50fa 	mov.w	r0, #8000	; 0x1f40
 8007470:	fbb3 f3f0 	udiv	r3, r3, r0
 8007474:	435a      	muls	r2, r3
 8007476:	2a00      	cmp	r2, #0
 8007478:	d049      	beq.n	800750e <SDMMC_GetCmdResp1+0xaa>
 800747a:	6b63      	ldr	r3, [r4, #52]	; 0x34
 800747c:	f013 0f45 	tst.w	r3, #69	; 0x45
 8007480:	d007      	beq.n	8007492 <SDMMC_GetCmdResp1+0x2e>
 8007482:	051b      	lsls	r3, r3, #20
 8007484:	d405      	bmi.n	8007492 <SDMMC_GetCmdResp1+0x2e>
 8007486:	6b63      	ldr	r3, [r4, #52]	; 0x34
 8007488:	0758      	lsls	r0, r3, #29
 800748a:	d504      	bpl.n	8007496 <SDMMC_GetCmdResp1+0x32>
 800748c:	2004      	movs	r0, #4
 800748e:	63a0      	str	r0, [r4, #56]	; 0x38
 8007490:	bd10      	pop	{r4, pc}
 8007492:	3a01      	subs	r2, #1
 8007494:	e7ef      	b.n	8007476 <SDMMC_GetCmdResp1+0x12>
 8007496:	6b60      	ldr	r0, [r4, #52]	; 0x34
 8007498:	f010 0001 	ands.w	r0, r0, #1
 800749c:	d002      	beq.n	80074a4 <SDMMC_GetCmdResp1+0x40>
 800749e:	2301      	movs	r3, #1
 80074a0:	63a3      	str	r3, [r4, #56]	; 0x38
 80074a2:	e7f5      	b.n	8007490 <SDMMC_GetCmdResp1+0x2c>
 80074a4:	23c5      	movs	r3, #197	; 0xc5
 80074a6:	63a3      	str	r3, [r4, #56]	; 0x38
 80074a8:	6923      	ldr	r3, [r4, #16]
 80074aa:	b2db      	uxtb	r3, r3
 80074ac:	4299      	cmp	r1, r3
 80074ae:	d131      	bne.n	8007514 <SDMMC_GetCmdResp1+0xb0>
 80074b0:	6963      	ldr	r3, [r4, #20]
 80074b2:	4833      	ldr	r0, [pc, #204]	; (8007580 <SDMMC_GetCmdResp1+0x11c>)
 80074b4:	4018      	ands	r0, r3
 80074b6:	2800      	cmp	r0, #0
 80074b8:	d0ea      	beq.n	8007490 <SDMMC_GetCmdResp1+0x2c>
 80074ba:	2b00      	cmp	r3, #0
 80074bc:	db2c      	blt.n	8007518 <SDMMC_GetCmdResp1+0xb4>
 80074be:	005a      	lsls	r2, r3, #1
 80074c0:	d42d      	bmi.n	800751e <SDMMC_GetCmdResp1+0xba>
 80074c2:	009c      	lsls	r4, r3, #2
 80074c4:	d42d      	bmi.n	8007522 <SDMMC_GetCmdResp1+0xbe>
 80074c6:	00d9      	lsls	r1, r3, #3
 80074c8:	d42d      	bmi.n	8007526 <SDMMC_GetCmdResp1+0xc2>
 80074ca:	011a      	lsls	r2, r3, #4
 80074cc:	d42e      	bmi.n	800752c <SDMMC_GetCmdResp1+0xc8>
 80074ce:	015c      	lsls	r4, r3, #5
 80074d0:	d42f      	bmi.n	8007532 <SDMMC_GetCmdResp1+0xce>
 80074d2:	01d9      	lsls	r1, r3, #7
 80074d4:	d430      	bmi.n	8007538 <SDMMC_GetCmdResp1+0xd4>
 80074d6:	021a      	lsls	r2, r3, #8
 80074d8:	d431      	bmi.n	800753e <SDMMC_GetCmdResp1+0xda>
 80074da:	025c      	lsls	r4, r3, #9
 80074dc:	d432      	bmi.n	8007544 <SDMMC_GetCmdResp1+0xe0>
 80074de:	0299      	lsls	r1, r3, #10
 80074e0:	d433      	bmi.n	800754a <SDMMC_GetCmdResp1+0xe6>
 80074e2:	02da      	lsls	r2, r3, #11
 80074e4:	d434      	bmi.n	8007550 <SDMMC_GetCmdResp1+0xec>
 80074e6:	035c      	lsls	r4, r3, #13
 80074e8:	d435      	bmi.n	8007556 <SDMMC_GetCmdResp1+0xf2>
 80074ea:	0399      	lsls	r1, r3, #14
 80074ec:	d436      	bmi.n	800755c <SDMMC_GetCmdResp1+0xf8>
 80074ee:	03da      	lsls	r2, r3, #15
 80074f0:	d437      	bmi.n	8007562 <SDMMC_GetCmdResp1+0xfe>
 80074f2:	041c      	lsls	r4, r3, #16
 80074f4:	d438      	bmi.n	8007568 <SDMMC_GetCmdResp1+0x104>
 80074f6:	0459      	lsls	r1, r3, #17
 80074f8:	d439      	bmi.n	800756e <SDMMC_GetCmdResp1+0x10a>
 80074fa:	049a      	lsls	r2, r3, #18
 80074fc:	d43a      	bmi.n	8007574 <SDMMC_GetCmdResp1+0x110>
 80074fe:	f013 0f08 	tst.w	r3, #8
 8007502:	bf14      	ite	ne
 8007504:	f44f 0000 	movne.w	r0, #8388608	; 0x800000
 8007508:	f44f 3080 	moveq.w	r0, #65536	; 0x10000
 800750c:	e7c0      	b.n	8007490 <SDMMC_GetCmdResp1+0x2c>
 800750e:	f04f 4000 	mov.w	r0, #2147483648	; 0x80000000
 8007512:	e7bd      	b.n	8007490 <SDMMC_GetCmdResp1+0x2c>
 8007514:	2001      	movs	r0, #1
 8007516:	e7bb      	b.n	8007490 <SDMMC_GetCmdResp1+0x2c>
 8007518:	f04f 7000 	mov.w	r0, #33554432	; 0x2000000
 800751c:	e7b8      	b.n	8007490 <SDMMC_GetCmdResp1+0x2c>
 800751e:	2040      	movs	r0, #64	; 0x40
 8007520:	e7b6      	b.n	8007490 <SDMMC_GetCmdResp1+0x2c>
 8007522:	2080      	movs	r0, #128	; 0x80
 8007524:	e7b4      	b.n	8007490 <SDMMC_GetCmdResp1+0x2c>
 8007526:	f44f 7080 	mov.w	r0, #256	; 0x100
 800752a:	e7b1      	b.n	8007490 <SDMMC_GetCmdResp1+0x2c>
 800752c:	f44f 7000 	mov.w	r0, #512	; 0x200
 8007530:	e7ae      	b.n	8007490 <SDMMC_GetCmdResp1+0x2c>
 8007532:	f44f 6080 	mov.w	r0, #1024	; 0x400
 8007536:	e7ab      	b.n	8007490 <SDMMC_GetCmdResp1+0x2c>
 8007538:	f44f 6000 	mov.w	r0, #2048	; 0x800
 800753c:	e7a8      	b.n	8007490 <SDMMC_GetCmdResp1+0x2c>
 800753e:	f44f 5080 	mov.w	r0, #4096	; 0x1000
 8007542:	e7a5      	b.n	8007490 <SDMMC_GetCmdResp1+0x2c>
 8007544:	f44f 5000 	mov.w	r0, #8192	; 0x2000
 8007548:	e7a2      	b.n	8007490 <SDMMC_GetCmdResp1+0x2c>
 800754a:	f44f 4080 	mov.w	r0, #16384	; 0x4000
 800754e:	e79f      	b.n	8007490 <SDMMC_GetCmdResp1+0x2c>
 8007550:	f44f 4000 	mov.w	r0, #32768	; 0x8000
 8007554:	e79c      	b.n	8007490 <SDMMC_GetCmdResp1+0x2c>
 8007556:	f44f 3000 	mov.w	r0, #131072	; 0x20000
 800755a:	e799      	b.n	8007490 <SDMMC_GetCmdResp1+0x2c>
 800755c:	f44f 2080 	mov.w	r0, #262144	; 0x40000
 8007560:	e796      	b.n	8007490 <SDMMC_GetCmdResp1+0x2c>
 8007562:	f44f 2000 	mov.w	r0, #524288	; 0x80000
 8007566:	e793      	b.n	8007490 <SDMMC_GetCmdResp1+0x2c>
 8007568:	f44f 1080 	mov.w	r0, #1048576	; 0x100000
 800756c:	e790      	b.n	8007490 <SDMMC_GetCmdResp1+0x2c>
 800756e:	f44f 1000 	mov.w	r0, #2097152	; 0x200000
 8007572:	e78d      	b.n	8007490 <SDMMC_GetCmdResp1+0x2c>
 8007574:	f44f 0080 	mov.w	r0, #4194304	; 0x400000
 8007578:	e78a      	b.n	8007490 <SDMMC_GetCmdResp1+0x2c>
 800757a:	bf00      	nop
 800757c:	200000c0 	.word	0x200000c0
 8007580:	fdffe008 	.word	0xfdffe008

08007584 <SDMMC_CmdBlockLength>:
 8007584:	b530      	push	{r4, r5, lr}
 8007586:	b087      	sub	sp, #28
 8007588:	2510      	movs	r5, #16
 800758a:	2340      	movs	r3, #64	; 0x40
 800758c:	e9cd 5302 	strd	r5, r3, [sp, #8]
 8007590:	4604      	mov	r4, r0
 8007592:	f44f 6380 	mov.w	r3, #1024	; 0x400
 8007596:	9101      	str	r1, [sp, #4]
 8007598:	2200      	movs	r2, #0
 800759a:	a901      	add	r1, sp, #4
 800759c:	e9cd 2304 	strd	r2, r3, [sp, #16]
 80075a0:	f7ff ff10 	bl	80073c4 <SDIO_SendCommand>
 80075a4:	f241 3288 	movw	r2, #5000	; 0x1388
 80075a8:	4629      	mov	r1, r5
 80075aa:	4620      	mov	r0, r4
 80075ac:	f7ff ff5a 	bl	8007464 <SDMMC_GetCmdResp1>
 80075b0:	b007      	add	sp, #28
 80075b2:	bd30      	pop	{r4, r5, pc}

080075b4 <SDMMC_CmdReadSingleBlock>:
 80075b4:	b530      	push	{r4, r5, lr}
 80075b6:	b087      	sub	sp, #28
 80075b8:	2511      	movs	r5, #17
 80075ba:	2340      	movs	r3, #64	; 0x40
 80075bc:	e9cd 5302 	strd	r5, r3, [sp, #8]
 80075c0:	4604      	mov	r4, r0
 80075c2:	f44f 6380 	mov.w	r3, #1024	; 0x400
 80075c6:	9101      	str	r1, [sp, #4]
 80075c8:	2200      	movs	r2, #0
 80075ca:	a901      	add	r1, sp, #4
 80075cc:	e9cd 2304 	strd	r2, r3, [sp, #16]
 80075d0:	f7ff fef8 	bl	80073c4 <SDIO_SendCommand>
 80075d4:	f241 3288 	movw	r2, #5000	; 0x1388
 80075d8:	4629      	mov	r1, r5
 80075da:	4620      	mov	r0, r4
 80075dc:	f7ff ff42 	bl	8007464 <SDMMC_GetCmdResp1>
 80075e0:	b007      	add	sp, #28
 80075e2:	bd30      	pop	{r4, r5, pc}

080075e4 <SDMMC_CmdReadMultiBlock>:
 80075e4:	b530      	push	{r4, r5, lr}
 80075e6:	b087      	sub	sp, #28
 80075e8:	2512      	movs	r5, #18
 80075ea:	2340      	movs	r3, #64	; 0x40
 80075ec:	e9cd 5302 	strd	r5, r3, [sp, #8]
 80075f0:	4604      	mov	r4, r0
 80075f2:	f44f 6380 	mov.w	r3, #1024	; 0x400
 80075f6:	9101      	str	r1, [sp, #4]
 80075f8:	2200      	movs	r2, #0
 80075fa:	a901      	add	r1, sp, #4
 80075fc:	e9cd 2304 	strd	r2, r3, [sp, #16]
 8007600:	f7ff fee0 	bl	80073c4 <SDIO_SendCommand>
 8007604:	f241 3288 	movw	r2, #5000	; 0x1388
 8007608:	4629      	mov	r1, r5
 800760a:	4620      	mov	r0, r4
 800760c:	f7ff ff2a 	bl	8007464 <SDMMC_GetCmdResp1>
 8007610:	b007      	add	sp, #28
 8007612:	bd30      	pop	{r4, r5, pc}

08007614 <SDMMC_CmdWriteSingleBlock>:
 8007614:	b530      	push	{r4, r5, lr}
 8007616:	b087      	sub	sp, #28
 8007618:	2518      	movs	r5, #24
 800761a:	2340      	movs	r3, #64	; 0x40
 800761c:	e9cd 5302 	strd	r5, r3, [sp, #8]
 8007620:	4604      	mov	r4, r0
 8007622:	f44f 6380 	mov.w	r3, #1024	; 0x400
 8007626:	9101      	str	r1, [sp, #4]
 8007628:	2200      	movs	r2, #0
 800762a:	a901      	add	r1, sp, #4
 800762c:	e9cd 2304 	strd	r2, r3, [sp, #16]
 8007630:	f7ff fec8 	bl	80073c4 <SDIO_SendCommand>
 8007634:	f241 3288 	movw	r2, #5000	; 0x1388
 8007638:	4629      	mov	r1, r5
 800763a:	4620      	mov	r0, r4
 800763c:	f7ff ff12 	bl	8007464 <SDMMC_GetCmdResp1>
 8007640:	b007      	add	sp, #28
 8007642:	bd30      	pop	{r4, r5, pc}

08007644 <SDMMC_CmdWriteMultiBlock>:
 8007644:	b530      	push	{r4, r5, lr}
 8007646:	b087      	sub	sp, #28
 8007648:	2519      	movs	r5, #25
 800764a:	2340      	movs	r3, #64	; 0x40
 800764c:	e9cd 5302 	strd	r5, r3, [sp, #8]
 8007650:	4604      	mov	r4, r0
 8007652:	f44f 6380 	mov.w	r3, #1024	; 0x400
 8007656:	9101      	str	r1, [sp, #4]
 8007658:	2200      	movs	r2, #0
 800765a:	a901      	add	r1, sp, #4
 800765c:	e9cd 2304 	strd	r2, r3, [sp, #16]
 8007660:	f7ff feb0 	bl	80073c4 <SDIO_SendCommand>
 8007664:	f241 3288 	movw	r2, #5000	; 0x1388
 8007668:	4629      	mov	r1, r5
 800766a:	4620      	mov	r0, r4
 800766c:	f7ff fefa 	bl	8007464 <SDMMC_GetCmdResp1>
 8007670:	b007      	add	sp, #28
 8007672:	bd30      	pop	{r4, r5, pc}

08007674 <SDMMC_CmdStopTransfer>:
 8007674:	b530      	push	{r4, r5, lr}
 8007676:	2300      	movs	r3, #0
 8007678:	b087      	sub	sp, #28
 800767a:	250c      	movs	r5, #12
 800767c:	2240      	movs	r2, #64	; 0x40
 800767e:	e9cd 2303 	strd	r2, r3, [sp, #12]
 8007682:	e9cd 3501 	strd	r3, r5, [sp, #4]
 8007686:	4604      	mov	r4, r0
 8007688:	f44f 6380 	mov.w	r3, #1024	; 0x400
 800768c:	a901      	add	r1, sp, #4
 800768e:	9305      	str	r3, [sp, #20]
 8007690:	f7ff fe98 	bl	80073c4 <SDIO_SendCommand>
 8007694:	4a03      	ldr	r2, [pc, #12]	; (80076a4 <SDMMC_CmdStopTransfer+0x30>)
 8007696:	4629      	mov	r1, r5
 8007698:	4620      	mov	r0, r4
 800769a:	f7ff fee3 	bl	8007464 <SDMMC_GetCmdResp1>
 800769e:	b007      	add	sp, #28
 80076a0:	bd30      	pop	{r4, r5, pc}
 80076a2:	bf00      	nop
 80076a4:	05f5e100 	.word	0x05f5e100

080076a8 <SDMMC_CmdSelDesel>:
 80076a8:	b530      	push	{r4, r5, lr}
 80076aa:	b087      	sub	sp, #28
 80076ac:	2507      	movs	r5, #7
 80076ae:	2340      	movs	r3, #64	; 0x40
 80076b0:	e9cd 5302 	strd	r5, r3, [sp, #8]
 80076b4:	4604      	mov	r4, r0
 80076b6:	f44f 6380 	mov.w	r3, #1024	; 0x400
 80076ba:	9201      	str	r2, [sp, #4]
 80076bc:	a901      	add	r1, sp, #4
 80076be:	2200      	movs	r2, #0
 80076c0:	e9cd 2304 	strd	r2, r3, [sp, #16]
 80076c4:	f7ff fe7e 	bl	80073c4 <SDIO_SendCommand>
 80076c8:	f241 3288 	movw	r2, #5000	; 0x1388
 80076cc:	4629      	mov	r1, r5
 80076ce:	4620      	mov	r0, r4
 80076d0:	f7ff fec8 	bl	8007464 <SDMMC_GetCmdResp1>
 80076d4:	b007      	add	sp, #28
 80076d6:	bd30      	pop	{r4, r5, pc}

080076d8 <SDMMC_CmdAppCommand>:
 80076d8:	b530      	push	{r4, r5, lr}
 80076da:	b087      	sub	sp, #28
 80076dc:	2537      	movs	r5, #55	; 0x37
 80076de:	2340      	movs	r3, #64	; 0x40
 80076e0:	e9cd 5302 	strd	r5, r3, [sp, #8]
 80076e4:	4604      	mov	r4, r0
 80076e6:	f44f 6380 	mov.w	r3, #1024	; 0x400
 80076ea:	9101      	str	r1, [sp, #4]
 80076ec:	2200      	movs	r2, #0
 80076ee:	a901      	add	r1, sp, #4
 80076f0:	e9cd 2304 	strd	r2, r3, [sp, #16]
 80076f4:	f7ff fe66 	bl	80073c4 <SDIO_SendCommand>
 80076f8:	f241 3288 	movw	r2, #5000	; 0x1388
 80076fc:	4629      	mov	r1, r5
 80076fe:	4620      	mov	r0, r4
 8007700:	f7ff feb0 	bl	8007464 <SDMMC_GetCmdResp1>
 8007704:	b007      	add	sp, #28
 8007706:	bd30      	pop	{r4, r5, pc}

08007708 <SDMMC_CmdBusWidth>:
 8007708:	b530      	push	{r4, r5, lr}
 800770a:	b087      	sub	sp, #28
 800770c:	2506      	movs	r5, #6
 800770e:	2340      	movs	r3, #64	; 0x40
 8007710:	e9cd 5302 	strd	r5, r3, [sp, #8]
 8007714:	4604      	mov	r4, r0
 8007716:	f44f 6380 	mov.w	r3, #1024	; 0x400
 800771a:	9101      	str	r1, [sp, #4]
 800771c:	2200      	movs	r2, #0
 800771e:	a901      	add	r1, sp, #4
 8007720:	e9cd 2304 	strd	r2, r3, [sp, #16]
 8007724:	f7ff fe4e 	bl	80073c4 <SDIO_SendCommand>
 8007728:	f241 3288 	movw	r2, #5000	; 0x1388
 800772c:	4629      	mov	r1, r5
 800772e:	4620      	mov	r0, r4
 8007730:	f7ff fe98 	bl	8007464 <SDMMC_GetCmdResp1>
 8007734:	b007      	add	sp, #28
 8007736:	bd30      	pop	{r4, r5, pc}

08007738 <SDMMC_CmdSendSCR>:
 8007738:	b530      	push	{r4, r5, lr}
 800773a:	2300      	movs	r3, #0
 800773c:	b087      	sub	sp, #28
 800773e:	2533      	movs	r5, #51	; 0x33
 8007740:	2240      	movs	r2, #64	; 0x40
 8007742:	e9cd 2303 	strd	r2, r3, [sp, #12]
 8007746:	e9cd 3501 	strd	r3, r5, [sp, #4]
 800774a:	4604      	mov	r4, r0
 800774c:	f44f 6380 	mov.w	r3, #1024	; 0x400
 8007750:	a901      	add	r1, sp, #4
 8007752:	9305      	str	r3, [sp, #20]
 8007754:	f7ff fe36 	bl	80073c4 <SDIO_SendCommand>
 8007758:	f241 3288 	movw	r2, #5000	; 0x1388
 800775c:	4629      	mov	r1, r5
 800775e:	4620      	mov	r0, r4
 8007760:	f7ff fe80 	bl	8007464 <SDMMC_GetCmdResp1>
 8007764:	b007      	add	sp, #28
 8007766:	bd30      	pop	{r4, r5, pc}

08007768 <SDMMC_CmdSendStatus>:
 8007768:	b530      	push	{r4, r5, lr}
 800776a:	b087      	sub	sp, #28
 800776c:	250d      	movs	r5, #13
 800776e:	2340      	movs	r3, #64	; 0x40
 8007770:	e9cd 5302 	strd	r5, r3, [sp, #8]
 8007774:	4604      	mov	r4, r0
 8007776:	f44f 6380 	mov.w	r3, #1024	; 0x400
 800777a:	9101      	str	r1, [sp, #4]
 800777c:	2200      	movs	r2, #0
 800777e:	a901      	add	r1, sp, #4
 8007780:	e9cd 2304 	strd	r2, r3, [sp, #16]
 8007784:	f7ff fe1e 	bl	80073c4 <SDIO_SendCommand>
 8007788:	f241 3288 	movw	r2, #5000	; 0x1388
 800778c:	4629      	mov	r1, r5
 800778e:	4620      	mov	r0, r4
 8007790:	f7ff fe68 	bl	8007464 <SDMMC_GetCmdResp1>
 8007794:	b007      	add	sp, #28
 8007796:	bd30      	pop	{r4, r5, pc}

08007798 <SDMMC_GetCmdResp2>:
 8007798:	4b11      	ldr	r3, [pc, #68]	; (80077e0 <SDMMC_GetCmdResp2+0x48>)
 800779a:	f44f 51fa 	mov.w	r1, #8000	; 0x1f40
 800779e:	681b      	ldr	r3, [r3, #0]
 80077a0:	fbb3 f3f1 	udiv	r3, r3, r1
 80077a4:	f241 3188 	movw	r1, #5000	; 0x1388
 80077a8:	4602      	mov	r2, r0
 80077aa:	434b      	muls	r3, r1
 80077ac:	3b01      	subs	r3, #1
 80077ae:	d313      	bcc.n	80077d8 <SDMMC_GetCmdResp2+0x40>
 80077b0:	6b51      	ldr	r1, [r2, #52]	; 0x34
 80077b2:	f011 0f45 	tst.w	r1, #69	; 0x45
 80077b6:	d0f9      	beq.n	80077ac <SDMMC_GetCmdResp2+0x14>
 80077b8:	0509      	lsls	r1, r1, #20
 80077ba:	d4f7      	bmi.n	80077ac <SDMMC_GetCmdResp2+0x14>
 80077bc:	6b53      	ldr	r3, [r2, #52]	; 0x34
 80077be:	075b      	lsls	r3, r3, #29
 80077c0:	d502      	bpl.n	80077c8 <SDMMC_GetCmdResp2+0x30>
 80077c2:	2004      	movs	r0, #4
 80077c4:	6390      	str	r0, [r2, #56]	; 0x38
 80077c6:	4770      	bx	lr
 80077c8:	6b50      	ldr	r0, [r2, #52]	; 0x34
 80077ca:	f010 0001 	ands.w	r0, r0, #1
 80077ce:	bf14      	ite	ne
 80077d0:	2301      	movne	r3, #1
 80077d2:	23c5      	moveq	r3, #197	; 0xc5
 80077d4:	6393      	str	r3, [r2, #56]	; 0x38
 80077d6:	4770      	bx	lr
 80077d8:	f04f 4000 	mov.w	r0, #2147483648	; 0x80000000
 80077dc:	4770      	bx	lr
 80077de:	bf00      	nop
 80077e0:	200000c0 	.word	0x200000c0

080077e4 <SDMMC_CmdSendCID>:
 80077e4:	b510      	push	{r4, lr}
 80077e6:	2300      	movs	r3, #0
 80077e8:	b086      	sub	sp, #24
 80077ea:	2202      	movs	r2, #2
 80077ec:	e9cd 3201 	strd	r3, r2, [sp, #4]
 80077f0:	22c0      	movs	r2, #192	; 0xc0
 80077f2:	e9cd 2303 	strd	r2, r3, [sp, #12]
 80077f6:	4604      	mov	r4, r0
 80077f8:	f44f 6380 	mov.w	r3, #1024	; 0x400
 80077fc:	a901      	add	r1, sp, #4
 80077fe:	9305      	str	r3, [sp, #20]
 8007800:	f7ff fde0 	bl	80073c4 <SDIO_SendCommand>
 8007804:	4620      	mov	r0, r4
 8007806:	f7ff ffc7 	bl	8007798 <SDMMC_GetCmdResp2>
 800780a:	b006      	add	sp, #24
 800780c:	bd10      	pop	{r4, pc}

0800780e <SDMMC_CmdSendCSD>:
 800780e:	b510      	push	{r4, lr}
 8007810:	b086      	sub	sp, #24
 8007812:	2209      	movs	r2, #9
 8007814:	23c0      	movs	r3, #192	; 0xc0
 8007816:	e9cd 2302 	strd	r2, r3, [sp, #8]
 800781a:	9101      	str	r1, [sp, #4]
 800781c:	f44f 6380 	mov.w	r3, #1024	; 0x400
 8007820:	2100      	movs	r1, #0
 8007822:	e9cd 1304 	strd	r1, r3, [sp, #16]
 8007826:	4604      	mov	r4, r0
 8007828:	a901      	add	r1, sp, #4
 800782a:	f7ff fdcb 	bl	80073c4 <SDIO_SendCommand>
 800782e:	4620      	mov	r0, r4
 8007830:	f7ff ffb2 	bl	8007798 <SDMMC_GetCmdResp2>
 8007834:	b006      	add	sp, #24
 8007836:	bd10      	pop	{r4, pc}

08007838 <SDMMC_GetCmdResp3>:
 8007838:	4b0e      	ldr	r3, [pc, #56]	; (8007874 <SDMMC_GetCmdResp3+0x3c>)
 800783a:	f44f 51fa 	mov.w	r1, #8000	; 0x1f40
 800783e:	681b      	ldr	r3, [r3, #0]
 8007840:	fbb3 f3f1 	udiv	r3, r3, r1
 8007844:	f241 3188 	movw	r1, #5000	; 0x1388
 8007848:	4602      	mov	r2, r0
 800784a:	434b      	muls	r3, r1
 800784c:	3b01      	subs	r3, #1
 800784e:	d30e      	bcc.n	800786e <SDMMC_GetCmdResp3+0x36>
 8007850:	6b51      	ldr	r1, [r2, #52]	; 0x34
 8007852:	f011 0f45 	tst.w	r1, #69	; 0x45
 8007856:	d0f9      	beq.n	800784c <SDMMC_GetCmdResp3+0x14>
 8007858:	0509      	lsls	r1, r1, #20
 800785a:	d4f7      	bmi.n	800784c <SDMMC_GetCmdResp3+0x14>
 800785c:	6b50      	ldr	r0, [r2, #52]	; 0x34
 800785e:	f010 0004 	ands.w	r0, r0, #4
 8007862:	bf15      	itete	ne
 8007864:	2004      	movne	r0, #4
 8007866:	23c5      	moveq	r3, #197	; 0xc5
 8007868:	6390      	strne	r0, [r2, #56]	; 0x38
 800786a:	6393      	streq	r3, [r2, #56]	; 0x38
 800786c:	4770      	bx	lr
 800786e:	f04f 4000 	mov.w	r0, #2147483648	; 0x80000000
 8007872:	4770      	bx	lr
 8007874:	200000c0 	.word	0x200000c0

08007878 <SDMMC_CmdAppOperCommand>:
 8007878:	b510      	push	{r4, lr}
 800787a:	f041 4100 	orr.w	r1, r1, #2147483648	; 0x80000000
 800787e:	b086      	sub	sp, #24
 8007880:	2229      	movs	r2, #41	; 0x29
 8007882:	f441 1180 	orr.w	r1, r1, #1048576	; 0x100000
 8007886:	2340      	movs	r3, #64	; 0x40
 8007888:	e9cd 2302 	strd	r2, r3, [sp, #8]
 800788c:	9101      	str	r1, [sp, #4]
 800788e:	f44f 6380 	mov.w	r3, #1024	; 0x400
 8007892:	2100      	movs	r1, #0
 8007894:	e9cd 1304 	strd	r1, r3, [sp, #16]
 8007898:	4604      	mov	r4, r0
 800789a:	a901      	add	r1, sp, #4
 800789c:	f7ff fd92 	bl	80073c4 <SDIO_SendCommand>
 80078a0:	4620      	mov	r0, r4
 80078a2:	f7ff ffc9 	bl	8007838 <SDMMC_GetCmdResp3>
 80078a6:	b006      	add	sp, #24
 80078a8:	bd10      	pop	{r4, pc}
	...

080078ac <SDMMC_GetCmdResp6>:
 80078ac:	4b1f      	ldr	r3, [pc, #124]	; (800792c <SDMMC_GetCmdResp6+0x80>)
 80078ae:	b510      	push	{r4, lr}
 80078b0:	681b      	ldr	r3, [r3, #0]
 80078b2:	4604      	mov	r4, r0
 80078b4:	f44f 50fa 	mov.w	r0, #8000	; 0x1f40
 80078b8:	fbb3 f3f0 	udiv	r3, r3, r0
 80078bc:	f241 3088 	movw	r0, #5000	; 0x1388
 80078c0:	4343      	muls	r3, r0
 80078c2:	3b01      	subs	r3, #1
 80078c4:	d329      	bcc.n	800791a <SDMMC_GetCmdResp6+0x6e>
 80078c6:	6b60      	ldr	r0, [r4, #52]	; 0x34
 80078c8:	f010 0f45 	tst.w	r0, #69	; 0x45
 80078cc:	d0f9      	beq.n	80078c2 <SDMMC_GetCmdResp6+0x16>
 80078ce:	0500      	lsls	r0, r0, #20
 80078d0:	d4f7      	bmi.n	80078c2 <SDMMC_GetCmdResp6+0x16>
 80078d2:	6b63      	ldr	r3, [r4, #52]	; 0x34
 80078d4:	0758      	lsls	r0, r3, #29
 80078d6:	d502      	bpl.n	80078de <SDMMC_GetCmdResp6+0x32>
 80078d8:	2004      	movs	r0, #4
 80078da:	63a0      	str	r0, [r4, #56]	; 0x38
 80078dc:	bd10      	pop	{r4, pc}
 80078de:	6b60      	ldr	r0, [r4, #52]	; 0x34
 80078e0:	f010 0001 	ands.w	r0, r0, #1
 80078e4:	d002      	beq.n	80078ec <SDMMC_GetCmdResp6+0x40>
 80078e6:	2301      	movs	r3, #1
 80078e8:	63a3      	str	r3, [r4, #56]	; 0x38
 80078ea:	e7f7      	b.n	80078dc <SDMMC_GetCmdResp6+0x30>
 80078ec:	6923      	ldr	r3, [r4, #16]
 80078ee:	b2db      	uxtb	r3, r3
 80078f0:	4299      	cmp	r1, r3
 80078f2:	d115      	bne.n	8007920 <SDMMC_GetCmdResp6+0x74>
 80078f4:	23c5      	movs	r3, #197	; 0xc5
 80078f6:	63a3      	str	r3, [r4, #56]	; 0x38
 80078f8:	6963      	ldr	r3, [r4, #20]
 80078fa:	f413 4060 	ands.w	r0, r3, #57344	; 0xe000
 80078fe:	d102      	bne.n	8007906 <SDMMC_GetCmdResp6+0x5a>
 8007900:	0c1b      	lsrs	r3, r3, #16
 8007902:	8013      	strh	r3, [r2, #0]
 8007904:	e7ea      	b.n	80078dc <SDMMC_GetCmdResp6+0x30>
 8007906:	045a      	lsls	r2, r3, #17
 8007908:	d40c      	bmi.n	8007924 <SDMMC_GetCmdResp6+0x78>
 800790a:	f413 4f00 	tst.w	r3, #32768	; 0x8000
 800790e:	bf14      	ite	ne
 8007910:	f44f 5080 	movne.w	r0, #4096	; 0x1000
 8007914:	f44f 3080 	moveq.w	r0, #65536	; 0x10000
 8007918:	e7e0      	b.n	80078dc <SDMMC_GetCmdResp6+0x30>
 800791a:	f04f 4000 	mov.w	r0, #2147483648	; 0x80000000
 800791e:	e7dd      	b.n	80078dc <SDMMC_GetCmdResp6+0x30>
 8007920:	2001      	movs	r0, #1
 8007922:	e7db      	b.n	80078dc <SDMMC_GetCmdResp6+0x30>
 8007924:	f44f 5000 	mov.w	r0, #8192	; 0x2000
 8007928:	e7d8      	b.n	80078dc <SDMMC_GetCmdResp6+0x30>
 800792a:	bf00      	nop
 800792c:	200000c0 	.word	0x200000c0

08007930 <SDMMC_CmdSetRelAdd>:
 8007930:	b530      	push	{r4, r5, lr}
 8007932:	b089      	sub	sp, #36	; 0x24
 8007934:	2300      	movs	r3, #0
 8007936:	9101      	str	r1, [sp, #4]
 8007938:	2503      	movs	r5, #3
 800793a:	2140      	movs	r1, #64	; 0x40
 800793c:	e9cd 1305 	strd	r1, r3, [sp, #20]
 8007940:	e9cd 3503 	strd	r3, r5, [sp, #12]
 8007944:	4604      	mov	r4, r0
 8007946:	f44f 6380 	mov.w	r3, #1024	; 0x400
 800794a:	a903      	add	r1, sp, #12
 800794c:	9307      	str	r3, [sp, #28]
 800794e:	f7ff fd39 	bl	80073c4 <SDIO_SendCommand>
 8007952:	9a01      	ldr	r2, [sp, #4]
 8007954:	4629      	mov	r1, r5
 8007956:	4620      	mov	r0, r4
 8007958:	f7ff ffa8 	bl	80078ac <SDMMC_GetCmdResp6>
 800795c:	b009      	add	sp, #36	; 0x24
 800795e:	bd30      	pop	{r4, r5, pc}

08007960 <SDMMC_GetCmdResp7>:
 8007960:	4b13      	ldr	r3, [pc, #76]	; (80079b0 <SDMMC_GetCmdResp7+0x50>)
 8007962:	f44f 51fa 	mov.w	r1, #8000	; 0x1f40
 8007966:	681b      	ldr	r3, [r3, #0]
 8007968:	fbb3 f3f1 	udiv	r3, r3, r1
 800796c:	f241 3188 	movw	r1, #5000	; 0x1388
 8007970:	4602      	mov	r2, r0
 8007972:	434b      	muls	r3, r1
 8007974:	3b01      	subs	r3, #1
 8007976:	d317      	bcc.n	80079a8 <SDMMC_GetCmdResp7+0x48>
 8007978:	6b51      	ldr	r1, [r2, #52]	; 0x34
 800797a:	f011 0f45 	tst.w	r1, #69	; 0x45
 800797e:	d0f9      	beq.n	8007974 <SDMMC_GetCmdResp7+0x14>
 8007980:	0508      	lsls	r0, r1, #20
 8007982:	d4f7      	bmi.n	8007974 <SDMMC_GetCmdResp7+0x14>
 8007984:	6b53      	ldr	r3, [r2, #52]	; 0x34
 8007986:	0759      	lsls	r1, r3, #29
 8007988:	d502      	bpl.n	8007990 <SDMMC_GetCmdResp7+0x30>
 800798a:	2004      	movs	r0, #4
 800798c:	6390      	str	r0, [r2, #56]	; 0x38
 800798e:	4770      	bx	lr
 8007990:	6b50      	ldr	r0, [r2, #52]	; 0x34
 8007992:	f010 0001 	ands.w	r0, r0, #1
 8007996:	d002      	beq.n	800799e <SDMMC_GetCmdResp7+0x3e>
 8007998:	2301      	movs	r3, #1
 800799a:	6393      	str	r3, [r2, #56]	; 0x38
 800799c:	4770      	bx	lr
 800799e:	6b53      	ldr	r3, [r2, #52]	; 0x34
 80079a0:	065b      	lsls	r3, r3, #25
 80079a2:	d503      	bpl.n	80079ac <SDMMC_GetCmdResp7+0x4c>
 80079a4:	2340      	movs	r3, #64	; 0x40
 80079a6:	e7f8      	b.n	800799a <SDMMC_GetCmdResp7+0x3a>
 80079a8:	f04f 4000 	mov.w	r0, #2147483648	; 0x80000000
 80079ac:	4770      	bx	lr
 80079ae:	bf00      	nop
 80079b0:	200000c0 	.word	0x200000c0

080079b4 <SDMMC_CmdOperCond>:
 80079b4:	b510      	push	{r4, lr}
 80079b6:	f44f 72d5 	mov.w	r2, #426	; 0x1aa
 80079ba:	b086      	sub	sp, #24
 80079bc:	2308      	movs	r3, #8
 80079be:	e9cd 2301 	strd	r2, r3, [sp, #4]
 80079c2:	2140      	movs	r1, #64	; 0x40
 80079c4:	2300      	movs	r3, #0
 80079c6:	e9cd 1303 	strd	r1, r3, [sp, #12]
 80079ca:	4604      	mov	r4, r0
 80079cc:	f44f 6380 	mov.w	r3, #1024	; 0x400
 80079d0:	a901      	add	r1, sp, #4
 80079d2:	9305      	str	r3, [sp, #20]
 80079d4:	f7ff fcf6 	bl	80073c4 <SDIO_SendCommand>
 80079d8:	4620      	mov	r0, r4
 80079da:	f7ff ffc1 	bl	8007960 <SDMMC_GetCmdResp7>
 80079de:	b006      	add	sp, #24
 80079e0:	bd10      	pop	{r4, pc}
	...

080079e4 <MX_FATFS_Init>:
 80079e4:	b508      	push	{r3, lr}
 80079e6:	4903      	ldr	r1, [pc, #12]	; (80079f4 <MX_FATFS_Init+0x10>)
 80079e8:	4803      	ldr	r0, [pc, #12]	; (80079f8 <MX_FATFS_Init+0x14>)
 80079ea:	f000 f8fb 	bl	8007be4 <FATFS_LinkDriver>
 80079ee:	4b03      	ldr	r3, [pc, #12]	; (80079fc <MX_FATFS_Init+0x18>)
 80079f0:	7018      	strb	r0, [r3, #0]
 80079f2:	bd08      	pop	{r3, pc}
 80079f4:	20001820 	.word	0x20001820
 80079f8:	0800b56c 	.word	0x0800b56c
 80079fc:	20001824 	.word	0x20001824

08007a00 <BSP_SD_ReadBlocks>:
 8007a00:	b507      	push	{r0, r1, r2, lr}
 8007a02:	9300      	str	r3, [sp, #0]
 8007a04:	4613      	mov	r3, r2
 8007a06:	460a      	mov	r2, r1
 8007a08:	4601      	mov	r1, r0
 8007a0a:	4804      	ldr	r0, [pc, #16]	; (8007a1c <BSP_SD_ReadBlocks+0x1c>)
 8007a0c:	f7fe fb70 	bl	80060f0 <HAL_SD_ReadBlocks>
 8007a10:	3800      	subs	r0, #0
 8007a12:	bf18      	it	ne
 8007a14:	2001      	movne	r0, #1
 8007a16:	b003      	add	sp, #12
 8007a18:	f85d fb04 	ldr.w	pc, [sp], #4
 8007a1c:	2000147c 	.word	0x2000147c

08007a20 <BSP_SD_WriteBlocks>:
 8007a20:	b507      	push	{r0, r1, r2, lr}
 8007a22:	9300      	str	r3, [sp, #0]
 8007a24:	4613      	mov	r3, r2
 8007a26:	460a      	mov	r2, r1
 8007a28:	4601      	mov	r1, r0
 8007a2a:	4804      	ldr	r0, [pc, #16]	; (8007a3c <BSP_SD_WriteBlocks+0x1c>)
 8007a2c:	f7fe fc64 	bl	80062f8 <HAL_SD_WriteBlocks>
 8007a30:	3800      	subs	r0, #0
 8007a32:	bf18      	it	ne
 8007a34:	2001      	movne	r0, #1
 8007a36:	b003      	add	sp, #12
 8007a38:	f85d fb04 	ldr.w	pc, [sp], #4
 8007a3c:	2000147c 	.word	0x2000147c

08007a40 <BSP_SD_GetCardState>:
 8007a40:	b508      	push	{r3, lr}
 8007a42:	4803      	ldr	r0, [pc, #12]	; (8007a50 <BSP_SD_GetCardState+0x10>)
 8007a44:	f7fe ff98 	bl	8006978 <HAL_SD_GetCardState>
 8007a48:	3804      	subs	r0, #4
 8007a4a:	bf18      	it	ne
 8007a4c:	2001      	movne	r0, #1
 8007a4e:	bd08      	pop	{r3, pc}
 8007a50:	2000147c 	.word	0x2000147c

08007a54 <BSP_SD_GetCardInfo>:
 8007a54:	4601      	mov	r1, r0
 8007a56:	4801      	ldr	r0, [pc, #4]	; (8007a5c <BSP_SD_GetCardInfo+0x8>)
 8007a58:	f7fe bef1 	b.w	800683e <HAL_SD_GetCardInfo>
 8007a5c:	2000147c 	.word	0x2000147c

08007a60 <BSP_SD_IsDetected>:
 8007a60:	b507      	push	{r0, r1, r2, lr}
 8007a62:	2301      	movs	r3, #1
 8007a64:	f88d 3007 	strb.w	r3, [sp, #7]
 8007a68:	f000 f81e 	bl	8007aa8 <BSP_PlatformIsDetected>
 8007a6c:	b908      	cbnz	r0, 8007a72 <BSP_SD_IsDetected+0x12>
 8007a6e:	f88d 0007 	strb.w	r0, [sp, #7]
 8007a72:	f89d 0007 	ldrb.w	r0, [sp, #7]
 8007a76:	b003      	add	sp, #12
 8007a78:	f85d fb04 	ldr.w	pc, [sp], #4

08007a7c <BSP_SD_Init>:
 8007a7c:	b508      	push	{r3, lr}
 8007a7e:	f7ff ffef 	bl	8007a60 <BSP_SD_IsDetected>
 8007a82:	2801      	cmp	r0, #1
 8007a84:	d10c      	bne.n	8007aa0 <BSP_SD_Init+0x24>
 8007a86:	4807      	ldr	r0, [pc, #28]	; (8007aa4 <BSP_SD_Init+0x28>)
 8007a88:	f7fe febe 	bl	8006808 <HAL_SD_Init>
 8007a8c:	b938      	cbnz	r0, 8007a9e <BSP_SD_Init+0x22>
 8007a8e:	4805      	ldr	r0, [pc, #20]	; (8007aa4 <BSP_SD_Init+0x28>)
 8007a90:	f44f 6100 	mov.w	r1, #2048	; 0x800
 8007a94:	f7fe fee6 	bl	8006864 <HAL_SD_ConfigWideBusOperation>
 8007a98:	3800      	subs	r0, #0
 8007a9a:	bf18      	it	ne
 8007a9c:	2001      	movne	r0, #1
 8007a9e:	bd08      	pop	{r3, pc}
 8007aa0:	2001      	movs	r0, #1
 8007aa2:	e7fc      	b.n	8007a9e <BSP_SD_Init+0x22>
 8007aa4:	2000147c 	.word	0x2000147c

08007aa8 <BSP_PlatformIsDetected>:
 8007aa8:	b508      	push	{r3, lr}
 8007aaa:	f44f 7180 	mov.w	r1, #256	; 0x100
 8007aae:	4803      	ldr	r0, [pc, #12]	; (8007abc <BSP_PlatformIsDetected+0x14>)
 8007ab0:	f7fd fb12 	bl	80050d8 <HAL_GPIO_ReadPin>
 8007ab4:	fab0 f080 	clz	r0, r0
 8007ab8:	0940      	lsrs	r0, r0, #5
 8007aba:	bd08      	pop	{r3, pc}
 8007abc:	40020000 	.word	0x40020000

08007ac0 <SD_ioctl>:
 8007ac0:	b530      	push	{r4, r5, lr}
 8007ac2:	4b13      	ldr	r3, [pc, #76]	; (8007b10 <SD_ioctl+0x50>)
 8007ac4:	781c      	ldrb	r4, [r3, #0]
 8007ac6:	f014 0401 	ands.w	r4, r4, #1
 8007aca:	b089      	sub	sp, #36	; 0x24
 8007acc:	4615      	mov	r5, r2
 8007ace:	d11b      	bne.n	8007b08 <SD_ioctl+0x48>
 8007ad0:	2903      	cmp	r1, #3
 8007ad2:	d803      	bhi.n	8007adc <SD_ioctl+0x1c>
 8007ad4:	e8df f001 	tbb	[pc, r1]
 8007ad8:	120c061a 	.word	0x120c061a
 8007adc:	2404      	movs	r4, #4
 8007ade:	4620      	mov	r0, r4
 8007ae0:	b009      	add	sp, #36	; 0x24
 8007ae2:	bd30      	pop	{r4, r5, pc}
 8007ae4:	4668      	mov	r0, sp
 8007ae6:	f7ff ffb5 	bl	8007a54 <BSP_SD_GetCardInfo>
 8007aea:	9b06      	ldr	r3, [sp, #24]
 8007aec:	602b      	str	r3, [r5, #0]
 8007aee:	e7f6      	b.n	8007ade <SD_ioctl+0x1e>
 8007af0:	4668      	mov	r0, sp
 8007af2:	f7ff ffaf 	bl	8007a54 <BSP_SD_GetCardInfo>
 8007af6:	9b07      	ldr	r3, [sp, #28]
 8007af8:	802b      	strh	r3, [r5, #0]
 8007afa:	e7f0      	b.n	8007ade <SD_ioctl+0x1e>
 8007afc:	4668      	mov	r0, sp
 8007afe:	f7ff ffa9 	bl	8007a54 <BSP_SD_GetCardInfo>
 8007b02:	9b07      	ldr	r3, [sp, #28]
 8007b04:	0a5b      	lsrs	r3, r3, #9
 8007b06:	e7f1      	b.n	8007aec <SD_ioctl+0x2c>
 8007b08:	2403      	movs	r4, #3
 8007b0a:	e7e8      	b.n	8007ade <SD_ioctl+0x1e>
 8007b0c:	460c      	mov	r4, r1
 8007b0e:	e7e6      	b.n	8007ade <SD_ioctl+0x1e>
 8007b10:	200000cc 	.word	0x200000cc

08007b14 <SD_read>:
 8007b14:	b508      	push	{r3, lr}
 8007b16:	4608      	mov	r0, r1
 8007b18:	4611      	mov	r1, r2
 8007b1a:	461a      	mov	r2, r3
 8007b1c:	f04f 33ff 	mov.w	r3, #4294967295	; 0xffffffff
 8007b20:	f7ff ff6e 	bl	8007a00 <BSP_SD_ReadBlocks>
 8007b24:	b920      	cbnz	r0, 8007b30 <SD_read+0x1c>
 8007b26:	f7ff ff8b 	bl	8007a40 <BSP_SD_GetCardState>
 8007b2a:	2800      	cmp	r0, #0
 8007b2c:	d1fb      	bne.n	8007b26 <SD_read+0x12>
 8007b2e:	bd08      	pop	{r3, pc}
 8007b30:	2001      	movs	r0, #1
 8007b32:	e7fc      	b.n	8007b2e <SD_read+0x1a>

08007b34 <SD_status>:
 8007b34:	b510      	push	{r4, lr}
 8007b36:	4c06      	ldr	r4, [pc, #24]	; (8007b50 <SD_status+0x1c>)
 8007b38:	2301      	movs	r3, #1
 8007b3a:	7023      	strb	r3, [r4, #0]
 8007b3c:	f7ff ff80 	bl	8007a40 <BSP_SD_GetCardState>
 8007b40:	b918      	cbnz	r0, 8007b4a <SD_status+0x16>
 8007b42:	7823      	ldrb	r3, [r4, #0]
 8007b44:	f003 03fe 	and.w	r3, r3, #254	; 0xfe
 8007b48:	7023      	strb	r3, [r4, #0]
 8007b4a:	7820      	ldrb	r0, [r4, #0]
 8007b4c:	bd10      	pop	{r4, pc}
 8007b4e:	bf00      	nop
 8007b50:	200000cc 	.word	0x200000cc

08007b54 <SD_write>:
 8007b54:	b508      	push	{r3, lr}
 8007b56:	4608      	mov	r0, r1
 8007b58:	4611      	mov	r1, r2
 8007b5a:	461a      	mov	r2, r3
 8007b5c:	f04f 33ff 	mov.w	r3, #4294967295	; 0xffffffff
 8007b60:	f7ff ff5e 	bl	8007a20 <BSP_SD_WriteBlocks>
 8007b64:	b920      	cbnz	r0, 8007b70 <SD_write+0x1c>
 8007b66:	f7ff ff6b 	bl	8007a40 <BSP_SD_GetCardState>
 8007b6a:	2800      	cmp	r0, #0
 8007b6c:	d1fb      	bne.n	8007b66 <SD_write+0x12>
 8007b6e:	bd08      	pop	{r3, pc}
 8007b70:	2001      	movs	r0, #1
 8007b72:	e7fc      	b.n	8007b6e <SD_write+0x1a>

08007b74 <SD_initialize>:
 8007b74:	b538      	push	{r3, r4, r5, lr}
 8007b76:	4c09      	ldr	r4, [pc, #36]	; (8007b9c <SD_initialize+0x28>)
 8007b78:	2501      	movs	r5, #1
 8007b7a:	7025      	strb	r5, [r4, #0]
 8007b7c:	f7ff ff7e 	bl	8007a7c <BSP_SD_Init>
 8007b80:	b950      	cbnz	r0, 8007b98 <SD_initialize+0x24>
 8007b82:	7025      	strb	r5, [r4, #0]
 8007b84:	f7ff ff5c 	bl	8007a40 <BSP_SD_GetCardState>
 8007b88:	b918      	cbnz	r0, 8007b92 <SD_initialize+0x1e>
 8007b8a:	7823      	ldrb	r3, [r4, #0]
 8007b8c:	f003 03fe 	and.w	r3, r3, #254	; 0xfe
 8007b90:	7023      	strb	r3, [r4, #0]
 8007b92:	7823      	ldrb	r3, [r4, #0]
 8007b94:	b2db      	uxtb	r3, r3
 8007b96:	7023      	strb	r3, [r4, #0]
 8007b98:	7820      	ldrb	r0, [r4, #0]
 8007b9a:	bd38      	pop	{r3, r4, r5, pc}
 8007b9c:	200000cc 	.word	0x200000cc

08007ba0 <MX_LIBJPEG_Init>:
 8007ba0:	4770      	bx	lr
	...

08007ba4 <FATFS_LinkDriverEx>:
 8007ba4:	b530      	push	{r4, r5, lr}
 8007ba6:	4b0e      	ldr	r3, [pc, #56]	; (8007be0 <FATFS_LinkDriverEx+0x3c>)
 8007ba8:	7a5c      	ldrb	r4, [r3, #9]
 8007baa:	4605      	mov	r5, r0
 8007bac:	f004 00ff 	and.w	r0, r4, #255	; 0xff
 8007bb0:	b9a4      	cbnz	r4, 8007bdc <FATFS_LinkDriverEx+0x38>
 8007bb2:	7a5c      	ldrb	r4, [r3, #9]
 8007bb4:	5518      	strb	r0, [r3, r4]
 8007bb6:	7a5c      	ldrb	r4, [r3, #9]
 8007bb8:	eb03 0484 	add.w	r4, r3, r4, lsl #2
 8007bbc:	6065      	str	r5, [r4, #4]
 8007bbe:	7a5c      	ldrb	r4, [r3, #9]
 8007bc0:	441c      	add	r4, r3
 8007bc2:	7222      	strb	r2, [r4, #8]
 8007bc4:	7a5a      	ldrb	r2, [r3, #9]
 8007bc6:	1c54      	adds	r4, r2, #1
 8007bc8:	b2e4      	uxtb	r4, r4
 8007bca:	725c      	strb	r4, [r3, #9]
 8007bcc:	233a      	movs	r3, #58	; 0x3a
 8007bce:	3230      	adds	r2, #48	; 0x30
 8007bd0:	704b      	strb	r3, [r1, #1]
 8007bd2:	232f      	movs	r3, #47	; 0x2f
 8007bd4:	700a      	strb	r2, [r1, #0]
 8007bd6:	708b      	strb	r3, [r1, #2]
 8007bd8:	70c8      	strb	r0, [r1, #3]
 8007bda:	bd30      	pop	{r4, r5, pc}
 8007bdc:	2001      	movs	r0, #1
 8007bde:	e7fc      	b.n	8007bda <FATFS_LinkDriverEx+0x36>
 8007be0:	20001828 	.word	0x20001828

08007be4 <FATFS_LinkDriver>:
 8007be4:	2200      	movs	r2, #0
 8007be6:	f7ff bfdd 	b.w	8007ba4 <FATFS_LinkDriverEx>
	...

08007bec <arm_pid_init_f32>:
 8007bec:	edd0 6a08 	vldr	s13, [r0, #32]
 8007bf0:	edd0 7a06 	vldr	s15, [r0, #24]
 8007bf4:	ed90 7a07 	vldr	s14, [r0, #28]
 8007bf8:	edc0 6a02 	vstr	s13, [r0, #8]
 8007bfc:	ee37 7a87 	vadd.f32	s14, s15, s14
 8007c00:	ee36 6aa6 	vadd.f32	s12, s13, s13
 8007c04:	eef1 7a67 	vneg.f32	s15, s15
 8007c08:	ee37 7a26 	vadd.f32	s14, s14, s13
 8007c0c:	ee77 7ac6 	vsub.f32	s15, s15, s12
 8007c10:	ed80 7a00 	vstr	s14, [r0]
 8007c14:	edc0 7a01 	vstr	s15, [r0, #4]
 8007c18:	b161      	cbz	r1, 8007c34 <arm_pid_init_f32+0x48>
 8007c1a:	2300      	movs	r3, #0
 8007c1c:	7303      	strb	r3, [r0, #12]
 8007c1e:	7343      	strb	r3, [r0, #13]
 8007c20:	7383      	strb	r3, [r0, #14]
 8007c22:	73c3      	strb	r3, [r0, #15]
 8007c24:	7403      	strb	r3, [r0, #16]
 8007c26:	7443      	strb	r3, [r0, #17]
 8007c28:	7483      	strb	r3, [r0, #18]
 8007c2a:	74c3      	strb	r3, [r0, #19]
 8007c2c:	7503      	strb	r3, [r0, #20]
 8007c2e:	7543      	strb	r3, [r0, #21]
 8007c30:	7583      	strb	r3, [r0, #22]
 8007c32:	75c3      	strb	r3, [r0, #23]
 8007c34:	4770      	bx	lr
 8007c36:	bf00      	nop

08007c38 <arm_mat_sub_f32>:
 8007c38:	b5f0      	push	{r4, r5, r6, r7, lr}
 8007c3a:	e891 0090 	ldmia.w	r1, {r4, r7}
 8007c3e:	6803      	ldr	r3, [r0, #0]
 8007c40:	6846      	ldr	r6, [r0, #4]
 8007c42:	6855      	ldr	r5, [r2, #4]
 8007c44:	42a3      	cmp	r3, r4
 8007c46:	d14f      	bne.n	8007ce8 <arm_mat_sub_f32+0xb0>
 8007c48:	6812      	ldr	r2, [r2, #0]
 8007c4a:	4293      	cmp	r3, r2
 8007c4c:	d14c      	bne.n	8007ce8 <arm_mat_sub_f32+0xb0>
 8007c4e:	8842      	ldrh	r2, [r0, #2]
 8007c50:	8803      	ldrh	r3, [r0, #0]
 8007c52:	fb03 f002 	mul.w	r0, r3, r2
 8007c56:	ea5f 0e90 	movs.w	lr, r0, lsr #2
 8007c5a:	d033      	beq.n	8007cc4 <arm_mat_sub_f32+0x8c>
 8007c5c:	f106 0110 	add.w	r1, r6, #16
 8007c60:	f107 0210 	add.w	r2, r7, #16
 8007c64:	f105 0310 	add.w	r3, r5, #16
 8007c68:	4674      	mov	r4, lr
 8007c6a:	ed51 6a03 	vldr	s13, [r1, #-12]
 8007c6e:	ed12 5a03 	vldr	s10, [r2, #-12]
 8007c72:	ed51 7a04 	vldr	s15, [r1, #-16]
 8007c76:	ed52 5a04 	vldr	s11, [r2, #-16]
 8007c7a:	ed11 7a02 	vldr	s14, [r1, #-8]
 8007c7e:	ed12 6a02 	vldr	s12, [r2, #-8]
 8007c82:	ee76 6ac5 	vsub.f32	s13, s13, s10
 8007c86:	ee77 7ae5 	vsub.f32	s15, s15, s11
 8007c8a:	ed43 6a03 	vstr	s13, [r3, #-12]
 8007c8e:	ed43 7a04 	vstr	s15, [r3, #-16]
 8007c92:	ed51 7a01 	vldr	s15, [r1, #-4]
 8007c96:	ed52 6a01 	vldr	s13, [r2, #-4]
 8007c9a:	ee37 7a46 	vsub.f32	s14, s14, s12
 8007c9e:	ee77 7ae6 	vsub.f32	s15, s15, s13
 8007ca2:	3c01      	subs	r4, #1
 8007ca4:	ed03 7a02 	vstr	s14, [r3, #-8]
 8007ca8:	ed43 7a01 	vstr	s15, [r3, #-4]
 8007cac:	f101 0110 	add.w	r1, r1, #16
 8007cb0:	f102 0210 	add.w	r2, r2, #16
 8007cb4:	f103 0310 	add.w	r3, r3, #16
 8007cb8:	d1d7      	bne.n	8007c6a <arm_mat_sub_f32+0x32>
 8007cba:	ea4f 130e 	mov.w	r3, lr, lsl #4
 8007cbe:	441e      	add	r6, r3
 8007cc0:	441f      	add	r7, r3
 8007cc2:	441d      	add	r5, r3
 8007cc4:	f010 0303 	ands.w	r3, r0, #3
 8007cc8:	bf18      	it	ne
 8007cca:	462a      	movne	r2, r5
 8007ccc:	d009      	beq.n	8007ce2 <arm_mat_sub_f32+0xaa>
 8007cce:	ecf6 7a01 	vldmia	r6!, {s15}
 8007cd2:	ecb7 7a01 	vldmia	r7!, {s14}
 8007cd6:	ee77 7ac7 	vsub.f32	s15, s15, s14
 8007cda:	3b01      	subs	r3, #1
 8007cdc:	ece2 7a01 	vstmia	r2!, {s15}
 8007ce0:	d1f5      	bne.n	8007cce <arm_mat_sub_f32+0x96>
 8007ce2:	2000      	movs	r0, #0
 8007ce4:	b240      	sxtb	r0, r0
 8007ce6:	bdf0      	pop	{r4, r5, r6, r7, pc}
 8007ce8:	20fd      	movs	r0, #253	; 0xfd
 8007cea:	b240      	sxtb	r0, r0
 8007cec:	bdf0      	pop	{r4, r5, r6, r7, pc}
 8007cee:	bf00      	nop

08007cf0 <arm_mat_mult_f32>:
 8007cf0:	e92d 4ff0 	stmdb	sp!, {r4, r5, r6, r7, r8, r9, sl, fp, lr}
 8007cf4:	8843      	ldrh	r3, [r0, #2]
 8007cf6:	880d      	ldrh	r5, [r1, #0]
 8007cf8:	f8d0 e004 	ldr.w	lr, [r0, #4]
 8007cfc:	6854      	ldr	r4, [r2, #4]
 8007cfe:	8800      	ldrh	r0, [r0, #0]
 8007d00:	f8b1 8002 	ldrh.w	r8, [r1, #2]
 8007d04:	b087      	sub	sp, #28
 8007d06:	429d      	cmp	r5, r3
 8007d08:	9003      	str	r0, [sp, #12]
 8007d0a:	9404      	str	r4, [sp, #16]
 8007d0c:	f040 808d 	bne.w	8007e2a <arm_mat_mult_f32+0x13a>
 8007d10:	8813      	ldrh	r3, [r2, #0]
 8007d12:	4283      	cmp	r3, r0
 8007d14:	f040 8089 	bne.w	8007e2a <arm_mat_mult_f32+0x13a>
 8007d18:	8853      	ldrh	r3, [r2, #2]
 8007d1a:	4543      	cmp	r3, r8
 8007d1c:	f040 8085 	bne.w	8007e2a <arm_mat_mult_f32+0x13a>
 8007d20:	ea4f 0a95 	mov.w	sl, r5, lsr #2
 8007d24:	f005 0303 	and.w	r3, r5, #3
 8007d28:	461a      	mov	r2, r3
 8007d2a:	9301      	str	r3, [sp, #4]
 8007d2c:	f10a 33ff 	add.w	r3, sl, #4294967295	; 0xffffffff
 8007d30:	b29b      	uxth	r3, r3
 8007d32:	3301      	adds	r3, #1
 8007d34:	ea4f 1b08 	mov.w	fp, r8, lsl #4
 8007d38:	fb0b fb03 	mul.w	fp, fp, r3
 8007d3c:	3a01      	subs	r2, #1
 8007d3e:	eb0e 1c03 	add.w	ip, lr, r3, lsl #4
 8007d42:	00ab      	lsls	r3, r5, #2
 8007d44:	b292      	uxth	r2, r2
 8007d46:	9305      	str	r3, [sp, #20]
 8007d48:	2300      	movs	r3, #0
 8007d4a:	3201      	adds	r2, #1
 8007d4c:	9302      	str	r3, [sp, #8]
 8007d4e:	460b      	mov	r3, r1
 8007d50:	684c      	ldr	r4, [r1, #4]
 8007d52:	ea4f 0982 	mov.w	r9, r2, lsl #2
 8007d56:	4651      	mov	r1, sl
 8007d58:	ea4f 0088 	mov.w	r0, r8, lsl #2
 8007d5c:	46da      	mov	sl, fp
 8007d5e:	469b      	mov	fp, r3
 8007d60:	9b04      	ldr	r3, [sp, #16]
 8007d62:	9a02      	ldr	r2, [sp, #8]
 8007d64:	2600      	movs	r6, #0
 8007d66:	eb03 0782 	add.w	r7, r3, r2, lsl #2
 8007d6a:	f10c 0510 	add.w	r5, ip, #16
 8007d6e:	eddf 7a31 	vldr	s15, [pc, #196]	; 8007e34 <arm_mat_mult_f32+0x144>
 8007d72:	2900      	cmp	r1, #0
 8007d74:	d057      	beq.n	8007e26 <arm_mat_mult_f32+0x136>
 8007d76:	f10e 0210 	add.w	r2, lr, #16
 8007d7a:	4623      	mov	r3, r4
 8007d7c:	ed52 5a04 	vldr	s11, [r2, #-16]
 8007d80:	edd3 6a00 	vldr	s13, [r3]
 8007d84:	ed12 7a03 	vldr	s14, [r2, #-12]
 8007d88:	ed12 5a02 	vldr	s10, [r2, #-8]
 8007d8c:	ed12 6a01 	vldr	s12, [r2, #-4]
 8007d90:	4403      	add	r3, r0
 8007d92:	ee65 5aa6 	vmul.f32	s11, s11, s13
 8007d96:	edd3 6a00 	vldr	s13, [r3]
 8007d9a:	4403      	add	r3, r0
 8007d9c:	ee27 7a26 	vmul.f32	s14, s14, s13
 8007da0:	ee75 7aa7 	vadd.f32	s15, s11, s15
 8007da4:	edd3 6a00 	vldr	s13, [r3]
 8007da8:	4403      	add	r3, r0
 8007daa:	ee77 5a27 	vadd.f32	s11, s14, s15
 8007dae:	ee65 7a26 	vmul.f32	s15, s10, s13
 8007db2:	edd3 6a00 	vldr	s13, [r3]
 8007db6:	ee37 7aa5 	vadd.f32	s14, s15, s11
 8007dba:	3210      	adds	r2, #16
 8007dbc:	ee66 7a26 	vmul.f32	s15, s12, s13
 8007dc0:	42aa      	cmp	r2, r5
 8007dc2:	4403      	add	r3, r0
 8007dc4:	ee77 7a87 	vadd.f32	s15, s15, s14
 8007dc8:	d1d8      	bne.n	8007d7c <arm_mat_mult_f32+0x8c>
 8007dca:	4454      	add	r4, sl
 8007dcc:	4663      	mov	r3, ip
 8007dce:	9a01      	ldr	r2, [sp, #4]
 8007dd0:	b162      	cbz	r2, 8007dec <arm_mat_mult_f32+0xfc>
 8007dd2:	eb03 0209 	add.w	r2, r3, r9
 8007dd6:	ecf3 6a01 	vldmia	r3!, {s13}
 8007dda:	ed94 7a00 	vldr	s14, [r4]
 8007dde:	ee26 7a87 	vmul.f32	s14, s13, s14
 8007de2:	4293      	cmp	r3, r2
 8007de4:	4404      	add	r4, r0
 8007de6:	ee77 7a87 	vadd.f32	s15, s15, s14
 8007dea:	d1f4      	bne.n	8007dd6 <arm_mat_mult_f32+0xe6>
 8007dec:	ece7 7a01 	vstmia	r7!, {s15}
 8007df0:	3601      	adds	r6, #1
 8007df2:	b2b6      	uxth	r6, r6
 8007df4:	f8db 3004 	ldr.w	r3, [fp, #4]
 8007df8:	4546      	cmp	r6, r8
 8007dfa:	eb03 0486 	add.w	r4, r3, r6, lsl #2
 8007dfe:	d1b6      	bne.n	8007d6e <arm_mat_mult_f32+0x7e>
 8007e00:	9a03      	ldr	r2, [sp, #12]
 8007e02:	9c02      	ldr	r4, [sp, #8]
 8007e04:	9d05      	ldr	r5, [sp, #20]
 8007e06:	3a01      	subs	r2, #1
 8007e08:	4434      	add	r4, r6
 8007e0a:	b2a4      	uxth	r4, r4
 8007e0c:	b292      	uxth	r2, r2
 8007e0e:	9402      	str	r4, [sp, #8]
 8007e10:	9203      	str	r2, [sp, #12]
 8007e12:	44ae      	add	lr, r5
 8007e14:	44ac      	add	ip, r5
 8007e16:	461c      	mov	r4, r3
 8007e18:	2a00      	cmp	r2, #0
 8007e1a:	d1a1      	bne.n	8007d60 <arm_mat_mult_f32+0x70>
 8007e1c:	4610      	mov	r0, r2
 8007e1e:	b240      	sxtb	r0, r0
 8007e20:	b007      	add	sp, #28
 8007e22:	e8bd 8ff0 	ldmia.w	sp!, {r4, r5, r6, r7, r8, r9, sl, fp, pc}
 8007e26:	4673      	mov	r3, lr
 8007e28:	e7d1      	b.n	8007dce <arm_mat_mult_f32+0xde>
 8007e2a:	20fd      	movs	r0, #253	; 0xfd
 8007e2c:	b240      	sxtb	r0, r0
 8007e2e:	b007      	add	sp, #28
 8007e30:	e8bd 8ff0 	ldmia.w	sp!, {r4, r5, r6, r7, r8, r9, sl, fp, pc}
 8007e34:	00000000 	.word	0x00000000

08007e38 <arm_mat_inverse_f32>:
 8007e38:	e92d 4ff0 	stmdb	sp!, {r4, r5, r6, r7, r8, r9, sl, fp, lr}
 8007e3c:	8803      	ldrh	r3, [r0, #0]
 8007e3e:	8844      	ldrh	r4, [r0, #2]
 8007e40:	6845      	ldr	r5, [r0, #4]
 8007e42:	684a      	ldr	r2, [r1, #4]
 8007e44:	b089      	sub	sp, #36	; 0x24
 8007e46:	429c      	cmp	r4, r3
 8007e48:	9202      	str	r2, [sp, #8]
 8007e4a:	9501      	str	r5, [sp, #4]
 8007e4c:	d004      	beq.n	8007e58 <arm_mat_inverse_f32+0x20>
 8007e4e:	20fd      	movs	r0, #253	; 0xfd
 8007e50:	b240      	sxtb	r0, r0
 8007e52:	b009      	add	sp, #36	; 0x24
 8007e54:	e8bd 8ff0 	ldmia.w	sp!, {r4, r5, r6, r7, r8, r9, sl, fp, pc}
 8007e58:	880a      	ldrh	r2, [r1, #0]
 8007e5a:	884b      	ldrh	r3, [r1, #2]
 8007e5c:	4293      	cmp	r3, r2
 8007e5e:	d1f6      	bne.n	8007e4e <arm_mat_inverse_f32+0x16>
 8007e60:	429c      	cmp	r4, r3
 8007e62:	d1f4      	bne.n	8007e4e <arm_mat_inverse_f32+0x16>
 8007e64:	2c00      	cmp	r4, #0
 8007e66:	f000 80e4 	beq.w	8008032 <arm_mat_inverse_f32+0x1fa>
 8007e6a:	f104 4980 	add.w	r9, r4, #1073741824	; 0x40000000
 8007e6e:	4623      	mov	r3, r4
 8007e70:	f109 39ff 	add.w	r9, r9, #4294967295	; 0xffffffff
 8007e74:	f04f 0a00 	mov.w	sl, #0
 8007e78:	1e67      	subs	r7, r4, #1
 8007e7a:	9007      	str	r0, [sp, #28]
 8007e7c:	ea4f 0989 	mov.w	r9, r9, lsl #2
 8007e80:	9e02      	ldr	r6, [sp, #8]
 8007e82:	f04f 5b7e 	mov.w	fp, #1065353216	; 0x3f800000
 8007e86:	4654      	mov	r4, sl
 8007e88:	4698      	mov	r8, r3
 8007e8a:	e007      	b.n	8007e9c <arm_mat_inverse_f32+0x64>
 8007e8c:	f000 f99f 	bl	80081ce <memset>
 8007e90:	444e      	add	r6, r9
 8007e92:	3401      	adds	r4, #1
 8007e94:	f1a9 0904 	sub.w	r9, r9, #4
 8007e98:	f10a 0a04 	add.w	sl, sl, #4
 8007e9c:	4652      	mov	r2, sl
 8007e9e:	4630      	mov	r0, r6
 8007ea0:	2100      	movs	r1, #0
 8007ea2:	b114      	cbz	r4, 8007eaa <arm_mat_inverse_f32+0x72>
 8007ea4:	f000 f993 	bl	80081ce <memset>
 8007ea8:	4456      	add	r6, sl
 8007eaa:	f8c6 b000 	str.w	fp, [r6]
 8007eae:	42bc      	cmp	r4, r7
 8007eb0:	f106 0604 	add.w	r6, r6, #4
 8007eb4:	464a      	mov	r2, r9
 8007eb6:	4630      	mov	r0, r6
 8007eb8:	f04f 0100 	mov.w	r1, #0
 8007ebc:	d1e6      	bne.n	8007e8c <arm_mat_inverse_f32+0x54>
 8007ebe:	4643      	mov	r3, r8
 8007ec0:	009e      	lsls	r6, r3, #2
 8007ec2:	46a0      	mov	r8, r4
 8007ec4:	2700      	movs	r7, #0
 8007ec6:	461c      	mov	r4, r3
 8007ec8:	f8dd c008 	ldr.w	ip, [sp, #8]
 8007ecc:	f8cd 800c 	str.w	r8, [sp, #12]
 8007ed0:	1d33      	adds	r3, r6, #4
 8007ed2:	9306      	str	r3, [sp, #24]
 8007ed4:	46b1      	mov	r9, r6
 8007ed6:	9705      	str	r7, [sp, #20]
 8007ed8:	46a6      	mov	lr, r4
 8007eda:	42bc      	cmp	r4, r7
 8007edc:	edd5 6a00 	vldr	s13, [r5]
 8007ee0:	f000 80be 	beq.w	8008060 <arm_mat_inverse_f32+0x228>
 8007ee4:	ed9f 7a72 	vldr	s14, [pc, #456]	; 80080b0 <arm_mat_inverse_f32+0x278>
 8007ee8:	463a      	mov	r2, r7
 8007eea:	462b      	mov	r3, r5
 8007eec:	edd3 7a00 	vldr	s15, [r3]
 8007ef0:	eef5 7ac0 	vcmpe.f32	s15, #0.0
 8007ef4:	eef1 fa10 	vmrs	APSR_nzcv, fpscr
 8007ef8:	bfd8      	it	le
 8007efa:	eef1 7a67 	vnegle.f32	s15, s15
 8007efe:	eef4 7a47 	vcmp.f32	s15, s14
 8007f02:	eef1 fa10 	vmrs	APSR_nzcv, fpscr
 8007f06:	f102 0201 	add.w	r2, r2, #1
 8007f0a:	bfc8      	it	gt
 8007f0c:	eeb0 7a67 	vmovgt.f32	s14, s15
 8007f10:	4294      	cmp	r4, r2
 8007f12:	4433      	add	r3, r6
 8007f14:	d1ea      	bne.n	8007eec <arm_mat_inverse_f32+0xb4>
 8007f16:	eeb5 7a40 	vcmp.f32	s14, #0.0
 8007f1a:	eef1 fa10 	vmrs	APSR_nzcv, fpscr
 8007f1e:	f000 809f 	beq.w	8008060 <arm_mat_inverse_f32+0x228>
 8007f22:	eef5 6ac0 	vcmpe.f32	s13, #0.0
 8007f26:	eef1 fa10 	vmrs	APSR_nzcv, fpscr
 8007f2a:	bfd4      	ite	le
 8007f2c:	eef1 7a66 	vnegle.f32	s15, s13
 8007f30:	eef0 7a66 	vmovgt.f32	s15, s13
 8007f34:	eef4 7a47 	vcmp.f32	s15, s14
 8007f38:	eef1 fa10 	vmrs	APSR_nzcv, fpscr
 8007f3c:	d010      	beq.n	8007f60 <arm_mat_inverse_f32+0x128>
 8007f3e:	9b03      	ldr	r3, [sp, #12]
 8007f40:	b173      	cbz	r3, 8007f60 <arm_mat_inverse_f32+0x128>
 8007f42:	eef5 6ac0 	vcmpe.f32	s13, #0.0
 8007f46:	eef1 fa10 	vmrs	APSR_nzcv, fpscr
 8007f4a:	eef1 7a66 	vneg.f32	s15, s13
 8007f4e:	bfc8      	it	gt
 8007f50:	eef0 7a66 	vmovgt.f32	s15, s13
 8007f54:	eef4 7a47 	vcmp.f32	s15, s14
 8007f58:	eef1 fa10 	vmrs	APSR_nzcv, fpscr
 8007f5c:	f000 8084 	beq.w	8008068 <arm_mat_inverse_f32+0x230>
 8007f60:	9b05      	ldr	r3, [sp, #20]
 8007f62:	b933      	cbnz	r3, 8007f72 <arm_mat_inverse_f32+0x13a>
 8007f64:	eef5 6a40 	vcmp.f32	s13, #0.0
 8007f68:	eef1 fa10 	vmrs	APSR_nzcv, fpscr
 8007f6c:	d078      	beq.n	8008060 <arm_mat_inverse_f32+0x228>
 8007f6e:	2300      	movs	r3, #0
 8007f70:	9305      	str	r3, [sp, #20]
 8007f72:	eb0c 0306 	add.w	r3, ip, r6
 8007f76:	9304      	str	r3, [sp, #16]
 8007f78:	4672      	mov	r2, lr
 8007f7a:	462b      	mov	r3, r5
 8007f7c:	edd3 7a00 	vldr	s15, [r3]
 8007f80:	eec7 7aa6 	vdiv.f32	s15, s15, s13
 8007f84:	3a01      	subs	r2, #1
 8007f86:	ece3 7a01 	vstmia	r3!, {s15}
 8007f8a:	d1f7      	bne.n	8007f7c <arm_mat_inverse_f32+0x144>
 8007f8c:	4621      	mov	r1, r4
 8007f8e:	4663      	mov	r3, ip
 8007f90:	edd3 7a00 	vldr	s15, [r3]
 8007f94:	eec7 7aa6 	vdiv.f32	s15, s15, s13
 8007f98:	3901      	subs	r1, #1
 8007f9a:	ece3 7a01 	vstmia	r3!, {s15}
 8007f9e:	d1f7      	bne.n	8007f90 <arm_mat_inverse_f32+0x158>
 8007fa0:	9802      	ldr	r0, [sp, #8]
 8007fa2:	f8dd b004 	ldr.w	fp, [sp, #4]
 8007fa6:	ea4f 0887 	mov.w	r8, r7, lsl #2
 8007faa:	42b9      	cmp	r1, r7
 8007fac:	d07c      	beq.n	80080a8 <arm_mat_inverse_f32+0x270>
 8007fae:	eddb 6a00 	vldr	s13, [fp]
 8007fb2:	4672      	mov	r2, lr
 8007fb4:	46aa      	mov	sl, r5
 8007fb6:	465b      	mov	r3, fp
 8007fb8:	ecfa 7a01 	vldmia	sl!, {s15}
 8007fbc:	ed93 7a00 	vldr	s14, [r3]
 8007fc0:	ee66 7aa7 	vmul.f32	s15, s13, s15
 8007fc4:	3a01      	subs	r2, #1
 8007fc6:	ee77 7a67 	vsub.f32	s15, s14, s15
 8007fca:	ece3 7a01 	vstmia	r3!, {s15}
 8007fce:	d1f3      	bne.n	8007fb8 <arm_mat_inverse_f32+0x180>
 8007fd0:	44cb      	add	fp, r9
 8007fd2:	4622      	mov	r2, r4
 8007fd4:	46e2      	mov	sl, ip
 8007fd6:	4603      	mov	r3, r0
 8007fd8:	ecfa 7a01 	vldmia	sl!, {s15}
 8007fdc:	ed93 7a00 	vldr	s14, [r3]
 8007fe0:	ee66 7aa7 	vmul.f32	s15, s13, s15
 8007fe4:	3a01      	subs	r2, #1
 8007fe6:	ee77 7a67 	vsub.f32	s15, s14, s15
 8007fea:	ece3 7a01 	vstmia	r3!, {s15}
 8007fee:	d1f3      	bne.n	8007fd8 <arm_mat_inverse_f32+0x1a0>
 8007ff0:	4430      	add	r0, r6
 8007ff2:	3101      	adds	r1, #1
 8007ff4:	428c      	cmp	r4, r1
 8007ff6:	44c3      	add	fp, r8
 8007ff8:	d1d7      	bne.n	8007faa <arm_mat_inverse_f32+0x172>
 8007ffa:	9b01      	ldr	r3, [sp, #4]
 8007ffc:	f8dd c010 	ldr.w	ip, [sp, #16]
 8008000:	3304      	adds	r3, #4
 8008002:	9301      	str	r3, [sp, #4]
 8008004:	9b06      	ldr	r3, [sp, #24]
 8008006:	441d      	add	r5, r3
 8008008:	9b03      	ldr	r3, [sp, #12]
 800800a:	f1be 0e01 	subs.w	lr, lr, #1
 800800e:	f103 33ff 	add.w	r3, r3, #4294967295	; 0xffffffff
 8008012:	f107 0701 	add.w	r7, r7, #1
 8008016:	9303      	str	r3, [sp, #12]
 8008018:	f1a9 0904 	sub.w	r9, r9, #4
 800801c:	f47f af5d 	bne.w	8007eda <arm_mat_inverse_f32+0xa2>
 8008020:	9b05      	ldr	r3, [sp, #20]
 8008022:	b9fb      	cbnz	r3, 8008064 <arm_mat_inverse_f32+0x22c>
 8008024:	eef5 6a40 	vcmp.f32	s13, #0.0
 8008028:	eef1 fa10 	vmrs	APSR_nzcv, fpscr
 800802c:	d11a      	bne.n	8008064 <arm_mat_inverse_f32+0x22c>
 800802e:	9b07      	ldr	r3, [sp, #28]
 8008030:	685d      	ldr	r5, [r3, #4]
 8008032:	fb04 f404 	mul.w	r4, r4, r4
 8008036:	b19c      	cbz	r4, 8008060 <arm_mat_inverse_f32+0x228>
 8008038:	edd5 7a00 	vldr	s15, [r5]
 800803c:	eef5 7a40 	vcmp.f32	s15, #0.0
 8008040:	eef1 fa10 	vmrs	APSR_nzcv, fpscr
 8008044:	d10e      	bne.n	8008064 <arm_mat_inverse_f32+0x22c>
 8008046:	3504      	adds	r5, #4
 8008048:	2300      	movs	r3, #0
 800804a:	e006      	b.n	800805a <arm_mat_inverse_f32+0x222>
 800804c:	ecf5 7a01 	vldmia	r5!, {s15}
 8008050:	eef5 7a40 	vcmp.f32	s15, #0.0
 8008054:	eef1 fa10 	vmrs	APSR_nzcv, fpscr
 8008058:	d104      	bne.n	8008064 <arm_mat_inverse_f32+0x22c>
 800805a:	3301      	adds	r3, #1
 800805c:	42a3      	cmp	r3, r4
 800805e:	d1f5      	bne.n	800804c <arm_mat_inverse_f32+0x214>
 8008060:	20fb      	movs	r0, #251	; 0xfb
 8008062:	e6f5      	b.n	8007e50 <arm_mat_inverse_f32+0x18>
 8008064:	2000      	movs	r0, #0
 8008066:	e6f3      	b.n	8007e50 <arm_mat_inverse_f32+0x18>
 8008068:	9b01      	ldr	r3, [sp, #4]
 800806a:	4671      	mov	r1, lr
 800806c:	462a      	mov	r2, r5
 800806e:	6810      	ldr	r0, [r2, #0]
 8008070:	f8d3 8000 	ldr.w	r8, [r3]
 8008074:	f842 8b04 	str.w	r8, [r2], #4
 8008078:	3901      	subs	r1, #1
 800807a:	f843 0b04 	str.w	r0, [r3], #4
 800807e:	d1f6      	bne.n	800806e <arm_mat_inverse_f32+0x236>
 8008080:	eb0c 0306 	add.w	r3, ip, r6
 8008084:	9304      	str	r3, [sp, #16]
 8008086:	4619      	mov	r1, r3
 8008088:	4622      	mov	r2, r4
 800808a:	4663      	mov	r3, ip
 800808c:	6808      	ldr	r0, [r1, #0]
 800808e:	f8d3 8000 	ldr.w	r8, [r3]
 8008092:	f841 8b04 	str.w	r8, [r1], #4
 8008096:	3a01      	subs	r2, #1
 8008098:	f843 0b04 	str.w	r0, [r3], #4
 800809c:	d1f6      	bne.n	800808c <arm_mat_inverse_f32+0x254>
 800809e:	2301      	movs	r3, #1
 80080a0:	edd5 6a00 	vldr	s13, [r5]
 80080a4:	9305      	str	r3, [sp, #20]
 80080a6:	e767      	b.n	8007f78 <arm_mat_inverse_f32+0x140>
 80080a8:	44cb      	add	fp, r9
 80080aa:	4430      	add	r0, r6
 80080ac:	e7a1      	b.n	8007ff2 <arm_mat_inverse_f32+0x1ba>
 80080ae:	bf00      	nop
 80080b0:	00000000 	.word	0x00000000

080080b4 <arm_mat_init_f32>:
 80080b4:	8001      	strh	r1, [r0, #0]
 80080b6:	8042      	strh	r2, [r0, #2]
 80080b8:	6043      	str	r3, [r0, #4]
 80080ba:	4770      	bx	lr

080080bc <arm_mat_add_f32>:
 80080bc:	b5f0      	push	{r4, r5, r6, r7, lr}
 80080be:	e891 0090 	ldmia.w	r1, {r4, r7}
 80080c2:	6803      	ldr	r3, [r0, #0]
 80080c4:	6846      	ldr	r6, [r0, #4]
 80080c6:	6855      	ldr	r5, [r2, #4]
 80080c8:	42a3      	cmp	r3, r4
 80080ca:	d14f      	bne.n	800816c <arm_mat_add_f32+0xb0>
 80080cc:	6812      	ldr	r2, [r2, #0]
 80080ce:	4293      	cmp	r3, r2
 80080d0:	d14c      	bne.n	800816c <arm_mat_add_f32+0xb0>
 80080d2:	8842      	ldrh	r2, [r0, #2]
 80080d4:	8803      	ldrh	r3, [r0, #0]
 80080d6:	fb03 f002 	mul.w	r0, r3, r2
 80080da:	ea5f 0e90 	movs.w	lr, r0, lsr #2
 80080de:	d033      	beq.n	8008148 <arm_mat_add_f32+0x8c>
 80080e0:	f106 0110 	add.w	r1, r6, #16
 80080e4:	f107 0210 	add.w	r2, r7, #16
 80080e8:	f105 0310 	add.w	r3, r5, #16
 80080ec:	4674      	mov	r4, lr
 80080ee:	ed51 6a03 	vldr	s13, [r1, #-12]
 80080f2:	ed12 5a03 	vldr	s10, [r2, #-12]
 80080f6:	ed51 7a04 	vldr	s15, [r1, #-16]
 80080fa:	ed52 5a04 	vldr	s11, [r2, #-16]
 80080fe:	ed11 7a02 	vldr	s14, [r1, #-8]
 8008102:	ed12 6a02 	vldr	s12, [r2, #-8]
 8008106:	ee76 6a85 	vadd.f32	s13, s13, s10
 800810a:	ee77 7aa5 	vadd.f32	s15, s15, s11
 800810e:	ed43 6a03 	vstr	s13, [r3, #-12]
 8008112:	ed43 7a04 	vstr	s15, [r3, #-16]
 8008116:	ed51 7a01 	vldr	s15, [r1, #-4]
 800811a:	ed52 6a01 	vldr	s13, [r2, #-4]
 800811e:	ee37 7a06 	vadd.f32	s14, s14, s12
 8008122:	ee77 7aa6 	vadd.f32	s15, s15, s13
 8008126:	3c01      	subs	r4, #1
 8008128:	ed03 7a02 	vstr	s14, [r3, #-8]
 800812c:	ed43 7a01 	vstr	s15, [r3, #-4]
 8008130:	f101 0110 	add.w	r1, r1, #16
 8008134:	f102 0210 	add.w	r2, r2, #16
 8008138:	f103 0310 	add.w	r3, r3, #16
 800813c:	d1d7      	bne.n	80080ee <arm_mat_add_f32+0x32>
 800813e:	ea4f 130e 	mov.w	r3, lr, lsl #4
 8008142:	441e      	add	r6, r3
 8008144:	441f      	add	r7, r3
 8008146:	441d      	add	r5, r3
 8008148:	f010 0303 	ands.w	r3, r0, #3
 800814c:	bf18      	it	ne
 800814e:	462a      	movne	r2, r5
 8008150:	d009      	beq.n	8008166 <arm_mat_add_f32+0xaa>
 8008152:	ecf6 7a01 	vldmia	r6!, {s15}
 8008156:	ecb7 7a01 	vldmia	r7!, {s14}
 800815a:	ee77 7a87 	vadd.f32	s15, s15, s14
 800815e:	3b01      	subs	r3, #1
 8008160:	ece2 7a01 	vstmia	r2!, {s15}
 8008164:	d1f5      	bne.n	8008152 <arm_mat_add_f32+0x96>
 8008166:	2000      	movs	r0, #0
 8008168:	b240      	sxtb	r0, r0
 800816a:	bdf0      	pop	{r4, r5, r6, r7, pc}
 800816c:	20fd      	movs	r0, #253	; 0xfd
 800816e:	b240      	sxtb	r0, r0
 8008170:	bdf0      	pop	{r4, r5, r6, r7, pc}
 8008172:	bf00      	nop

08008174 <__errno>:
 8008174:	4b01      	ldr	r3, [pc, #4]	; (800817c <__errno+0x8>)
 8008176:	6818      	ldr	r0, [r3, #0]
 8008178:	4770      	bx	lr
 800817a:	bf00      	nop
 800817c:	200000d0 	.word	0x200000d0

08008180 <__libc_init_array>:
 8008180:	b570      	push	{r4, r5, r6, lr}
 8008182:	4d0d      	ldr	r5, [pc, #52]	; (80081b8 <__libc_init_array+0x38>)
 8008184:	4c0d      	ldr	r4, [pc, #52]	; (80081bc <__libc_init_array+0x3c>)
 8008186:	1b64      	subs	r4, r4, r5
 8008188:	10a4      	asrs	r4, r4, #2
 800818a:	2600      	movs	r6, #0
 800818c:	42a6      	cmp	r6, r4
 800818e:	d109      	bne.n	80081a4 <__libc_init_array+0x24>
 8008190:	4d0b      	ldr	r5, [pc, #44]	; (80081c0 <__libc_init_array+0x40>)
 8008192:	4c0c      	ldr	r4, [pc, #48]	; (80081c4 <__libc_init_array+0x44>)
 8008194:	f003 f93a 	bl	800b40c <_init>
 8008198:	1b64      	subs	r4, r4, r5
 800819a:	10a4      	asrs	r4, r4, #2
 800819c:	2600      	movs	r6, #0
 800819e:	42a6      	cmp	r6, r4
 80081a0:	d105      	bne.n	80081ae <__libc_init_array+0x2e>
 80081a2:	bd70      	pop	{r4, r5, r6, pc}
 80081a4:	f855 3b04 	ldr.w	r3, [r5], #4
 80081a8:	4798      	blx	r3
 80081aa:	3601      	adds	r6, #1
 80081ac:	e7ee      	b.n	800818c <__libc_init_array+0xc>
 80081ae:	f855 3b04 	ldr.w	r3, [r5], #4
 80081b2:	4798      	blx	r3
 80081b4:	3601      	adds	r6, #1
 80081b6:	e7f2      	b.n	800819e <__libc_init_array+0x1e>
 80081b8:	0800b868 	.word	0x0800b868
 80081bc:	0800b868 	.word	0x0800b868
 80081c0:	0800b868 	.word	0x0800b868
 80081c4:	0800b86c 	.word	0x0800b86c

080081c8 <__retarget_lock_init_recursive>:
 80081c8:	4770      	bx	lr

080081ca <__retarget_lock_acquire_recursive>:
 80081ca:	4770      	bx	lr

080081cc <__retarget_lock_release_recursive>:
 80081cc:	4770      	bx	lr

080081ce <memset>:
 80081ce:	4402      	add	r2, r0
 80081d0:	4603      	mov	r3, r0
 80081d2:	4293      	cmp	r3, r2
 80081d4:	d100      	bne.n	80081d8 <memset+0xa>
 80081d6:	4770      	bx	lr
 80081d8:	f803 1b01 	strb.w	r1, [r3], #1
 80081dc:	e7f9      	b.n	80081d2 <memset+0x4>
	...

080081e0 <_free_r>:
 80081e0:	b537      	push	{r0, r1, r2, r4, r5, lr}
 80081e2:	2900      	cmp	r1, #0
 80081e4:	d044      	beq.n	8008270 <_free_r+0x90>
 80081e6:	f851 3c04 	ldr.w	r3, [r1, #-4]
 80081ea:	9001      	str	r0, [sp, #4]
 80081ec:	2b00      	cmp	r3, #0
 80081ee:	f1a1 0404 	sub.w	r4, r1, #4
 80081f2:	bfb8      	it	lt
 80081f4:	18e4      	addlt	r4, r4, r3
 80081f6:	f000 fc4d 	bl	8008a94 <__malloc_lock>
 80081fa:	4a1e      	ldr	r2, [pc, #120]	; (8008274 <_free_r+0x94>)
 80081fc:	9801      	ldr	r0, [sp, #4]
 80081fe:	6813      	ldr	r3, [r2, #0]
 8008200:	b933      	cbnz	r3, 8008210 <_free_r+0x30>
 8008202:	6063      	str	r3, [r4, #4]
 8008204:	6014      	str	r4, [r2, #0]
 8008206:	b003      	add	sp, #12
 8008208:	e8bd 4030 	ldmia.w	sp!, {r4, r5, lr}
 800820c:	f000 bc48 	b.w	8008aa0 <__malloc_unlock>
 8008210:	42a3      	cmp	r3, r4
 8008212:	d908      	bls.n	8008226 <_free_r+0x46>
 8008214:	6825      	ldr	r5, [r4, #0]
 8008216:	1961      	adds	r1, r4, r5
 8008218:	428b      	cmp	r3, r1
 800821a:	bf01      	itttt	eq
 800821c:	6819      	ldreq	r1, [r3, #0]
 800821e:	685b      	ldreq	r3, [r3, #4]
 8008220:	1949      	addeq	r1, r1, r5
 8008222:	6021      	streq	r1, [r4, #0]
 8008224:	e7ed      	b.n	8008202 <_free_r+0x22>
 8008226:	461a      	mov	r2, r3
 8008228:	685b      	ldr	r3, [r3, #4]
 800822a:	b10b      	cbz	r3, 8008230 <_free_r+0x50>
 800822c:	42a3      	cmp	r3, r4
 800822e:	d9fa      	bls.n	8008226 <_free_r+0x46>
 8008230:	6811      	ldr	r1, [r2, #0]
 8008232:	1855      	adds	r5, r2, r1
 8008234:	42a5      	cmp	r5, r4
 8008236:	d10b      	bne.n	8008250 <_free_r+0x70>
 8008238:	6824      	ldr	r4, [r4, #0]
 800823a:	4421      	add	r1, r4
 800823c:	1854      	adds	r4, r2, r1
 800823e:	42a3      	cmp	r3, r4
 8008240:	6011      	str	r1, [r2, #0]
 8008242:	d1e0      	bne.n	8008206 <_free_r+0x26>
 8008244:	681c      	ldr	r4, [r3, #0]
 8008246:	685b      	ldr	r3, [r3, #4]
 8008248:	6053      	str	r3, [r2, #4]
 800824a:	4421      	add	r1, r4
 800824c:	6011      	str	r1, [r2, #0]
 800824e:	e7da      	b.n	8008206 <_free_r+0x26>
 8008250:	d902      	bls.n	8008258 <_free_r+0x78>
 8008252:	230c      	movs	r3, #12
 8008254:	6003      	str	r3, [r0, #0]
 8008256:	e7d6      	b.n	8008206 <_free_r+0x26>
 8008258:	6825      	ldr	r5, [r4, #0]
 800825a:	1961      	adds	r1, r4, r5
 800825c:	428b      	cmp	r3, r1
 800825e:	bf04      	itt	eq
 8008260:	6819      	ldreq	r1, [r3, #0]
 8008262:	685b      	ldreq	r3, [r3, #4]
 8008264:	6063      	str	r3, [r4, #4]
 8008266:	bf04      	itt	eq
 8008268:	1949      	addeq	r1, r1, r5
 800826a:	6021      	streq	r1, [r4, #0]
 800826c:	6054      	str	r4, [r2, #4]
 800826e:	e7ca      	b.n	8008206 <_free_r+0x26>
 8008270:	b003      	add	sp, #12
 8008272:	bd30      	pop	{r4, r5, pc}
 8008274:	20001838 	.word	0x20001838

08008278 <sbrk_aligned>:
 8008278:	b570      	push	{r4, r5, r6, lr}
 800827a:	4e0e      	ldr	r6, [pc, #56]	; (80082b4 <sbrk_aligned+0x3c>)
 800827c:	460c      	mov	r4, r1
 800827e:	6831      	ldr	r1, [r6, #0]
 8008280:	4605      	mov	r5, r0
 8008282:	b911      	cbnz	r1, 800828a <sbrk_aligned+0x12>
 8008284:	f000 f91a 	bl	80084bc <_sbrk_r>
 8008288:	6030      	str	r0, [r6, #0]
 800828a:	4621      	mov	r1, r4
 800828c:	4628      	mov	r0, r5
 800828e:	f000 f915 	bl	80084bc <_sbrk_r>
 8008292:	1c43      	adds	r3, r0, #1
 8008294:	d00a      	beq.n	80082ac <sbrk_aligned+0x34>
 8008296:	1cc4      	adds	r4, r0, #3
 8008298:	f024 0403 	bic.w	r4, r4, #3
 800829c:	42a0      	cmp	r0, r4
 800829e:	d007      	beq.n	80082b0 <sbrk_aligned+0x38>
 80082a0:	1a21      	subs	r1, r4, r0
 80082a2:	4628      	mov	r0, r5
 80082a4:	f000 f90a 	bl	80084bc <_sbrk_r>
 80082a8:	3001      	adds	r0, #1
 80082aa:	d101      	bne.n	80082b0 <sbrk_aligned+0x38>
 80082ac:	f04f 34ff 	mov.w	r4, #4294967295	; 0xffffffff
 80082b0:	4620      	mov	r0, r4
 80082b2:	bd70      	pop	{r4, r5, r6, pc}
 80082b4:	2000183c 	.word	0x2000183c

080082b8 <_malloc_r>:
 80082b8:	e92d 41f0 	stmdb	sp!, {r4, r5, r6, r7, r8, lr}
 80082bc:	1ccd      	adds	r5, r1, #3
 80082be:	f025 0503 	bic.w	r5, r5, #3
 80082c2:	3508      	adds	r5, #8
 80082c4:	2d0c      	cmp	r5, #12
 80082c6:	bf38      	it	cc
 80082c8:	250c      	movcc	r5, #12
 80082ca:	2d00      	cmp	r5, #0
 80082cc:	4607      	mov	r7, r0
 80082ce:	db01      	blt.n	80082d4 <_malloc_r+0x1c>
 80082d0:	42a9      	cmp	r1, r5
 80082d2:	d905      	bls.n	80082e0 <_malloc_r+0x28>
 80082d4:	230c      	movs	r3, #12
 80082d6:	603b      	str	r3, [r7, #0]
 80082d8:	2600      	movs	r6, #0
 80082da:	4630      	mov	r0, r6
 80082dc:	e8bd 81f0 	ldmia.w	sp!, {r4, r5, r6, r7, r8, pc}
 80082e0:	4e2e      	ldr	r6, [pc, #184]	; (800839c <_malloc_r+0xe4>)
 80082e2:	f000 fbd7 	bl	8008a94 <__malloc_lock>
 80082e6:	6833      	ldr	r3, [r6, #0]
 80082e8:	461c      	mov	r4, r3
 80082ea:	bb34      	cbnz	r4, 800833a <_malloc_r+0x82>
 80082ec:	4629      	mov	r1, r5
 80082ee:	4638      	mov	r0, r7
 80082f0:	f7ff ffc2 	bl	8008278 <sbrk_aligned>
 80082f4:	1c43      	adds	r3, r0, #1
 80082f6:	4604      	mov	r4, r0
 80082f8:	d14d      	bne.n	8008396 <_malloc_r+0xde>
 80082fa:	6834      	ldr	r4, [r6, #0]
 80082fc:	4626      	mov	r6, r4
 80082fe:	2e00      	cmp	r6, #0
 8008300:	d140      	bne.n	8008384 <_malloc_r+0xcc>
 8008302:	6823      	ldr	r3, [r4, #0]
 8008304:	4631      	mov	r1, r6
 8008306:	4638      	mov	r0, r7
 8008308:	eb04 0803 	add.w	r8, r4, r3
 800830c:	f000 f8d6 	bl	80084bc <_sbrk_r>
 8008310:	4580      	cmp	r8, r0
 8008312:	d13a      	bne.n	800838a <_malloc_r+0xd2>
 8008314:	6821      	ldr	r1, [r4, #0]
 8008316:	3503      	adds	r5, #3
 8008318:	1a6d      	subs	r5, r5, r1
 800831a:	f025 0503 	bic.w	r5, r5, #3
 800831e:	3508      	adds	r5, #8
 8008320:	2d0c      	cmp	r5, #12
 8008322:	bf38      	it	cc
 8008324:	250c      	movcc	r5, #12
 8008326:	4629      	mov	r1, r5
 8008328:	4638      	mov	r0, r7
 800832a:	f7ff ffa5 	bl	8008278 <sbrk_aligned>
 800832e:	3001      	adds	r0, #1
 8008330:	d02b      	beq.n	800838a <_malloc_r+0xd2>
 8008332:	6823      	ldr	r3, [r4, #0]
 8008334:	442b      	add	r3, r5
 8008336:	6023      	str	r3, [r4, #0]
 8008338:	e00e      	b.n	8008358 <_malloc_r+0xa0>
 800833a:	6822      	ldr	r2, [r4, #0]
 800833c:	1b52      	subs	r2, r2, r5
 800833e:	d41e      	bmi.n	800837e <_malloc_r+0xc6>
 8008340:	2a0b      	cmp	r2, #11
 8008342:	d916      	bls.n	8008372 <_malloc_r+0xba>
 8008344:	1961      	adds	r1, r4, r5
 8008346:	42a3      	cmp	r3, r4
 8008348:	6025      	str	r5, [r4, #0]
 800834a:	bf18      	it	ne
 800834c:	6059      	strne	r1, [r3, #4]
 800834e:	6863      	ldr	r3, [r4, #4]
 8008350:	bf08      	it	eq
 8008352:	6031      	streq	r1, [r6, #0]
 8008354:	5162      	str	r2, [r4, r5]
 8008356:	604b      	str	r3, [r1, #4]
 8008358:	4638      	mov	r0, r7
 800835a:	f104 060b 	add.w	r6, r4, #11
 800835e:	f000 fb9f 	bl	8008aa0 <__malloc_unlock>
 8008362:	f026 0607 	bic.w	r6, r6, #7
 8008366:	1d23      	adds	r3, r4, #4
 8008368:	1af2      	subs	r2, r6, r3
 800836a:	d0b6      	beq.n	80082da <_malloc_r+0x22>
 800836c:	1b9b      	subs	r3, r3, r6
 800836e:	50a3      	str	r3, [r4, r2]
 8008370:	e7b3      	b.n	80082da <_malloc_r+0x22>
 8008372:	6862      	ldr	r2, [r4, #4]
 8008374:	42a3      	cmp	r3, r4
 8008376:	bf0c      	ite	eq
 8008378:	6032      	streq	r2, [r6, #0]
 800837a:	605a      	strne	r2, [r3, #4]
 800837c:	e7ec      	b.n	8008358 <_malloc_r+0xa0>
 800837e:	4623      	mov	r3, r4
 8008380:	6864      	ldr	r4, [r4, #4]
 8008382:	e7b2      	b.n	80082ea <_malloc_r+0x32>
 8008384:	4634      	mov	r4, r6
 8008386:	6876      	ldr	r6, [r6, #4]
 8008388:	e7b9      	b.n	80082fe <_malloc_r+0x46>
 800838a:	230c      	movs	r3, #12
 800838c:	603b      	str	r3, [r7, #0]
 800838e:	4638      	mov	r0, r7
 8008390:	f000 fb86 	bl	8008aa0 <__malloc_unlock>
 8008394:	e7a1      	b.n	80082da <_malloc_r+0x22>
 8008396:	6025      	str	r5, [r4, #0]
 8008398:	e7de      	b.n	8008358 <_malloc_r+0xa0>
 800839a:	bf00      	nop
 800839c:	20001838 	.word	0x20001838

080083a0 <iprintf>:
 80083a0:	b40f      	push	{r0, r1, r2, r3}
 80083a2:	4b0a      	ldr	r3, [pc, #40]	; (80083cc <iprintf+0x2c>)
 80083a4:	b513      	push	{r0, r1, r4, lr}
 80083a6:	681c      	ldr	r4, [r3, #0]
 80083a8:	b124      	cbz	r4, 80083b4 <iprintf+0x14>
 80083aa:	69a3      	ldr	r3, [r4, #24]
 80083ac:	b913      	cbnz	r3, 80083b4 <iprintf+0x14>
 80083ae:	4620      	mov	r0, r4
 80083b0:	f000 fa6e 	bl	8008890 <__sinit>
 80083b4:	ab05      	add	r3, sp, #20
 80083b6:	9a04      	ldr	r2, [sp, #16]
 80083b8:	68a1      	ldr	r1, [r4, #8]
 80083ba:	9301      	str	r3, [sp, #4]
 80083bc:	4620      	mov	r0, r4
 80083be:	f000 fb9f 	bl	8008b00 <_vfiprintf_r>
 80083c2:	b002      	add	sp, #8
 80083c4:	e8bd 4010 	ldmia.w	sp!, {r4, lr}
 80083c8:	b004      	add	sp, #16
 80083ca:	4770      	bx	lr
 80083cc:	200000d0 	.word	0x200000d0

080083d0 <_puts_r>:
 80083d0:	b570      	push	{r4, r5, r6, lr}
 80083d2:	460e      	mov	r6, r1
 80083d4:	4605      	mov	r5, r0
 80083d6:	b118      	cbz	r0, 80083e0 <_puts_r+0x10>
 80083d8:	6983      	ldr	r3, [r0, #24]
 80083da:	b90b      	cbnz	r3, 80083e0 <_puts_r+0x10>
 80083dc:	f000 fa58 	bl	8008890 <__sinit>
 80083e0:	69ab      	ldr	r3, [r5, #24]
 80083e2:	68ac      	ldr	r4, [r5, #8]
 80083e4:	b913      	cbnz	r3, 80083ec <_puts_r+0x1c>
 80083e6:	4628      	mov	r0, r5
 80083e8:	f000 fa52 	bl	8008890 <__sinit>
 80083ec:	4b2c      	ldr	r3, [pc, #176]	; (80084a0 <_puts_r+0xd0>)
 80083ee:	429c      	cmp	r4, r3
 80083f0:	d120      	bne.n	8008434 <_puts_r+0x64>
 80083f2:	686c      	ldr	r4, [r5, #4]
 80083f4:	6e63      	ldr	r3, [r4, #100]	; 0x64
 80083f6:	07db      	lsls	r3, r3, #31
 80083f8:	d405      	bmi.n	8008406 <_puts_r+0x36>
 80083fa:	89a3      	ldrh	r3, [r4, #12]
 80083fc:	0598      	lsls	r0, r3, #22
 80083fe:	d402      	bmi.n	8008406 <_puts_r+0x36>
 8008400:	6da0      	ldr	r0, [r4, #88]	; 0x58
 8008402:	f7ff fee2 	bl	80081ca <__retarget_lock_acquire_recursive>
 8008406:	89a3      	ldrh	r3, [r4, #12]
 8008408:	0719      	lsls	r1, r3, #28
 800840a:	d51d      	bpl.n	8008448 <_puts_r+0x78>
 800840c:	6923      	ldr	r3, [r4, #16]
 800840e:	b1db      	cbz	r3, 8008448 <_puts_r+0x78>
 8008410:	3e01      	subs	r6, #1
 8008412:	68a3      	ldr	r3, [r4, #8]
 8008414:	f816 1f01 	ldrb.w	r1, [r6, #1]!
 8008418:	3b01      	subs	r3, #1
 800841a:	60a3      	str	r3, [r4, #8]
 800841c:	bb39      	cbnz	r1, 800846e <_puts_r+0x9e>
 800841e:	2b00      	cmp	r3, #0
 8008420:	da38      	bge.n	8008494 <_puts_r+0xc4>
 8008422:	4622      	mov	r2, r4
 8008424:	210a      	movs	r1, #10
 8008426:	4628      	mov	r0, r5
 8008428:	f000 f858 	bl	80084dc <__swbuf_r>
 800842c:	3001      	adds	r0, #1
 800842e:	d011      	beq.n	8008454 <_puts_r+0x84>
 8008430:	250a      	movs	r5, #10
 8008432:	e011      	b.n	8008458 <_puts_r+0x88>
 8008434:	4b1b      	ldr	r3, [pc, #108]	; (80084a4 <_puts_r+0xd4>)
 8008436:	429c      	cmp	r4, r3
 8008438:	d101      	bne.n	800843e <_puts_r+0x6e>
 800843a:	68ac      	ldr	r4, [r5, #8]
 800843c:	e7da      	b.n	80083f4 <_puts_r+0x24>
 800843e:	4b1a      	ldr	r3, [pc, #104]	; (80084a8 <_puts_r+0xd8>)
 8008440:	429c      	cmp	r4, r3
 8008442:	bf08      	it	eq
 8008444:	68ec      	ldreq	r4, [r5, #12]
 8008446:	e7d5      	b.n	80083f4 <_puts_r+0x24>
 8008448:	4621      	mov	r1, r4
 800844a:	4628      	mov	r0, r5
 800844c:	f000 f898 	bl	8008580 <__swsetup_r>
 8008450:	2800      	cmp	r0, #0
 8008452:	d0dd      	beq.n	8008410 <_puts_r+0x40>
 8008454:	f04f 35ff 	mov.w	r5, #4294967295	; 0xffffffff
 8008458:	6e63      	ldr	r3, [r4, #100]	; 0x64
 800845a:	07da      	lsls	r2, r3, #31
 800845c:	d405      	bmi.n	800846a <_puts_r+0x9a>
 800845e:	89a3      	ldrh	r3, [r4, #12]
 8008460:	059b      	lsls	r3, r3, #22
 8008462:	d402      	bmi.n	800846a <_puts_r+0x9a>
 8008464:	6da0      	ldr	r0, [r4, #88]	; 0x58
 8008466:	f7ff feb1 	bl	80081cc <__retarget_lock_release_recursive>
 800846a:	4628      	mov	r0, r5
 800846c:	bd70      	pop	{r4, r5, r6, pc}
 800846e:	2b00      	cmp	r3, #0
 8008470:	da04      	bge.n	800847c <_puts_r+0xac>
 8008472:	69a2      	ldr	r2, [r4, #24]
 8008474:	429a      	cmp	r2, r3
 8008476:	dc06      	bgt.n	8008486 <_puts_r+0xb6>
 8008478:	290a      	cmp	r1, #10
 800847a:	d004      	beq.n	8008486 <_puts_r+0xb6>
 800847c:	6823      	ldr	r3, [r4, #0]
 800847e:	1c5a      	adds	r2, r3, #1
 8008480:	6022      	str	r2, [r4, #0]
 8008482:	7019      	strb	r1, [r3, #0]
 8008484:	e7c5      	b.n	8008412 <_puts_r+0x42>
 8008486:	4622      	mov	r2, r4
 8008488:	4628      	mov	r0, r5
 800848a:	f000 f827 	bl	80084dc <__swbuf_r>
 800848e:	3001      	adds	r0, #1
 8008490:	d1bf      	bne.n	8008412 <_puts_r+0x42>
 8008492:	e7df      	b.n	8008454 <_puts_r+0x84>
 8008494:	6823      	ldr	r3, [r4, #0]
 8008496:	250a      	movs	r5, #10
 8008498:	1c5a      	adds	r2, r3, #1
 800849a:	6022      	str	r2, [r4, #0]
 800849c:	701d      	strb	r5, [r3, #0]
 800849e:	e7db      	b.n	8008458 <_puts_r+0x88>
 80084a0:	0800b5a4 	.word	0x0800b5a4
 80084a4:	0800b5c4 	.word	0x0800b5c4
 80084a8:	0800b584 	.word	0x0800b584

080084ac <puts>:
 80084ac:	4b02      	ldr	r3, [pc, #8]	; (80084b8 <puts+0xc>)
 80084ae:	4601      	mov	r1, r0
 80084b0:	6818      	ldr	r0, [r3, #0]
 80084b2:	f7ff bf8d 	b.w	80083d0 <_puts_r>
 80084b6:	bf00      	nop
 80084b8:	200000d0 	.word	0x200000d0

080084bc <_sbrk_r>:
 80084bc:	b538      	push	{r3, r4, r5, lr}
 80084be:	4d06      	ldr	r5, [pc, #24]	; (80084d8 <_sbrk_r+0x1c>)
 80084c0:	2300      	movs	r3, #0
 80084c2:	4604      	mov	r4, r0
 80084c4:	4608      	mov	r0, r1
 80084c6:	602b      	str	r3, [r5, #0]
 80084c8:	f7fc f81a 	bl	8004500 <_sbrk>
 80084cc:	1c43      	adds	r3, r0, #1
 80084ce:	d102      	bne.n	80084d6 <_sbrk_r+0x1a>
 80084d0:	682b      	ldr	r3, [r5, #0]
 80084d2:	b103      	cbz	r3, 80084d6 <_sbrk_r+0x1a>
 80084d4:	6023      	str	r3, [r4, #0]
 80084d6:	bd38      	pop	{r3, r4, r5, pc}
 80084d8:	20001840 	.word	0x20001840

080084dc <__swbuf_r>:
 80084dc:	b5f8      	push	{r3, r4, r5, r6, r7, lr}
 80084de:	460e      	mov	r6, r1
 80084e0:	4614      	mov	r4, r2
 80084e2:	4605      	mov	r5, r0
 80084e4:	b118      	cbz	r0, 80084ee <__swbuf_r+0x12>
 80084e6:	6983      	ldr	r3, [r0, #24]
 80084e8:	b90b      	cbnz	r3, 80084ee <__swbuf_r+0x12>
 80084ea:	f000 f9d1 	bl	8008890 <__sinit>
 80084ee:	4b21      	ldr	r3, [pc, #132]	; (8008574 <__swbuf_r+0x98>)
 80084f0:	429c      	cmp	r4, r3
 80084f2:	d12b      	bne.n	800854c <__swbuf_r+0x70>
 80084f4:	686c      	ldr	r4, [r5, #4]
 80084f6:	69a3      	ldr	r3, [r4, #24]
 80084f8:	60a3      	str	r3, [r4, #8]
 80084fa:	89a3      	ldrh	r3, [r4, #12]
 80084fc:	071a      	lsls	r2, r3, #28
 80084fe:	d52f      	bpl.n	8008560 <__swbuf_r+0x84>
 8008500:	6923      	ldr	r3, [r4, #16]
 8008502:	b36b      	cbz	r3, 8008560 <__swbuf_r+0x84>
 8008504:	6923      	ldr	r3, [r4, #16]
 8008506:	6820      	ldr	r0, [r4, #0]
 8008508:	1ac0      	subs	r0, r0, r3
 800850a:	6963      	ldr	r3, [r4, #20]
 800850c:	b2f6      	uxtb	r6, r6
 800850e:	4283      	cmp	r3, r0
 8008510:	4637      	mov	r7, r6
 8008512:	dc04      	bgt.n	800851e <__swbuf_r+0x42>
 8008514:	4621      	mov	r1, r4
 8008516:	4628      	mov	r0, r5
 8008518:	f000 f926 	bl	8008768 <_fflush_r>
 800851c:	bb30      	cbnz	r0, 800856c <__swbuf_r+0x90>
 800851e:	68a3      	ldr	r3, [r4, #8]
 8008520:	3b01      	subs	r3, #1
 8008522:	60a3      	str	r3, [r4, #8]
 8008524:	6823      	ldr	r3, [r4, #0]
 8008526:	1c5a      	adds	r2, r3, #1
 8008528:	6022      	str	r2, [r4, #0]
 800852a:	701e      	strb	r6, [r3, #0]
 800852c:	6963      	ldr	r3, [r4, #20]
 800852e:	3001      	adds	r0, #1
 8008530:	4283      	cmp	r3, r0
 8008532:	d004      	beq.n	800853e <__swbuf_r+0x62>
 8008534:	89a3      	ldrh	r3, [r4, #12]
 8008536:	07db      	lsls	r3, r3, #31
 8008538:	d506      	bpl.n	8008548 <__swbuf_r+0x6c>
 800853a:	2e0a      	cmp	r6, #10
 800853c:	d104      	bne.n	8008548 <__swbuf_r+0x6c>
 800853e:	4621      	mov	r1, r4
 8008540:	4628      	mov	r0, r5
 8008542:	f000 f911 	bl	8008768 <_fflush_r>
 8008546:	b988      	cbnz	r0, 800856c <__swbuf_r+0x90>
 8008548:	4638      	mov	r0, r7
 800854a:	bdf8      	pop	{r3, r4, r5, r6, r7, pc}
 800854c:	4b0a      	ldr	r3, [pc, #40]	; (8008578 <__swbuf_r+0x9c>)
 800854e:	429c      	cmp	r4, r3
 8008550:	d101      	bne.n	8008556 <__swbuf_r+0x7a>
 8008552:	68ac      	ldr	r4, [r5, #8]
 8008554:	e7cf      	b.n	80084f6 <__swbuf_r+0x1a>
 8008556:	4b09      	ldr	r3, [pc, #36]	; (800857c <__swbuf_r+0xa0>)
 8008558:	429c      	cmp	r4, r3
 800855a:	bf08      	it	eq
 800855c:	68ec      	ldreq	r4, [r5, #12]
 800855e:	e7ca      	b.n	80084f6 <__swbuf_r+0x1a>
 8008560:	4621      	mov	r1, r4
 8008562:	4628      	mov	r0, r5
 8008564:	f000 f80c 	bl	8008580 <__swsetup_r>
 8008568:	2800      	cmp	r0, #0
 800856a:	d0cb      	beq.n	8008504 <__swbuf_r+0x28>
 800856c:	f04f 37ff 	mov.w	r7, #4294967295	; 0xffffffff
 8008570:	e7ea      	b.n	8008548 <__swbuf_r+0x6c>
 8008572:	bf00      	nop
 8008574:	0800b5a4 	.word	0x0800b5a4
 8008578:	0800b5c4 	.word	0x0800b5c4
 800857c:	0800b584 	.word	0x0800b584

08008580 <__swsetup_r>:
 8008580:	4b32      	ldr	r3, [pc, #200]	; (800864c <__swsetup_r+0xcc>)
 8008582:	b570      	push	{r4, r5, r6, lr}
 8008584:	681d      	ldr	r5, [r3, #0]
 8008586:	4606      	mov	r6, r0
 8008588:	460c      	mov	r4, r1
 800858a:	b125      	cbz	r5, 8008596 <__swsetup_r+0x16>
 800858c:	69ab      	ldr	r3, [r5, #24]
 800858e:	b913      	cbnz	r3, 8008596 <__swsetup_r+0x16>
 8008590:	4628      	mov	r0, r5
 8008592:	f000 f97d 	bl	8008890 <__sinit>
 8008596:	4b2e      	ldr	r3, [pc, #184]	; (8008650 <__swsetup_r+0xd0>)
 8008598:	429c      	cmp	r4, r3
 800859a:	d10f      	bne.n	80085bc <__swsetup_r+0x3c>
 800859c:	686c      	ldr	r4, [r5, #4]
 800859e:	89a3      	ldrh	r3, [r4, #12]
 80085a0:	f9b4 200c 	ldrsh.w	r2, [r4, #12]
 80085a4:	0719      	lsls	r1, r3, #28
 80085a6:	d42c      	bmi.n	8008602 <__swsetup_r+0x82>
 80085a8:	06dd      	lsls	r5, r3, #27
 80085aa:	d411      	bmi.n	80085d0 <__swsetup_r+0x50>
 80085ac:	2309      	movs	r3, #9
 80085ae:	6033      	str	r3, [r6, #0]
 80085b0:	f042 0340 	orr.w	r3, r2, #64	; 0x40
 80085b4:	81a3      	strh	r3, [r4, #12]
 80085b6:	f04f 30ff 	mov.w	r0, #4294967295	; 0xffffffff
 80085ba:	e03e      	b.n	800863a <__swsetup_r+0xba>
 80085bc:	4b25      	ldr	r3, [pc, #148]	; (8008654 <__swsetup_r+0xd4>)
 80085be:	429c      	cmp	r4, r3
 80085c0:	d101      	bne.n	80085c6 <__swsetup_r+0x46>
 80085c2:	68ac      	ldr	r4, [r5, #8]
 80085c4:	e7eb      	b.n	800859e <__swsetup_r+0x1e>
 80085c6:	4b24      	ldr	r3, [pc, #144]	; (8008658 <__swsetup_r+0xd8>)
 80085c8:	429c      	cmp	r4, r3
 80085ca:	bf08      	it	eq
 80085cc:	68ec      	ldreq	r4, [r5, #12]
 80085ce:	e7e6      	b.n	800859e <__swsetup_r+0x1e>
 80085d0:	0758      	lsls	r0, r3, #29
 80085d2:	d512      	bpl.n	80085fa <__swsetup_r+0x7a>
 80085d4:	6b61      	ldr	r1, [r4, #52]	; 0x34
 80085d6:	b141      	cbz	r1, 80085ea <__swsetup_r+0x6a>
 80085d8:	f104 0344 	add.w	r3, r4, #68	; 0x44
 80085dc:	4299      	cmp	r1, r3
 80085de:	d002      	beq.n	80085e6 <__swsetup_r+0x66>
 80085e0:	4630      	mov	r0, r6
 80085e2:	f7ff fdfd 	bl	80081e0 <_free_r>
 80085e6:	2300      	movs	r3, #0
 80085e8:	6363      	str	r3, [r4, #52]	; 0x34
 80085ea:	89a3      	ldrh	r3, [r4, #12]
 80085ec:	f023 0324 	bic.w	r3, r3, #36	; 0x24
 80085f0:	81a3      	strh	r3, [r4, #12]
 80085f2:	2300      	movs	r3, #0
 80085f4:	6063      	str	r3, [r4, #4]
 80085f6:	6923      	ldr	r3, [r4, #16]
 80085f8:	6023      	str	r3, [r4, #0]
 80085fa:	89a3      	ldrh	r3, [r4, #12]
 80085fc:	f043 0308 	orr.w	r3, r3, #8
 8008600:	81a3      	strh	r3, [r4, #12]
 8008602:	6923      	ldr	r3, [r4, #16]
 8008604:	b94b      	cbnz	r3, 800861a <__swsetup_r+0x9a>
 8008606:	89a3      	ldrh	r3, [r4, #12]
 8008608:	f403 7320 	and.w	r3, r3, #640	; 0x280
 800860c:	f5b3 7f00 	cmp.w	r3, #512	; 0x200
 8008610:	d003      	beq.n	800861a <__swsetup_r+0x9a>
 8008612:	4621      	mov	r1, r4
 8008614:	4630      	mov	r0, r6
 8008616:	f000 f9fd 	bl	8008a14 <__smakebuf_r>
 800861a:	89a0      	ldrh	r0, [r4, #12]
 800861c:	f9b4 200c 	ldrsh.w	r2, [r4, #12]
 8008620:	f010 0301 	ands.w	r3, r0, #1
 8008624:	d00a      	beq.n	800863c <__swsetup_r+0xbc>
 8008626:	2300      	movs	r3, #0
 8008628:	60a3      	str	r3, [r4, #8]
 800862a:	6963      	ldr	r3, [r4, #20]
 800862c:	425b      	negs	r3, r3
 800862e:	61a3      	str	r3, [r4, #24]
 8008630:	6923      	ldr	r3, [r4, #16]
 8008632:	b943      	cbnz	r3, 8008646 <__swsetup_r+0xc6>
 8008634:	f010 0080 	ands.w	r0, r0, #128	; 0x80
 8008638:	d1ba      	bne.n	80085b0 <__swsetup_r+0x30>
 800863a:	bd70      	pop	{r4, r5, r6, pc}
 800863c:	0781      	lsls	r1, r0, #30
 800863e:	bf58      	it	pl
 8008640:	6963      	ldrpl	r3, [r4, #20]
 8008642:	60a3      	str	r3, [r4, #8]
 8008644:	e7f4      	b.n	8008630 <__swsetup_r+0xb0>
 8008646:	2000      	movs	r0, #0
 8008648:	e7f7      	b.n	800863a <__swsetup_r+0xba>
 800864a:	bf00      	nop
 800864c:	200000d0 	.word	0x200000d0
 8008650:	0800b5a4 	.word	0x0800b5a4
 8008654:	0800b5c4 	.word	0x0800b5c4
 8008658:	0800b584 	.word	0x0800b584

0800865c <__sflush_r>:
 800865c:	898a      	ldrh	r2, [r1, #12]
 800865e:	e92d 41f0 	stmdb	sp!, {r4, r5, r6, r7, r8, lr}
 8008662:	4605      	mov	r5, r0
 8008664:	0710      	lsls	r0, r2, #28
 8008666:	460c      	mov	r4, r1
 8008668:	d458      	bmi.n	800871c <__sflush_r+0xc0>
 800866a:	684b      	ldr	r3, [r1, #4]
 800866c:	2b00      	cmp	r3, #0
 800866e:	dc05      	bgt.n	800867c <__sflush_r+0x20>
 8008670:	6c0b      	ldr	r3, [r1, #64]	; 0x40
 8008672:	2b00      	cmp	r3, #0
 8008674:	dc02      	bgt.n	800867c <__sflush_r+0x20>
 8008676:	2000      	movs	r0, #0
 8008678:	e8bd 81f0 	ldmia.w	sp!, {r4, r5, r6, r7, r8, pc}
 800867c:	6ae6      	ldr	r6, [r4, #44]	; 0x2c
 800867e:	2e00      	cmp	r6, #0
 8008680:	d0f9      	beq.n	8008676 <__sflush_r+0x1a>
 8008682:	2300      	movs	r3, #0
 8008684:	f412 5280 	ands.w	r2, r2, #4096	; 0x1000
 8008688:	682f      	ldr	r7, [r5, #0]
 800868a:	602b      	str	r3, [r5, #0]
 800868c:	d032      	beq.n	80086f4 <__sflush_r+0x98>
 800868e:	6d60      	ldr	r0, [r4, #84]	; 0x54
 8008690:	89a3      	ldrh	r3, [r4, #12]
 8008692:	075a      	lsls	r2, r3, #29
 8008694:	d505      	bpl.n	80086a2 <__sflush_r+0x46>
 8008696:	6863      	ldr	r3, [r4, #4]
 8008698:	1ac0      	subs	r0, r0, r3
 800869a:	6b63      	ldr	r3, [r4, #52]	; 0x34
 800869c:	b10b      	cbz	r3, 80086a2 <__sflush_r+0x46>
 800869e:	6c23      	ldr	r3, [r4, #64]	; 0x40
 80086a0:	1ac0      	subs	r0, r0, r3
 80086a2:	2300      	movs	r3, #0
 80086a4:	4602      	mov	r2, r0
 80086a6:	6ae6      	ldr	r6, [r4, #44]	; 0x2c
 80086a8:	6a21      	ldr	r1, [r4, #32]
 80086aa:	4628      	mov	r0, r5
 80086ac:	47b0      	blx	r6
 80086ae:	1c43      	adds	r3, r0, #1
 80086b0:	89a3      	ldrh	r3, [r4, #12]
 80086b2:	d106      	bne.n	80086c2 <__sflush_r+0x66>
 80086b4:	6829      	ldr	r1, [r5, #0]
 80086b6:	291d      	cmp	r1, #29
 80086b8:	d82c      	bhi.n	8008714 <__sflush_r+0xb8>
 80086ba:	4a2a      	ldr	r2, [pc, #168]	; (8008764 <__sflush_r+0x108>)
 80086bc:	40ca      	lsrs	r2, r1
 80086be:	07d6      	lsls	r6, r2, #31
 80086c0:	d528      	bpl.n	8008714 <__sflush_r+0xb8>
 80086c2:	2200      	movs	r2, #0
 80086c4:	6062      	str	r2, [r4, #4]
 80086c6:	04d9      	lsls	r1, r3, #19
 80086c8:	6922      	ldr	r2, [r4, #16]
 80086ca:	6022      	str	r2, [r4, #0]
 80086cc:	d504      	bpl.n	80086d8 <__sflush_r+0x7c>
 80086ce:	1c42      	adds	r2, r0, #1
 80086d0:	d101      	bne.n	80086d6 <__sflush_r+0x7a>
 80086d2:	682b      	ldr	r3, [r5, #0]
 80086d4:	b903      	cbnz	r3, 80086d8 <__sflush_r+0x7c>
 80086d6:	6560      	str	r0, [r4, #84]	; 0x54
 80086d8:	6b61      	ldr	r1, [r4, #52]	; 0x34
 80086da:	602f      	str	r7, [r5, #0]
 80086dc:	2900      	cmp	r1, #0
 80086de:	d0ca      	beq.n	8008676 <__sflush_r+0x1a>
 80086e0:	f104 0344 	add.w	r3, r4, #68	; 0x44
 80086e4:	4299      	cmp	r1, r3
 80086e6:	d002      	beq.n	80086ee <__sflush_r+0x92>
 80086e8:	4628      	mov	r0, r5
 80086ea:	f7ff fd79 	bl	80081e0 <_free_r>
 80086ee:	2000      	movs	r0, #0
 80086f0:	6360      	str	r0, [r4, #52]	; 0x34
 80086f2:	e7c1      	b.n	8008678 <__sflush_r+0x1c>
 80086f4:	6a21      	ldr	r1, [r4, #32]
 80086f6:	2301      	movs	r3, #1
 80086f8:	4628      	mov	r0, r5
 80086fa:	47b0      	blx	r6
 80086fc:	1c41      	adds	r1, r0, #1
 80086fe:	d1c7      	bne.n	8008690 <__sflush_r+0x34>
 8008700:	682b      	ldr	r3, [r5, #0]
 8008702:	2b00      	cmp	r3, #0
 8008704:	d0c4      	beq.n	8008690 <__sflush_r+0x34>
 8008706:	2b1d      	cmp	r3, #29
 8008708:	d001      	beq.n	800870e <__sflush_r+0xb2>
 800870a:	2b16      	cmp	r3, #22
 800870c:	d101      	bne.n	8008712 <__sflush_r+0xb6>
 800870e:	602f      	str	r7, [r5, #0]
 8008710:	e7b1      	b.n	8008676 <__sflush_r+0x1a>
 8008712:	89a3      	ldrh	r3, [r4, #12]
 8008714:	f043 0340 	orr.w	r3, r3, #64	; 0x40
 8008718:	81a3      	strh	r3, [r4, #12]
 800871a:	e7ad      	b.n	8008678 <__sflush_r+0x1c>
 800871c:	690f      	ldr	r7, [r1, #16]
 800871e:	2f00      	cmp	r7, #0
 8008720:	d0a9      	beq.n	8008676 <__sflush_r+0x1a>
 8008722:	0793      	lsls	r3, r2, #30
 8008724:	680e      	ldr	r6, [r1, #0]
 8008726:	bf08      	it	eq
 8008728:	694b      	ldreq	r3, [r1, #20]
 800872a:	600f      	str	r7, [r1, #0]
 800872c:	bf18      	it	ne
 800872e:	2300      	movne	r3, #0
 8008730:	eba6 0807 	sub.w	r8, r6, r7
 8008734:	608b      	str	r3, [r1, #8]
 8008736:	f1b8 0f00 	cmp.w	r8, #0
 800873a:	dd9c      	ble.n	8008676 <__sflush_r+0x1a>
 800873c:	6a21      	ldr	r1, [r4, #32]
 800873e:	6aa6      	ldr	r6, [r4, #40]	; 0x28
 8008740:	4643      	mov	r3, r8
 8008742:	463a      	mov	r2, r7
 8008744:	4628      	mov	r0, r5
 8008746:	47b0      	blx	r6
 8008748:	2800      	cmp	r0, #0
 800874a:	dc06      	bgt.n	800875a <__sflush_r+0xfe>
 800874c:	89a3      	ldrh	r3, [r4, #12]
 800874e:	f043 0340 	orr.w	r3, r3, #64	; 0x40
 8008752:	81a3      	strh	r3, [r4, #12]
 8008754:	f04f 30ff 	mov.w	r0, #4294967295	; 0xffffffff
 8008758:	e78e      	b.n	8008678 <__sflush_r+0x1c>
 800875a:	4407      	add	r7, r0
 800875c:	eba8 0800 	sub.w	r8, r8, r0
 8008760:	e7e9      	b.n	8008736 <__sflush_r+0xda>
 8008762:	bf00      	nop
 8008764:	20400001 	.word	0x20400001

08008768 <_fflush_r>:
 8008768:	b538      	push	{r3, r4, r5, lr}
 800876a:	690b      	ldr	r3, [r1, #16]
 800876c:	4605      	mov	r5, r0
 800876e:	460c      	mov	r4, r1
 8008770:	b913      	cbnz	r3, 8008778 <_fflush_r+0x10>
 8008772:	2500      	movs	r5, #0
 8008774:	4628      	mov	r0, r5
 8008776:	bd38      	pop	{r3, r4, r5, pc}
 8008778:	b118      	cbz	r0, 8008782 <_fflush_r+0x1a>
 800877a:	6983      	ldr	r3, [r0, #24]
 800877c:	b90b      	cbnz	r3, 8008782 <_fflush_r+0x1a>
 800877e:	f000 f887 	bl	8008890 <__sinit>
 8008782:	4b14      	ldr	r3, [pc, #80]	; (80087d4 <_fflush_r+0x6c>)
 8008784:	429c      	cmp	r4, r3
 8008786:	d11b      	bne.n	80087c0 <_fflush_r+0x58>
 8008788:	686c      	ldr	r4, [r5, #4]
 800878a:	f9b4 300c 	ldrsh.w	r3, [r4, #12]
 800878e:	2b00      	cmp	r3, #0
 8008790:	d0ef      	beq.n	8008772 <_fflush_r+0xa>
 8008792:	6e62      	ldr	r2, [r4, #100]	; 0x64
 8008794:	07d0      	lsls	r0, r2, #31
 8008796:	d404      	bmi.n	80087a2 <_fflush_r+0x3a>
 8008798:	0599      	lsls	r1, r3, #22
 800879a:	d402      	bmi.n	80087a2 <_fflush_r+0x3a>
 800879c:	6da0      	ldr	r0, [r4, #88]	; 0x58
 800879e:	f7ff fd14 	bl	80081ca <__retarget_lock_acquire_recursive>
 80087a2:	4628      	mov	r0, r5
 80087a4:	4621      	mov	r1, r4
 80087a6:	f7ff ff59 	bl	800865c <__sflush_r>
 80087aa:	6e63      	ldr	r3, [r4, #100]	; 0x64
 80087ac:	07da      	lsls	r2, r3, #31
 80087ae:	4605      	mov	r5, r0
 80087b0:	d4e0      	bmi.n	8008774 <_fflush_r+0xc>
 80087b2:	89a3      	ldrh	r3, [r4, #12]
 80087b4:	059b      	lsls	r3, r3, #22
 80087b6:	d4dd      	bmi.n	8008774 <_fflush_r+0xc>
 80087b8:	6da0      	ldr	r0, [r4, #88]	; 0x58
 80087ba:	f7ff fd07 	bl	80081cc <__retarget_lock_release_recursive>
 80087be:	e7d9      	b.n	8008774 <_fflush_r+0xc>
 80087c0:	4b05      	ldr	r3, [pc, #20]	; (80087d8 <_fflush_r+0x70>)
 80087c2:	429c      	cmp	r4, r3
 80087c4:	d101      	bne.n	80087ca <_fflush_r+0x62>
 80087c6:	68ac      	ldr	r4, [r5, #8]
 80087c8:	e7df      	b.n	800878a <_fflush_r+0x22>
 80087ca:	4b04      	ldr	r3, [pc, #16]	; (80087dc <_fflush_r+0x74>)
 80087cc:	429c      	cmp	r4, r3
 80087ce:	bf08      	it	eq
 80087d0:	68ec      	ldreq	r4, [r5, #12]
 80087d2:	e7da      	b.n	800878a <_fflush_r+0x22>
 80087d4:	0800b5a4 	.word	0x0800b5a4
 80087d8:	0800b5c4 	.word	0x0800b5c4
 80087dc:	0800b584 	.word	0x0800b584

080087e0 <std>:
 80087e0:	2300      	movs	r3, #0
 80087e2:	b510      	push	{r4, lr}
 80087e4:	4604      	mov	r4, r0
 80087e6:	e9c0 3300 	strd	r3, r3, [r0]
 80087ea:	e9c0 3304 	strd	r3, r3, [r0, #16]
 80087ee:	6083      	str	r3, [r0, #8]
 80087f0:	8181      	strh	r1, [r0, #12]
 80087f2:	6643      	str	r3, [r0, #100]	; 0x64
 80087f4:	81c2      	strh	r2, [r0, #14]
 80087f6:	6183      	str	r3, [r0, #24]
 80087f8:	4619      	mov	r1, r3
 80087fa:	2208      	movs	r2, #8
 80087fc:	305c      	adds	r0, #92	; 0x5c
 80087fe:	f7ff fce6 	bl	80081ce <memset>
 8008802:	4b05      	ldr	r3, [pc, #20]	; (8008818 <std+0x38>)
 8008804:	6263      	str	r3, [r4, #36]	; 0x24
 8008806:	4b05      	ldr	r3, [pc, #20]	; (800881c <std+0x3c>)
 8008808:	62a3      	str	r3, [r4, #40]	; 0x28
 800880a:	4b05      	ldr	r3, [pc, #20]	; (8008820 <std+0x40>)
 800880c:	62e3      	str	r3, [r4, #44]	; 0x2c
 800880e:	4b05      	ldr	r3, [pc, #20]	; (8008824 <std+0x44>)
 8008810:	6224      	str	r4, [r4, #32]
 8008812:	6323      	str	r3, [r4, #48]	; 0x30
 8008814:	bd10      	pop	{r4, pc}
 8008816:	bf00      	nop
 8008818:	08009089 	.word	0x08009089
 800881c:	080090ab 	.word	0x080090ab
 8008820:	080090e3 	.word	0x080090e3
 8008824:	08009107 	.word	0x08009107

08008828 <_cleanup_r>:
 8008828:	4901      	ldr	r1, [pc, #4]	; (8008830 <_cleanup_r+0x8>)
 800882a:	f000 b8af 	b.w	800898c <_fwalk_reent>
 800882e:	bf00      	nop
 8008830:	08008769 	.word	0x08008769

08008834 <__sfmoreglue>:
 8008834:	b570      	push	{r4, r5, r6, lr}
 8008836:	2268      	movs	r2, #104	; 0x68
 8008838:	1e4d      	subs	r5, r1, #1
 800883a:	4355      	muls	r5, r2
 800883c:	460e      	mov	r6, r1
 800883e:	f105 0174 	add.w	r1, r5, #116	; 0x74
 8008842:	f7ff fd39 	bl	80082b8 <_malloc_r>
 8008846:	4604      	mov	r4, r0
 8008848:	b140      	cbz	r0, 800885c <__sfmoreglue+0x28>
 800884a:	2100      	movs	r1, #0
 800884c:	e9c0 1600 	strd	r1, r6, [r0]
 8008850:	300c      	adds	r0, #12
 8008852:	60a0      	str	r0, [r4, #8]
 8008854:	f105 0268 	add.w	r2, r5, #104	; 0x68
 8008858:	f7ff fcb9 	bl	80081ce <memset>
 800885c:	4620      	mov	r0, r4
 800885e:	bd70      	pop	{r4, r5, r6, pc}

08008860 <__sfp_lock_acquire>:
 8008860:	4801      	ldr	r0, [pc, #4]	; (8008868 <__sfp_lock_acquire+0x8>)
 8008862:	f7ff bcb2 	b.w	80081ca <__retarget_lock_acquire_recursive>
 8008866:	bf00      	nop
 8008868:	20001835 	.word	0x20001835

0800886c <__sfp_lock_release>:
 800886c:	4801      	ldr	r0, [pc, #4]	; (8008874 <__sfp_lock_release+0x8>)
 800886e:	f7ff bcad 	b.w	80081cc <__retarget_lock_release_recursive>
 8008872:	bf00      	nop
 8008874:	20001835 	.word	0x20001835

08008878 <__sinit_lock_acquire>:
 8008878:	4801      	ldr	r0, [pc, #4]	; (8008880 <__sinit_lock_acquire+0x8>)
 800887a:	f7ff bca6 	b.w	80081ca <__retarget_lock_acquire_recursive>
 800887e:	bf00      	nop
 8008880:	20001836 	.word	0x20001836

08008884 <__sinit_lock_release>:
 8008884:	4801      	ldr	r0, [pc, #4]	; (800888c <__sinit_lock_release+0x8>)
 8008886:	f7ff bca1 	b.w	80081cc <__retarget_lock_release_recursive>
 800888a:	bf00      	nop
 800888c:	20001836 	.word	0x20001836

08008890 <__sinit>:
 8008890:	b510      	push	{r4, lr}
 8008892:	4604      	mov	r4, r0
 8008894:	f7ff fff0 	bl	8008878 <__sinit_lock_acquire>
 8008898:	69a3      	ldr	r3, [r4, #24]
 800889a:	b11b      	cbz	r3, 80088a4 <__sinit+0x14>
 800889c:	e8bd 4010 	ldmia.w	sp!, {r4, lr}
 80088a0:	f7ff bff0 	b.w	8008884 <__sinit_lock_release>
 80088a4:	e9c4 3312 	strd	r3, r3, [r4, #72]	; 0x48
 80088a8:	6523      	str	r3, [r4, #80]	; 0x50
 80088aa:	4b13      	ldr	r3, [pc, #76]	; (80088f8 <__sinit+0x68>)
 80088ac:	4a13      	ldr	r2, [pc, #76]	; (80088fc <__sinit+0x6c>)
 80088ae:	681b      	ldr	r3, [r3, #0]
 80088b0:	62a2      	str	r2, [r4, #40]	; 0x28
 80088b2:	42a3      	cmp	r3, r4
 80088b4:	bf04      	itt	eq
 80088b6:	2301      	moveq	r3, #1
 80088b8:	61a3      	streq	r3, [r4, #24]
 80088ba:	4620      	mov	r0, r4
 80088bc:	f000 f820 	bl	8008900 <__sfp>
 80088c0:	6060      	str	r0, [r4, #4]
 80088c2:	4620      	mov	r0, r4
 80088c4:	f000 f81c 	bl	8008900 <__sfp>
 80088c8:	60a0      	str	r0, [r4, #8]
 80088ca:	4620      	mov	r0, r4
 80088cc:	f000 f818 	bl	8008900 <__sfp>
 80088d0:	2200      	movs	r2, #0
 80088d2:	60e0      	str	r0, [r4, #12]
 80088d4:	2104      	movs	r1, #4
 80088d6:	6860      	ldr	r0, [r4, #4]
 80088d8:	f7ff ff82 	bl	80087e0 <std>
 80088dc:	68a0      	ldr	r0, [r4, #8]
 80088de:	2201      	movs	r2, #1
 80088e0:	2109      	movs	r1, #9
 80088e2:	f7ff ff7d 	bl	80087e0 <std>
 80088e6:	68e0      	ldr	r0, [r4, #12]
 80088e8:	2202      	movs	r2, #2
 80088ea:	2112      	movs	r1, #18
 80088ec:	f7ff ff78 	bl	80087e0 <std>
 80088f0:	2301      	movs	r3, #1
 80088f2:	61a3      	str	r3, [r4, #24]
 80088f4:	e7d2      	b.n	800889c <__sinit+0xc>
 80088f6:	bf00      	nop
 80088f8:	0800b580 	.word	0x0800b580
 80088fc:	08008829 	.word	0x08008829

08008900 <__sfp>:
 8008900:	b5f8      	push	{r3, r4, r5, r6, r7, lr}
 8008902:	4607      	mov	r7, r0
 8008904:	f7ff ffac 	bl	8008860 <__sfp_lock_acquire>
 8008908:	4b1e      	ldr	r3, [pc, #120]	; (8008984 <__sfp+0x84>)
 800890a:	681e      	ldr	r6, [r3, #0]
 800890c:	69b3      	ldr	r3, [r6, #24]
 800890e:	b913      	cbnz	r3, 8008916 <__sfp+0x16>
 8008910:	4630      	mov	r0, r6
 8008912:	f7ff ffbd 	bl	8008890 <__sinit>
 8008916:	3648      	adds	r6, #72	; 0x48
 8008918:	e9d6 3401 	ldrd	r3, r4, [r6, #4]
 800891c:	3b01      	subs	r3, #1
 800891e:	d503      	bpl.n	8008928 <__sfp+0x28>
 8008920:	6833      	ldr	r3, [r6, #0]
 8008922:	b30b      	cbz	r3, 8008968 <__sfp+0x68>
 8008924:	6836      	ldr	r6, [r6, #0]
 8008926:	e7f7      	b.n	8008918 <__sfp+0x18>
 8008928:	f9b4 500c 	ldrsh.w	r5, [r4, #12]
 800892c:	b9d5      	cbnz	r5, 8008964 <__sfp+0x64>
 800892e:	4b16      	ldr	r3, [pc, #88]	; (8008988 <__sfp+0x88>)
 8008930:	60e3      	str	r3, [r4, #12]
 8008932:	f104 0058 	add.w	r0, r4, #88	; 0x58
 8008936:	6665      	str	r5, [r4, #100]	; 0x64
 8008938:	f7ff fc46 	bl	80081c8 <__retarget_lock_init_recursive>
 800893c:	f7ff ff96 	bl	800886c <__sfp_lock_release>
 8008940:	e9c4 5501 	strd	r5, r5, [r4, #4]
 8008944:	e9c4 5504 	strd	r5, r5, [r4, #16]
 8008948:	6025      	str	r5, [r4, #0]
 800894a:	61a5      	str	r5, [r4, #24]
 800894c:	2208      	movs	r2, #8
 800894e:	4629      	mov	r1, r5
 8008950:	f104 005c 	add.w	r0, r4, #92	; 0x5c
 8008954:	f7ff fc3b 	bl	80081ce <memset>
 8008958:	e9c4 550d 	strd	r5, r5, [r4, #52]	; 0x34
 800895c:	e9c4 5512 	strd	r5, r5, [r4, #72]	; 0x48
 8008960:	4620      	mov	r0, r4
 8008962:	bdf8      	pop	{r3, r4, r5, r6, r7, pc}
 8008964:	3468      	adds	r4, #104	; 0x68
 8008966:	e7d9      	b.n	800891c <__sfp+0x1c>
 8008968:	2104      	movs	r1, #4
 800896a:	4638      	mov	r0, r7
 800896c:	f7ff ff62 	bl	8008834 <__sfmoreglue>
 8008970:	4604      	mov	r4, r0
 8008972:	6030      	str	r0, [r6, #0]
 8008974:	2800      	cmp	r0, #0
 8008976:	d1d5      	bne.n	8008924 <__sfp+0x24>
 8008978:	f7ff ff78 	bl	800886c <__sfp_lock_release>
 800897c:	230c      	movs	r3, #12
 800897e:	603b      	str	r3, [r7, #0]
 8008980:	e7ee      	b.n	8008960 <__sfp+0x60>
 8008982:	bf00      	nop
 8008984:	0800b580 	.word	0x0800b580
 8008988:	ffff0001 	.word	0xffff0001

0800898c <_fwalk_reent>:
 800898c:	e92d 43f8 	stmdb	sp!, {r3, r4, r5, r6, r7, r8, r9, lr}
 8008990:	4606      	mov	r6, r0
 8008992:	4688      	mov	r8, r1
 8008994:	f100 0448 	add.w	r4, r0, #72	; 0x48
 8008998:	2700      	movs	r7, #0
 800899a:	e9d4 9501 	ldrd	r9, r5, [r4, #4]
 800899e:	f1b9 0901 	subs.w	r9, r9, #1
 80089a2:	d505      	bpl.n	80089b0 <_fwalk_reent+0x24>
 80089a4:	6824      	ldr	r4, [r4, #0]
 80089a6:	2c00      	cmp	r4, #0
 80089a8:	d1f7      	bne.n	800899a <_fwalk_reent+0xe>
 80089aa:	4638      	mov	r0, r7
 80089ac:	e8bd 83f8 	ldmia.w	sp!, {r3, r4, r5, r6, r7, r8, r9, pc}
 80089b0:	89ab      	ldrh	r3, [r5, #12]
 80089b2:	2b01      	cmp	r3, #1
 80089b4:	d907      	bls.n	80089c6 <_fwalk_reent+0x3a>
 80089b6:	f9b5 300e 	ldrsh.w	r3, [r5, #14]
 80089ba:	3301      	adds	r3, #1
 80089bc:	d003      	beq.n	80089c6 <_fwalk_reent+0x3a>
 80089be:	4629      	mov	r1, r5
 80089c0:	4630      	mov	r0, r6
 80089c2:	47c0      	blx	r8
 80089c4:	4307      	orrs	r7, r0
 80089c6:	3568      	adds	r5, #104	; 0x68
 80089c8:	e7e9      	b.n	800899e <_fwalk_reent+0x12>

080089ca <__swhatbuf_r>:
 80089ca:	b570      	push	{r4, r5, r6, lr}
 80089cc:	460e      	mov	r6, r1
 80089ce:	f9b1 100e 	ldrsh.w	r1, [r1, #14]
 80089d2:	2900      	cmp	r1, #0
 80089d4:	b096      	sub	sp, #88	; 0x58
 80089d6:	4614      	mov	r4, r2
 80089d8:	461d      	mov	r5, r3
 80089da:	da08      	bge.n	80089ee <__swhatbuf_r+0x24>
 80089dc:	f9b6 300c 	ldrsh.w	r3, [r6, #12]
 80089e0:	2200      	movs	r2, #0
 80089e2:	602a      	str	r2, [r5, #0]
 80089e4:	061a      	lsls	r2, r3, #24
 80089e6:	d410      	bmi.n	8008a0a <__swhatbuf_r+0x40>
 80089e8:	f44f 6380 	mov.w	r3, #1024	; 0x400
 80089ec:	e00e      	b.n	8008a0c <__swhatbuf_r+0x42>
 80089ee:	466a      	mov	r2, sp
 80089f0:	f000 fbb0 	bl	8009154 <_fstat_r>
 80089f4:	2800      	cmp	r0, #0
 80089f6:	dbf1      	blt.n	80089dc <__swhatbuf_r+0x12>
 80089f8:	9a01      	ldr	r2, [sp, #4]
 80089fa:	f402 4270 	and.w	r2, r2, #61440	; 0xf000
 80089fe:	f5a2 5300 	sub.w	r3, r2, #8192	; 0x2000
 8008a02:	425a      	negs	r2, r3
 8008a04:	415a      	adcs	r2, r3
 8008a06:	602a      	str	r2, [r5, #0]
 8008a08:	e7ee      	b.n	80089e8 <__swhatbuf_r+0x1e>
 8008a0a:	2340      	movs	r3, #64	; 0x40
 8008a0c:	2000      	movs	r0, #0
 8008a0e:	6023      	str	r3, [r4, #0]
 8008a10:	b016      	add	sp, #88	; 0x58
 8008a12:	bd70      	pop	{r4, r5, r6, pc}

08008a14 <__smakebuf_r>:
 8008a14:	898b      	ldrh	r3, [r1, #12]
 8008a16:	b573      	push	{r0, r1, r4, r5, r6, lr}
 8008a18:	079d      	lsls	r5, r3, #30
 8008a1a:	4606      	mov	r6, r0
 8008a1c:	460c      	mov	r4, r1
 8008a1e:	d507      	bpl.n	8008a30 <__smakebuf_r+0x1c>
 8008a20:	f104 0347 	add.w	r3, r4, #71	; 0x47
 8008a24:	6023      	str	r3, [r4, #0]
 8008a26:	6123      	str	r3, [r4, #16]
 8008a28:	2301      	movs	r3, #1
 8008a2a:	6163      	str	r3, [r4, #20]
 8008a2c:	b002      	add	sp, #8
 8008a2e:	bd70      	pop	{r4, r5, r6, pc}
 8008a30:	ab01      	add	r3, sp, #4
 8008a32:	466a      	mov	r2, sp
 8008a34:	f7ff ffc9 	bl	80089ca <__swhatbuf_r>
 8008a38:	9900      	ldr	r1, [sp, #0]
 8008a3a:	4605      	mov	r5, r0
 8008a3c:	4630      	mov	r0, r6
 8008a3e:	f7ff fc3b 	bl	80082b8 <_malloc_r>
 8008a42:	b948      	cbnz	r0, 8008a58 <__smakebuf_r+0x44>
 8008a44:	f9b4 300c 	ldrsh.w	r3, [r4, #12]
 8008a48:	059a      	lsls	r2, r3, #22
 8008a4a:	d4ef      	bmi.n	8008a2c <__smakebuf_r+0x18>
 8008a4c:	f023 0303 	bic.w	r3, r3, #3
 8008a50:	f043 0302 	orr.w	r3, r3, #2
 8008a54:	81a3      	strh	r3, [r4, #12]
 8008a56:	e7e3      	b.n	8008a20 <__smakebuf_r+0xc>
 8008a58:	4b0d      	ldr	r3, [pc, #52]	; (8008a90 <__smakebuf_r+0x7c>)
 8008a5a:	62b3      	str	r3, [r6, #40]	; 0x28
 8008a5c:	89a3      	ldrh	r3, [r4, #12]
 8008a5e:	6020      	str	r0, [r4, #0]
 8008a60:	f043 0380 	orr.w	r3, r3, #128	; 0x80
 8008a64:	81a3      	strh	r3, [r4, #12]
 8008a66:	9b00      	ldr	r3, [sp, #0]
 8008a68:	6163      	str	r3, [r4, #20]
 8008a6a:	9b01      	ldr	r3, [sp, #4]
 8008a6c:	6120      	str	r0, [r4, #16]
 8008a6e:	b15b      	cbz	r3, 8008a88 <__smakebuf_r+0x74>
 8008a70:	f9b4 100e 	ldrsh.w	r1, [r4, #14]
 8008a74:	4630      	mov	r0, r6
 8008a76:	f000 fb7f 	bl	8009178 <_isatty_r>
 8008a7a:	b128      	cbz	r0, 8008a88 <__smakebuf_r+0x74>
 8008a7c:	89a3      	ldrh	r3, [r4, #12]
 8008a7e:	f023 0303 	bic.w	r3, r3, #3
 8008a82:	f043 0301 	orr.w	r3, r3, #1
 8008a86:	81a3      	strh	r3, [r4, #12]
 8008a88:	89a0      	ldrh	r0, [r4, #12]
 8008a8a:	4305      	orrs	r5, r0
 8008a8c:	81a5      	strh	r5, [r4, #12]
 8008a8e:	e7cd      	b.n	8008a2c <__smakebuf_r+0x18>
 8008a90:	08008829 	.word	0x08008829

08008a94 <__malloc_lock>:
 8008a94:	4801      	ldr	r0, [pc, #4]	; (8008a9c <__malloc_lock+0x8>)
 8008a96:	f7ff bb98 	b.w	80081ca <__retarget_lock_acquire_recursive>
 8008a9a:	bf00      	nop
 8008a9c:	20001834 	.word	0x20001834

08008aa0 <__malloc_unlock>:
 8008aa0:	4801      	ldr	r0, [pc, #4]	; (8008aa8 <__malloc_unlock+0x8>)
 8008aa2:	f7ff bb93 	b.w	80081cc <__retarget_lock_release_recursive>
 8008aa6:	bf00      	nop
 8008aa8:	20001834 	.word	0x20001834

08008aac <__sfputc_r>:
 8008aac:	6893      	ldr	r3, [r2, #8]
 8008aae:	3b01      	subs	r3, #1
 8008ab0:	2b00      	cmp	r3, #0
 8008ab2:	b410      	push	{r4}
 8008ab4:	6093      	str	r3, [r2, #8]
 8008ab6:	da08      	bge.n	8008aca <__sfputc_r+0x1e>
 8008ab8:	6994      	ldr	r4, [r2, #24]
 8008aba:	42a3      	cmp	r3, r4
 8008abc:	db01      	blt.n	8008ac2 <__sfputc_r+0x16>
 8008abe:	290a      	cmp	r1, #10
 8008ac0:	d103      	bne.n	8008aca <__sfputc_r+0x1e>
 8008ac2:	f85d 4b04 	ldr.w	r4, [sp], #4
 8008ac6:	f7ff bd09 	b.w	80084dc <__swbuf_r>
 8008aca:	6813      	ldr	r3, [r2, #0]
 8008acc:	1c58      	adds	r0, r3, #1
 8008ace:	6010      	str	r0, [r2, #0]
 8008ad0:	7019      	strb	r1, [r3, #0]
 8008ad2:	4608      	mov	r0, r1
 8008ad4:	f85d 4b04 	ldr.w	r4, [sp], #4
 8008ad8:	4770      	bx	lr

08008ada <__sfputs_r>:
 8008ada:	b5f8      	push	{r3, r4, r5, r6, r7, lr}
 8008adc:	4606      	mov	r6, r0
 8008ade:	460f      	mov	r7, r1
 8008ae0:	4614      	mov	r4, r2
 8008ae2:	18d5      	adds	r5, r2, r3
 8008ae4:	42ac      	cmp	r4, r5
 8008ae6:	d101      	bne.n	8008aec <__sfputs_r+0x12>
 8008ae8:	2000      	movs	r0, #0
 8008aea:	e007      	b.n	8008afc <__sfputs_r+0x22>
 8008aec:	f814 1b01 	ldrb.w	r1, [r4], #1
 8008af0:	463a      	mov	r2, r7
 8008af2:	4630      	mov	r0, r6
 8008af4:	f7ff ffda 	bl	8008aac <__sfputc_r>
 8008af8:	1c43      	adds	r3, r0, #1
 8008afa:	d1f3      	bne.n	8008ae4 <__sfputs_r+0xa>
 8008afc:	bdf8      	pop	{r3, r4, r5, r6, r7, pc}
	...

08008b00 <_vfiprintf_r>:
 8008b00:	e92d 4ff0 	stmdb	sp!, {r4, r5, r6, r7, r8, r9, sl, fp, lr}
 8008b04:	460d      	mov	r5, r1
 8008b06:	b09d      	sub	sp, #116	; 0x74
 8008b08:	4614      	mov	r4, r2
 8008b0a:	4698      	mov	r8, r3
 8008b0c:	4606      	mov	r6, r0
 8008b0e:	b118      	cbz	r0, 8008b18 <_vfiprintf_r+0x18>
 8008b10:	6983      	ldr	r3, [r0, #24]
 8008b12:	b90b      	cbnz	r3, 8008b18 <_vfiprintf_r+0x18>
 8008b14:	f7ff febc 	bl	8008890 <__sinit>
 8008b18:	4b89      	ldr	r3, [pc, #548]	; (8008d40 <_vfiprintf_r+0x240>)
 8008b1a:	429d      	cmp	r5, r3
 8008b1c:	d11b      	bne.n	8008b56 <_vfiprintf_r+0x56>
 8008b1e:	6875      	ldr	r5, [r6, #4]
 8008b20:	6e6b      	ldr	r3, [r5, #100]	; 0x64
 8008b22:	07d9      	lsls	r1, r3, #31
 8008b24:	d405      	bmi.n	8008b32 <_vfiprintf_r+0x32>
 8008b26:	89ab      	ldrh	r3, [r5, #12]
 8008b28:	059a      	lsls	r2, r3, #22
 8008b2a:	d402      	bmi.n	8008b32 <_vfiprintf_r+0x32>
 8008b2c:	6da8      	ldr	r0, [r5, #88]	; 0x58
 8008b2e:	f7ff fb4c 	bl	80081ca <__retarget_lock_acquire_recursive>
 8008b32:	89ab      	ldrh	r3, [r5, #12]
 8008b34:	071b      	lsls	r3, r3, #28
 8008b36:	d501      	bpl.n	8008b3c <_vfiprintf_r+0x3c>
 8008b38:	692b      	ldr	r3, [r5, #16]
 8008b3a:	b9eb      	cbnz	r3, 8008b78 <_vfiprintf_r+0x78>
 8008b3c:	4629      	mov	r1, r5
 8008b3e:	4630      	mov	r0, r6
 8008b40:	f7ff fd1e 	bl	8008580 <__swsetup_r>
 8008b44:	b1c0      	cbz	r0, 8008b78 <_vfiprintf_r+0x78>
 8008b46:	6e6b      	ldr	r3, [r5, #100]	; 0x64
 8008b48:	07dc      	lsls	r4, r3, #31
 8008b4a:	d50e      	bpl.n	8008b6a <_vfiprintf_r+0x6a>
 8008b4c:	f04f 30ff 	mov.w	r0, #4294967295	; 0xffffffff
 8008b50:	b01d      	add	sp, #116	; 0x74
 8008b52:	e8bd 8ff0 	ldmia.w	sp!, {r4, r5, r6, r7, r8, r9, sl, fp, pc}
 8008b56:	4b7b      	ldr	r3, [pc, #492]	; (8008d44 <_vfiprintf_r+0x244>)
 8008b58:	429d      	cmp	r5, r3
 8008b5a:	d101      	bne.n	8008b60 <_vfiprintf_r+0x60>
 8008b5c:	68b5      	ldr	r5, [r6, #8]
 8008b5e:	e7df      	b.n	8008b20 <_vfiprintf_r+0x20>
 8008b60:	4b79      	ldr	r3, [pc, #484]	; (8008d48 <_vfiprintf_r+0x248>)
 8008b62:	429d      	cmp	r5, r3
 8008b64:	bf08      	it	eq
 8008b66:	68f5      	ldreq	r5, [r6, #12]
 8008b68:	e7da      	b.n	8008b20 <_vfiprintf_r+0x20>
 8008b6a:	89ab      	ldrh	r3, [r5, #12]
 8008b6c:	0598      	lsls	r0, r3, #22
 8008b6e:	d4ed      	bmi.n	8008b4c <_vfiprintf_r+0x4c>
 8008b70:	6da8      	ldr	r0, [r5, #88]	; 0x58
 8008b72:	f7ff fb2b 	bl	80081cc <__retarget_lock_release_recursive>
 8008b76:	e7e9      	b.n	8008b4c <_vfiprintf_r+0x4c>
 8008b78:	2300      	movs	r3, #0
 8008b7a:	9309      	str	r3, [sp, #36]	; 0x24
 8008b7c:	2320      	movs	r3, #32
 8008b7e:	f88d 3029 	strb.w	r3, [sp, #41]	; 0x29
 8008b82:	f8cd 800c 	str.w	r8, [sp, #12]
 8008b86:	2330      	movs	r3, #48	; 0x30
 8008b88:	f8df 81c0 	ldr.w	r8, [pc, #448]	; 8008d4c <_vfiprintf_r+0x24c>
 8008b8c:	f88d 302a 	strb.w	r3, [sp, #42]	; 0x2a
 8008b90:	f04f 0901 	mov.w	r9, #1
 8008b94:	4623      	mov	r3, r4
 8008b96:	469a      	mov	sl, r3
 8008b98:	f813 2b01 	ldrb.w	r2, [r3], #1
 8008b9c:	b10a      	cbz	r2, 8008ba2 <_vfiprintf_r+0xa2>
 8008b9e:	2a25      	cmp	r2, #37	; 0x25
 8008ba0:	d1f9      	bne.n	8008b96 <_vfiprintf_r+0x96>
 8008ba2:	ebba 0b04 	subs.w	fp, sl, r4
 8008ba6:	d00b      	beq.n	8008bc0 <_vfiprintf_r+0xc0>
 8008ba8:	465b      	mov	r3, fp
 8008baa:	4622      	mov	r2, r4
 8008bac:	4629      	mov	r1, r5
 8008bae:	4630      	mov	r0, r6
 8008bb0:	f7ff ff93 	bl	8008ada <__sfputs_r>
 8008bb4:	3001      	adds	r0, #1
 8008bb6:	f000 80aa 	beq.w	8008d0e <_vfiprintf_r+0x20e>
 8008bba:	9a09      	ldr	r2, [sp, #36]	; 0x24
 8008bbc:	445a      	add	r2, fp
 8008bbe:	9209      	str	r2, [sp, #36]	; 0x24
 8008bc0:	f89a 3000 	ldrb.w	r3, [sl]
 8008bc4:	2b00      	cmp	r3, #0
 8008bc6:	f000 80a2 	beq.w	8008d0e <_vfiprintf_r+0x20e>
 8008bca:	2300      	movs	r3, #0
 8008bcc:	f04f 32ff 	mov.w	r2, #4294967295	; 0xffffffff
 8008bd0:	e9cd 2305 	strd	r2, r3, [sp, #20]
 8008bd4:	f10a 0a01 	add.w	sl, sl, #1
 8008bd8:	9304      	str	r3, [sp, #16]
 8008bda:	9307      	str	r3, [sp, #28]
 8008bdc:	f88d 3053 	strb.w	r3, [sp, #83]	; 0x53
 8008be0:	931a      	str	r3, [sp, #104]	; 0x68
 8008be2:	4654      	mov	r4, sl
 8008be4:	2205      	movs	r2, #5
 8008be6:	f814 1b01 	ldrb.w	r1, [r4], #1
 8008bea:	4858      	ldr	r0, [pc, #352]	; (8008d4c <_vfiprintf_r+0x24c>)
 8008bec:	f7f7 faf0 	bl	80001d0 <memchr>
 8008bf0:	9a04      	ldr	r2, [sp, #16]
 8008bf2:	b9d8      	cbnz	r0, 8008c2c <_vfiprintf_r+0x12c>
 8008bf4:	06d1      	lsls	r1, r2, #27
 8008bf6:	bf44      	itt	mi
 8008bf8:	2320      	movmi	r3, #32
 8008bfa:	f88d 3053 	strbmi.w	r3, [sp, #83]	; 0x53
 8008bfe:	0713      	lsls	r3, r2, #28
 8008c00:	bf44      	itt	mi
 8008c02:	232b      	movmi	r3, #43	; 0x2b
 8008c04:	f88d 3053 	strbmi.w	r3, [sp, #83]	; 0x53
 8008c08:	f89a 3000 	ldrb.w	r3, [sl]
 8008c0c:	2b2a      	cmp	r3, #42	; 0x2a
 8008c0e:	d015      	beq.n	8008c3c <_vfiprintf_r+0x13c>
 8008c10:	9a07      	ldr	r2, [sp, #28]
 8008c12:	4654      	mov	r4, sl
 8008c14:	2000      	movs	r0, #0
 8008c16:	f04f 0c0a 	mov.w	ip, #10
 8008c1a:	4621      	mov	r1, r4
 8008c1c:	f811 3b01 	ldrb.w	r3, [r1], #1
 8008c20:	3b30      	subs	r3, #48	; 0x30
 8008c22:	2b09      	cmp	r3, #9
 8008c24:	d94e      	bls.n	8008cc4 <_vfiprintf_r+0x1c4>
 8008c26:	b1b0      	cbz	r0, 8008c56 <_vfiprintf_r+0x156>
 8008c28:	9207      	str	r2, [sp, #28]
 8008c2a:	e014      	b.n	8008c56 <_vfiprintf_r+0x156>
 8008c2c:	eba0 0308 	sub.w	r3, r0, r8
 8008c30:	fa09 f303 	lsl.w	r3, r9, r3
 8008c34:	4313      	orrs	r3, r2
 8008c36:	9304      	str	r3, [sp, #16]
 8008c38:	46a2      	mov	sl, r4
 8008c3a:	e7d2      	b.n	8008be2 <_vfiprintf_r+0xe2>
 8008c3c:	9b03      	ldr	r3, [sp, #12]
 8008c3e:	1d19      	adds	r1, r3, #4
 8008c40:	681b      	ldr	r3, [r3, #0]
 8008c42:	9103      	str	r1, [sp, #12]
 8008c44:	2b00      	cmp	r3, #0
 8008c46:	bfbb      	ittet	lt
 8008c48:	425b      	neglt	r3, r3
 8008c4a:	f042 0202 	orrlt.w	r2, r2, #2
 8008c4e:	9307      	strge	r3, [sp, #28]
 8008c50:	9307      	strlt	r3, [sp, #28]
 8008c52:	bfb8      	it	lt
 8008c54:	9204      	strlt	r2, [sp, #16]
 8008c56:	7823      	ldrb	r3, [r4, #0]
 8008c58:	2b2e      	cmp	r3, #46	; 0x2e
 8008c5a:	d10c      	bne.n	8008c76 <_vfiprintf_r+0x176>
 8008c5c:	7863      	ldrb	r3, [r4, #1]
 8008c5e:	2b2a      	cmp	r3, #42	; 0x2a
 8008c60:	d135      	bne.n	8008cce <_vfiprintf_r+0x1ce>
 8008c62:	9b03      	ldr	r3, [sp, #12]
 8008c64:	1d1a      	adds	r2, r3, #4
 8008c66:	681b      	ldr	r3, [r3, #0]
 8008c68:	9203      	str	r2, [sp, #12]
 8008c6a:	2b00      	cmp	r3, #0
 8008c6c:	bfb8      	it	lt
 8008c6e:	f04f 33ff 	movlt.w	r3, #4294967295	; 0xffffffff
 8008c72:	3402      	adds	r4, #2
 8008c74:	9305      	str	r3, [sp, #20]
 8008c76:	f8df a0e4 	ldr.w	sl, [pc, #228]	; 8008d5c <_vfiprintf_r+0x25c>
 8008c7a:	7821      	ldrb	r1, [r4, #0]
 8008c7c:	2203      	movs	r2, #3
 8008c7e:	4650      	mov	r0, sl
 8008c80:	f7f7 faa6 	bl	80001d0 <memchr>
 8008c84:	b140      	cbz	r0, 8008c98 <_vfiprintf_r+0x198>
 8008c86:	2340      	movs	r3, #64	; 0x40
 8008c88:	eba0 000a 	sub.w	r0, r0, sl
 8008c8c:	fa03 f000 	lsl.w	r0, r3, r0
 8008c90:	9b04      	ldr	r3, [sp, #16]
 8008c92:	4303      	orrs	r3, r0
 8008c94:	3401      	adds	r4, #1
 8008c96:	9304      	str	r3, [sp, #16]
 8008c98:	f814 1b01 	ldrb.w	r1, [r4], #1
 8008c9c:	482c      	ldr	r0, [pc, #176]	; (8008d50 <_vfiprintf_r+0x250>)
 8008c9e:	f88d 1028 	strb.w	r1, [sp, #40]	; 0x28
 8008ca2:	2206      	movs	r2, #6
 8008ca4:	f7f7 fa94 	bl	80001d0 <memchr>
 8008ca8:	2800      	cmp	r0, #0
 8008caa:	d03f      	beq.n	8008d2c <_vfiprintf_r+0x22c>
 8008cac:	4b29      	ldr	r3, [pc, #164]	; (8008d54 <_vfiprintf_r+0x254>)
 8008cae:	bb1b      	cbnz	r3, 8008cf8 <_vfiprintf_r+0x1f8>
 8008cb0:	9b03      	ldr	r3, [sp, #12]
 8008cb2:	3307      	adds	r3, #7
 8008cb4:	f023 0307 	bic.w	r3, r3, #7
 8008cb8:	3308      	adds	r3, #8
 8008cba:	9303      	str	r3, [sp, #12]
 8008cbc:	9b09      	ldr	r3, [sp, #36]	; 0x24
 8008cbe:	443b      	add	r3, r7
 8008cc0:	9309      	str	r3, [sp, #36]	; 0x24
 8008cc2:	e767      	b.n	8008b94 <_vfiprintf_r+0x94>
 8008cc4:	fb0c 3202 	mla	r2, ip, r2, r3
 8008cc8:	460c      	mov	r4, r1
 8008cca:	2001      	movs	r0, #1
 8008ccc:	e7a5      	b.n	8008c1a <_vfiprintf_r+0x11a>
 8008cce:	2300      	movs	r3, #0
 8008cd0:	3401      	adds	r4, #1
 8008cd2:	9305      	str	r3, [sp, #20]
 8008cd4:	4619      	mov	r1, r3
 8008cd6:	f04f 0c0a 	mov.w	ip, #10
 8008cda:	4620      	mov	r0, r4
 8008cdc:	f810 2b01 	ldrb.w	r2, [r0], #1
 8008ce0:	3a30      	subs	r2, #48	; 0x30
 8008ce2:	2a09      	cmp	r2, #9
 8008ce4:	d903      	bls.n	8008cee <_vfiprintf_r+0x1ee>
 8008ce6:	2b00      	cmp	r3, #0
 8008ce8:	d0c5      	beq.n	8008c76 <_vfiprintf_r+0x176>
 8008cea:	9105      	str	r1, [sp, #20]
 8008cec:	e7c3      	b.n	8008c76 <_vfiprintf_r+0x176>
 8008cee:	fb0c 2101 	mla	r1, ip, r1, r2
 8008cf2:	4604      	mov	r4, r0
 8008cf4:	2301      	movs	r3, #1
 8008cf6:	e7f0      	b.n	8008cda <_vfiprintf_r+0x1da>
 8008cf8:	ab03      	add	r3, sp, #12
 8008cfa:	9300      	str	r3, [sp, #0]
 8008cfc:	462a      	mov	r2, r5
 8008cfe:	4b16      	ldr	r3, [pc, #88]	; (8008d58 <_vfiprintf_r+0x258>)
 8008d00:	a904      	add	r1, sp, #16
 8008d02:	4630      	mov	r0, r6
 8008d04:	f3af 8000 	nop.w
 8008d08:	4607      	mov	r7, r0
 8008d0a:	1c78      	adds	r0, r7, #1
 8008d0c:	d1d6      	bne.n	8008cbc <_vfiprintf_r+0x1bc>
 8008d0e:	6e6b      	ldr	r3, [r5, #100]	; 0x64
 8008d10:	07d9      	lsls	r1, r3, #31
 8008d12:	d405      	bmi.n	8008d20 <_vfiprintf_r+0x220>
 8008d14:	89ab      	ldrh	r3, [r5, #12]
 8008d16:	059a      	lsls	r2, r3, #22
 8008d18:	d402      	bmi.n	8008d20 <_vfiprintf_r+0x220>
 8008d1a:	6da8      	ldr	r0, [r5, #88]	; 0x58
 8008d1c:	f7ff fa56 	bl	80081cc <__retarget_lock_release_recursive>
 8008d20:	89ab      	ldrh	r3, [r5, #12]
 8008d22:	065b      	lsls	r3, r3, #25
 8008d24:	f53f af12 	bmi.w	8008b4c <_vfiprintf_r+0x4c>
 8008d28:	9809      	ldr	r0, [sp, #36]	; 0x24
 8008d2a:	e711      	b.n	8008b50 <_vfiprintf_r+0x50>
 8008d2c:	ab03      	add	r3, sp, #12
 8008d2e:	9300      	str	r3, [sp, #0]
 8008d30:	462a      	mov	r2, r5
 8008d32:	4b09      	ldr	r3, [pc, #36]	; (8008d58 <_vfiprintf_r+0x258>)
 8008d34:	a904      	add	r1, sp, #16
 8008d36:	4630      	mov	r0, r6
 8008d38:	f000 f880 	bl	8008e3c <_printf_i>
 8008d3c:	e7e4      	b.n	8008d08 <_vfiprintf_r+0x208>
 8008d3e:	bf00      	nop
 8008d40:	0800b5a4 	.word	0x0800b5a4
 8008d44:	0800b5c4 	.word	0x0800b5c4
 8008d48:	0800b584 	.word	0x0800b584
 8008d4c:	0800b5e4 	.word	0x0800b5e4
 8008d50:	0800b5ee 	.word	0x0800b5ee
 8008d54:	00000000 	.word	0x00000000
 8008d58:	08008adb 	.word	0x08008adb
 8008d5c:	0800b5ea 	.word	0x0800b5ea

08008d60 <_printf_common>:
 8008d60:	e92d 47f0 	stmdb	sp!, {r4, r5, r6, r7, r8, r9, sl, lr}
 8008d64:	4616      	mov	r6, r2
 8008d66:	4699      	mov	r9, r3
 8008d68:	688a      	ldr	r2, [r1, #8]
 8008d6a:	690b      	ldr	r3, [r1, #16]
 8008d6c:	f8dd 8020 	ldr.w	r8, [sp, #32]
 8008d70:	4293      	cmp	r3, r2
 8008d72:	bfb8      	it	lt
 8008d74:	4613      	movlt	r3, r2
 8008d76:	6033      	str	r3, [r6, #0]
 8008d78:	f891 2043 	ldrb.w	r2, [r1, #67]	; 0x43
 8008d7c:	4607      	mov	r7, r0
 8008d7e:	460c      	mov	r4, r1
 8008d80:	b10a      	cbz	r2, 8008d86 <_printf_common+0x26>
 8008d82:	3301      	adds	r3, #1
 8008d84:	6033      	str	r3, [r6, #0]
 8008d86:	6823      	ldr	r3, [r4, #0]
 8008d88:	0699      	lsls	r1, r3, #26
 8008d8a:	bf42      	ittt	mi
 8008d8c:	6833      	ldrmi	r3, [r6, #0]
 8008d8e:	3302      	addmi	r3, #2
 8008d90:	6033      	strmi	r3, [r6, #0]
 8008d92:	6825      	ldr	r5, [r4, #0]
 8008d94:	f015 0506 	ands.w	r5, r5, #6
 8008d98:	d106      	bne.n	8008da8 <_printf_common+0x48>
 8008d9a:	f104 0a19 	add.w	sl, r4, #25
 8008d9e:	68e3      	ldr	r3, [r4, #12]
 8008da0:	6832      	ldr	r2, [r6, #0]
 8008da2:	1a9b      	subs	r3, r3, r2
 8008da4:	42ab      	cmp	r3, r5
 8008da6:	dc26      	bgt.n	8008df6 <_printf_common+0x96>
 8008da8:	f894 2043 	ldrb.w	r2, [r4, #67]	; 0x43
 8008dac:	1e13      	subs	r3, r2, #0
 8008dae:	6822      	ldr	r2, [r4, #0]
 8008db0:	bf18      	it	ne
 8008db2:	2301      	movne	r3, #1
 8008db4:	0692      	lsls	r2, r2, #26
 8008db6:	d42b      	bmi.n	8008e10 <_printf_common+0xb0>
 8008db8:	f104 0243 	add.w	r2, r4, #67	; 0x43
 8008dbc:	4649      	mov	r1, r9
 8008dbe:	4638      	mov	r0, r7
 8008dc0:	47c0      	blx	r8
 8008dc2:	3001      	adds	r0, #1
 8008dc4:	d01e      	beq.n	8008e04 <_printf_common+0xa4>
 8008dc6:	6823      	ldr	r3, [r4, #0]
 8008dc8:	68e5      	ldr	r5, [r4, #12]
 8008dca:	6832      	ldr	r2, [r6, #0]
 8008dcc:	f003 0306 	and.w	r3, r3, #6
 8008dd0:	2b04      	cmp	r3, #4
 8008dd2:	bf08      	it	eq
 8008dd4:	1aad      	subeq	r5, r5, r2
 8008dd6:	68a3      	ldr	r3, [r4, #8]
 8008dd8:	6922      	ldr	r2, [r4, #16]
 8008dda:	bf0c      	ite	eq
 8008ddc:	ea25 75e5 	biceq.w	r5, r5, r5, asr #31
 8008de0:	2500      	movne	r5, #0
 8008de2:	4293      	cmp	r3, r2
 8008de4:	bfc4      	itt	gt
 8008de6:	1a9b      	subgt	r3, r3, r2
 8008de8:	18ed      	addgt	r5, r5, r3
 8008dea:	2600      	movs	r6, #0
 8008dec:	341a      	adds	r4, #26
 8008dee:	42b5      	cmp	r5, r6
 8008df0:	d11a      	bne.n	8008e28 <_printf_common+0xc8>
 8008df2:	2000      	movs	r0, #0
 8008df4:	e008      	b.n	8008e08 <_printf_common+0xa8>
 8008df6:	2301      	movs	r3, #1
 8008df8:	4652      	mov	r2, sl
 8008dfa:	4649      	mov	r1, r9
 8008dfc:	4638      	mov	r0, r7
 8008dfe:	47c0      	blx	r8
 8008e00:	3001      	adds	r0, #1
 8008e02:	d103      	bne.n	8008e0c <_printf_common+0xac>
 8008e04:	f04f 30ff 	mov.w	r0, #4294967295	; 0xffffffff
 8008e08:	e8bd 87f0 	ldmia.w	sp!, {r4, r5, r6, r7, r8, r9, sl, pc}
 8008e0c:	3501      	adds	r5, #1
 8008e0e:	e7c6      	b.n	8008d9e <_printf_common+0x3e>
 8008e10:	18e1      	adds	r1, r4, r3
 8008e12:	1c5a      	adds	r2, r3, #1
 8008e14:	2030      	movs	r0, #48	; 0x30
 8008e16:	f881 0043 	strb.w	r0, [r1, #67]	; 0x43
 8008e1a:	4422      	add	r2, r4
 8008e1c:	f894 1045 	ldrb.w	r1, [r4, #69]	; 0x45
 8008e20:	f882 1043 	strb.w	r1, [r2, #67]	; 0x43
 8008e24:	3302      	adds	r3, #2
 8008e26:	e7c7      	b.n	8008db8 <_printf_common+0x58>
 8008e28:	2301      	movs	r3, #1
 8008e2a:	4622      	mov	r2, r4
 8008e2c:	4649      	mov	r1, r9
 8008e2e:	4638      	mov	r0, r7
 8008e30:	47c0      	blx	r8
 8008e32:	3001      	adds	r0, #1
 8008e34:	d0e6      	beq.n	8008e04 <_printf_common+0xa4>
 8008e36:	3601      	adds	r6, #1
 8008e38:	e7d9      	b.n	8008dee <_printf_common+0x8e>
	...

08008e3c <_printf_i>:
 8008e3c:	e92d 47ff 	stmdb	sp!, {r0, r1, r2, r3, r4, r5, r6, r7, r8, r9, sl, lr}
 8008e40:	7e0f      	ldrb	r7, [r1, #24]
 8008e42:	9d0c      	ldr	r5, [sp, #48]	; 0x30
 8008e44:	2f78      	cmp	r7, #120	; 0x78
 8008e46:	4691      	mov	r9, r2
 8008e48:	4680      	mov	r8, r0
 8008e4a:	460c      	mov	r4, r1
 8008e4c:	469a      	mov	sl, r3
 8008e4e:	f101 0243 	add.w	r2, r1, #67	; 0x43
 8008e52:	d807      	bhi.n	8008e64 <_printf_i+0x28>
 8008e54:	2f62      	cmp	r7, #98	; 0x62
 8008e56:	d80a      	bhi.n	8008e6e <_printf_i+0x32>
 8008e58:	2f00      	cmp	r7, #0
 8008e5a:	f000 80d8 	beq.w	800900e <_printf_i+0x1d2>
 8008e5e:	2f58      	cmp	r7, #88	; 0x58
 8008e60:	f000 80a3 	beq.w	8008faa <_printf_i+0x16e>
 8008e64:	f104 0542 	add.w	r5, r4, #66	; 0x42
 8008e68:	f884 7042 	strb.w	r7, [r4, #66]	; 0x42
 8008e6c:	e03a      	b.n	8008ee4 <_printf_i+0xa8>
 8008e6e:	f1a7 0363 	sub.w	r3, r7, #99	; 0x63
 8008e72:	2b15      	cmp	r3, #21
 8008e74:	d8f6      	bhi.n	8008e64 <_printf_i+0x28>
 8008e76:	a101      	add	r1, pc, #4	; (adr r1, 8008e7c <_printf_i+0x40>)
 8008e78:	f851 f023 	ldr.w	pc, [r1, r3, lsl #2]
 8008e7c:	08008ed5 	.word	0x08008ed5
 8008e80:	08008ee9 	.word	0x08008ee9
 8008e84:	08008e65 	.word	0x08008e65
 8008e88:	08008e65 	.word	0x08008e65
 8008e8c:	08008e65 	.word	0x08008e65
 8008e90:	08008e65 	.word	0x08008e65
 8008e94:	08008ee9 	.word	0x08008ee9
 8008e98:	08008e65 	.word	0x08008e65
 8008e9c:	08008e65 	.word	0x08008e65
 8008ea0:	08008e65 	.word	0x08008e65
 8008ea4:	08008e65 	.word	0x08008e65
 8008ea8:	08008ff5 	.word	0x08008ff5
 8008eac:	08008f19 	.word	0x08008f19
 8008eb0:	08008fd7 	.word	0x08008fd7
 8008eb4:	08008e65 	.word	0x08008e65
 8008eb8:	08008e65 	.word	0x08008e65
 8008ebc:	08009017 	.word	0x08009017
 8008ec0:	08008e65 	.word	0x08008e65
 8008ec4:	08008f19 	.word	0x08008f19
 8008ec8:	08008e65 	.word	0x08008e65
 8008ecc:	08008e65 	.word	0x08008e65
 8008ed0:	08008fdf 	.word	0x08008fdf
 8008ed4:	682b      	ldr	r3, [r5, #0]
 8008ed6:	1d1a      	adds	r2, r3, #4
 8008ed8:	681b      	ldr	r3, [r3, #0]
 8008eda:	602a      	str	r2, [r5, #0]
 8008edc:	f104 0542 	add.w	r5, r4, #66	; 0x42
 8008ee0:	f884 3042 	strb.w	r3, [r4, #66]	; 0x42
 8008ee4:	2301      	movs	r3, #1
 8008ee6:	e0a3      	b.n	8009030 <_printf_i+0x1f4>
 8008ee8:	6820      	ldr	r0, [r4, #0]
 8008eea:	6829      	ldr	r1, [r5, #0]
 8008eec:	0606      	lsls	r6, r0, #24
 8008eee:	f101 0304 	add.w	r3, r1, #4
 8008ef2:	d50a      	bpl.n	8008f0a <_printf_i+0xce>
 8008ef4:	680e      	ldr	r6, [r1, #0]
 8008ef6:	602b      	str	r3, [r5, #0]
 8008ef8:	2e00      	cmp	r6, #0
 8008efa:	da03      	bge.n	8008f04 <_printf_i+0xc8>
 8008efc:	232d      	movs	r3, #45	; 0x2d
 8008efe:	4276      	negs	r6, r6
 8008f00:	f884 3043 	strb.w	r3, [r4, #67]	; 0x43
 8008f04:	485e      	ldr	r0, [pc, #376]	; (8009080 <_printf_i+0x244>)
 8008f06:	230a      	movs	r3, #10
 8008f08:	e019      	b.n	8008f3e <_printf_i+0x102>
 8008f0a:	680e      	ldr	r6, [r1, #0]
 8008f0c:	602b      	str	r3, [r5, #0]
 8008f0e:	f010 0f40 	tst.w	r0, #64	; 0x40
 8008f12:	bf18      	it	ne
 8008f14:	b236      	sxthne	r6, r6
 8008f16:	e7ef      	b.n	8008ef8 <_printf_i+0xbc>
 8008f18:	682b      	ldr	r3, [r5, #0]
 8008f1a:	6820      	ldr	r0, [r4, #0]
 8008f1c:	1d19      	adds	r1, r3, #4
 8008f1e:	6029      	str	r1, [r5, #0]
 8008f20:	0601      	lsls	r1, r0, #24
 8008f22:	d501      	bpl.n	8008f28 <_printf_i+0xec>
 8008f24:	681e      	ldr	r6, [r3, #0]
 8008f26:	e002      	b.n	8008f2e <_printf_i+0xf2>
 8008f28:	0646      	lsls	r6, r0, #25
 8008f2a:	d5fb      	bpl.n	8008f24 <_printf_i+0xe8>
 8008f2c:	881e      	ldrh	r6, [r3, #0]
 8008f2e:	4854      	ldr	r0, [pc, #336]	; (8009080 <_printf_i+0x244>)
 8008f30:	2f6f      	cmp	r7, #111	; 0x6f
 8008f32:	bf0c      	ite	eq
 8008f34:	2308      	moveq	r3, #8
 8008f36:	230a      	movne	r3, #10
 8008f38:	2100      	movs	r1, #0
 8008f3a:	f884 1043 	strb.w	r1, [r4, #67]	; 0x43
 8008f3e:	6865      	ldr	r5, [r4, #4]
 8008f40:	60a5      	str	r5, [r4, #8]
 8008f42:	2d00      	cmp	r5, #0
 8008f44:	bfa2      	ittt	ge
 8008f46:	6821      	ldrge	r1, [r4, #0]
 8008f48:	f021 0104 	bicge.w	r1, r1, #4
 8008f4c:	6021      	strge	r1, [r4, #0]
 8008f4e:	b90e      	cbnz	r6, 8008f54 <_printf_i+0x118>
 8008f50:	2d00      	cmp	r5, #0
 8008f52:	d04d      	beq.n	8008ff0 <_printf_i+0x1b4>
 8008f54:	4615      	mov	r5, r2
 8008f56:	fbb6 f1f3 	udiv	r1, r6, r3
 8008f5a:	fb03 6711 	mls	r7, r3, r1, r6
 8008f5e:	5dc7      	ldrb	r7, [r0, r7]
 8008f60:	f805 7d01 	strb.w	r7, [r5, #-1]!
 8008f64:	4637      	mov	r7, r6
 8008f66:	42bb      	cmp	r3, r7
 8008f68:	460e      	mov	r6, r1
 8008f6a:	d9f4      	bls.n	8008f56 <_printf_i+0x11a>
 8008f6c:	2b08      	cmp	r3, #8
 8008f6e:	d10b      	bne.n	8008f88 <_printf_i+0x14c>
 8008f70:	6823      	ldr	r3, [r4, #0]
 8008f72:	07de      	lsls	r6, r3, #31
 8008f74:	d508      	bpl.n	8008f88 <_printf_i+0x14c>
 8008f76:	6923      	ldr	r3, [r4, #16]
 8008f78:	6861      	ldr	r1, [r4, #4]
 8008f7a:	4299      	cmp	r1, r3
 8008f7c:	bfde      	ittt	le
 8008f7e:	2330      	movle	r3, #48	; 0x30
 8008f80:	f805 3c01 	strble.w	r3, [r5, #-1]
 8008f84:	f105 35ff 	addle.w	r5, r5, #4294967295	; 0xffffffff
 8008f88:	1b52      	subs	r2, r2, r5
 8008f8a:	6122      	str	r2, [r4, #16]
 8008f8c:	f8cd a000 	str.w	sl, [sp]
 8008f90:	464b      	mov	r3, r9
 8008f92:	aa03      	add	r2, sp, #12
 8008f94:	4621      	mov	r1, r4
 8008f96:	4640      	mov	r0, r8
 8008f98:	f7ff fee2 	bl	8008d60 <_printf_common>
 8008f9c:	3001      	adds	r0, #1
 8008f9e:	d14c      	bne.n	800903a <_printf_i+0x1fe>
 8008fa0:	f04f 30ff 	mov.w	r0, #4294967295	; 0xffffffff
 8008fa4:	b004      	add	sp, #16
 8008fa6:	e8bd 87f0 	ldmia.w	sp!, {r4, r5, r6, r7, r8, r9, sl, pc}
 8008faa:	4835      	ldr	r0, [pc, #212]	; (8009080 <_printf_i+0x244>)
 8008fac:	f881 7045 	strb.w	r7, [r1, #69]	; 0x45
 8008fb0:	6829      	ldr	r1, [r5, #0]
 8008fb2:	6823      	ldr	r3, [r4, #0]
 8008fb4:	f851 6b04 	ldr.w	r6, [r1], #4
 8008fb8:	6029      	str	r1, [r5, #0]
 8008fba:	061d      	lsls	r5, r3, #24
 8008fbc:	d514      	bpl.n	8008fe8 <_printf_i+0x1ac>
 8008fbe:	07df      	lsls	r7, r3, #31
 8008fc0:	bf44      	itt	mi
 8008fc2:	f043 0320 	orrmi.w	r3, r3, #32
 8008fc6:	6023      	strmi	r3, [r4, #0]
 8008fc8:	b91e      	cbnz	r6, 8008fd2 <_printf_i+0x196>
 8008fca:	6823      	ldr	r3, [r4, #0]
 8008fcc:	f023 0320 	bic.w	r3, r3, #32
 8008fd0:	6023      	str	r3, [r4, #0]
 8008fd2:	2310      	movs	r3, #16
 8008fd4:	e7b0      	b.n	8008f38 <_printf_i+0xfc>
 8008fd6:	6823      	ldr	r3, [r4, #0]
 8008fd8:	f043 0320 	orr.w	r3, r3, #32
 8008fdc:	6023      	str	r3, [r4, #0]
 8008fde:	2378      	movs	r3, #120	; 0x78
 8008fe0:	4828      	ldr	r0, [pc, #160]	; (8009084 <_printf_i+0x248>)
 8008fe2:	f884 3045 	strb.w	r3, [r4, #69]	; 0x45
 8008fe6:	e7e3      	b.n	8008fb0 <_printf_i+0x174>
 8008fe8:	0659      	lsls	r1, r3, #25
 8008fea:	bf48      	it	mi
 8008fec:	b2b6      	uxthmi	r6, r6
 8008fee:	e7e6      	b.n	8008fbe <_printf_i+0x182>
 8008ff0:	4615      	mov	r5, r2
 8008ff2:	e7bb      	b.n	8008f6c <_printf_i+0x130>
 8008ff4:	682b      	ldr	r3, [r5, #0]
 8008ff6:	6826      	ldr	r6, [r4, #0]
 8008ff8:	6961      	ldr	r1, [r4, #20]
 8008ffa:	1d18      	adds	r0, r3, #4
 8008ffc:	6028      	str	r0, [r5, #0]
 8008ffe:	0635      	lsls	r5, r6, #24
 8009000:	681b      	ldr	r3, [r3, #0]
 8009002:	d501      	bpl.n	8009008 <_printf_i+0x1cc>
 8009004:	6019      	str	r1, [r3, #0]
 8009006:	e002      	b.n	800900e <_printf_i+0x1d2>
 8009008:	0670      	lsls	r0, r6, #25
 800900a:	d5fb      	bpl.n	8009004 <_printf_i+0x1c8>
 800900c:	8019      	strh	r1, [r3, #0]
 800900e:	2300      	movs	r3, #0
 8009010:	6123      	str	r3, [r4, #16]
 8009012:	4615      	mov	r5, r2
 8009014:	e7ba      	b.n	8008f8c <_printf_i+0x150>
 8009016:	682b      	ldr	r3, [r5, #0]
 8009018:	1d1a      	adds	r2, r3, #4
 800901a:	602a      	str	r2, [r5, #0]
 800901c:	681d      	ldr	r5, [r3, #0]
 800901e:	6862      	ldr	r2, [r4, #4]
 8009020:	2100      	movs	r1, #0
 8009022:	4628      	mov	r0, r5
 8009024:	f7f7 f8d4 	bl	80001d0 <memchr>
 8009028:	b108      	cbz	r0, 800902e <_printf_i+0x1f2>
 800902a:	1b40      	subs	r0, r0, r5
 800902c:	6060      	str	r0, [r4, #4]
 800902e:	6863      	ldr	r3, [r4, #4]
 8009030:	6123      	str	r3, [r4, #16]
 8009032:	2300      	movs	r3, #0
 8009034:	f884 3043 	strb.w	r3, [r4, #67]	; 0x43
 8009038:	e7a8      	b.n	8008f8c <_printf_i+0x150>
 800903a:	6923      	ldr	r3, [r4, #16]
 800903c:	462a      	mov	r2, r5
 800903e:	4649      	mov	r1, r9
 8009040:	4640      	mov	r0, r8
 8009042:	47d0      	blx	sl
 8009044:	3001      	adds	r0, #1
 8009046:	d0ab      	beq.n	8008fa0 <_printf_i+0x164>
 8009048:	6823      	ldr	r3, [r4, #0]
 800904a:	079b      	lsls	r3, r3, #30
 800904c:	d413      	bmi.n	8009076 <_printf_i+0x23a>
 800904e:	68e0      	ldr	r0, [r4, #12]
 8009050:	9b03      	ldr	r3, [sp, #12]
 8009052:	4298      	cmp	r0, r3
 8009054:	bfb8      	it	lt
 8009056:	4618      	movlt	r0, r3
 8009058:	e7a4      	b.n	8008fa4 <_printf_i+0x168>
 800905a:	2301      	movs	r3, #1
 800905c:	4632      	mov	r2, r6
 800905e:	4649      	mov	r1, r9
 8009060:	4640      	mov	r0, r8
 8009062:	47d0      	blx	sl
 8009064:	3001      	adds	r0, #1
 8009066:	d09b      	beq.n	8008fa0 <_printf_i+0x164>
 8009068:	3501      	adds	r5, #1
 800906a:	68e3      	ldr	r3, [r4, #12]
 800906c:	9903      	ldr	r1, [sp, #12]
 800906e:	1a5b      	subs	r3, r3, r1
 8009070:	42ab      	cmp	r3, r5
 8009072:	dcf2      	bgt.n	800905a <_printf_i+0x21e>
 8009074:	e7eb      	b.n	800904e <_printf_i+0x212>
 8009076:	2500      	movs	r5, #0
 8009078:	f104 0619 	add.w	r6, r4, #25
 800907c:	e7f5      	b.n	800906a <_printf_i+0x22e>
 800907e:	bf00      	nop
 8009080:	0800b5f5 	.word	0x0800b5f5
 8009084:	0800b606 	.word	0x0800b606

08009088 <__sread>:
 8009088:	b510      	push	{r4, lr}
 800908a:	460c      	mov	r4, r1
 800908c:	f9b1 100e 	ldrsh.w	r1, [r1, #14]
 8009090:	f000 f894 	bl	80091bc <_read_r>
 8009094:	2800      	cmp	r0, #0
 8009096:	bfab      	itete	ge
 8009098:	6d63      	ldrge	r3, [r4, #84]	; 0x54
 800909a:	89a3      	ldrhlt	r3, [r4, #12]
 800909c:	181b      	addge	r3, r3, r0
 800909e:	f423 5380 	biclt.w	r3, r3, #4096	; 0x1000
 80090a2:	bfac      	ite	ge
 80090a4:	6563      	strge	r3, [r4, #84]	; 0x54
 80090a6:	81a3      	strhlt	r3, [r4, #12]
 80090a8:	bd10      	pop	{r4, pc}

080090aa <__swrite>:
 80090aa:	e92d 41f0 	stmdb	sp!, {r4, r5, r6, r7, r8, lr}
 80090ae:	461f      	mov	r7, r3
 80090b0:	898b      	ldrh	r3, [r1, #12]
 80090b2:	05db      	lsls	r3, r3, #23
 80090b4:	4605      	mov	r5, r0
 80090b6:	460c      	mov	r4, r1
 80090b8:	4616      	mov	r6, r2
 80090ba:	d505      	bpl.n	80090c8 <__swrite+0x1e>
 80090bc:	f9b1 100e 	ldrsh.w	r1, [r1, #14]
 80090c0:	2302      	movs	r3, #2
 80090c2:	2200      	movs	r2, #0
 80090c4:	f000 f868 	bl	8009198 <_lseek_r>
 80090c8:	89a3      	ldrh	r3, [r4, #12]
 80090ca:	f9b4 100e 	ldrsh.w	r1, [r4, #14]
 80090ce:	f423 5380 	bic.w	r3, r3, #4096	; 0x1000
 80090d2:	81a3      	strh	r3, [r4, #12]
 80090d4:	4632      	mov	r2, r6
 80090d6:	463b      	mov	r3, r7
 80090d8:	4628      	mov	r0, r5
 80090da:	e8bd 41f0 	ldmia.w	sp!, {r4, r5, r6, r7, r8, lr}
 80090de:	f000 b817 	b.w	8009110 <_write_r>

080090e2 <__sseek>:
 80090e2:	b510      	push	{r4, lr}
 80090e4:	460c      	mov	r4, r1
 80090e6:	f9b1 100e 	ldrsh.w	r1, [r1, #14]
 80090ea:	f000 f855 	bl	8009198 <_lseek_r>
 80090ee:	1c43      	adds	r3, r0, #1
 80090f0:	89a3      	ldrh	r3, [r4, #12]
 80090f2:	bf15      	itete	ne
 80090f4:	6560      	strne	r0, [r4, #84]	; 0x54
 80090f6:	f423 5380 	biceq.w	r3, r3, #4096	; 0x1000
 80090fa:	f443 5380 	orrne.w	r3, r3, #4096	; 0x1000
 80090fe:	81a3      	strheq	r3, [r4, #12]
 8009100:	bf18      	it	ne
 8009102:	81a3      	strhne	r3, [r4, #12]
 8009104:	bd10      	pop	{r4, pc}

08009106 <__sclose>:
 8009106:	f9b1 100e 	ldrsh.w	r1, [r1, #14]
 800910a:	f000 b813 	b.w	8009134 <_close_r>
	...

08009110 <_write_r>:
 8009110:	b538      	push	{r3, r4, r5, lr}
 8009112:	4d07      	ldr	r5, [pc, #28]	; (8009130 <_write_r+0x20>)
 8009114:	4604      	mov	r4, r0
 8009116:	4608      	mov	r0, r1
 8009118:	4611      	mov	r1, r2
 800911a:	2200      	movs	r2, #0
 800911c:	602a      	str	r2, [r5, #0]
 800911e:	461a      	mov	r2, r3
 8009120:	f7fb f9d4 	bl	80044cc <_write>
 8009124:	1c43      	adds	r3, r0, #1
 8009126:	d102      	bne.n	800912e <_write_r+0x1e>
 8009128:	682b      	ldr	r3, [r5, #0]
 800912a:	b103      	cbz	r3, 800912e <_write_r+0x1e>
 800912c:	6023      	str	r3, [r4, #0]
 800912e:	bd38      	pop	{r3, r4, r5, pc}
 8009130:	20001840 	.word	0x20001840

08009134 <_close_r>:
 8009134:	b538      	push	{r3, r4, r5, lr}
 8009136:	4d06      	ldr	r5, [pc, #24]	; (8009150 <_close_r+0x1c>)
 8009138:	2300      	movs	r3, #0
 800913a:	4604      	mov	r4, r0
 800913c:	4608      	mov	r0, r1
 800913e:	602b      	str	r3, [r5, #0]
 8009140:	f7fb f9d2 	bl	80044e8 <_close>
 8009144:	1c43      	adds	r3, r0, #1
 8009146:	d102      	bne.n	800914e <_close_r+0x1a>
 8009148:	682b      	ldr	r3, [r5, #0]
 800914a:	b103      	cbz	r3, 800914e <_close_r+0x1a>
 800914c:	6023      	str	r3, [r4, #0]
 800914e:	bd38      	pop	{r3, r4, r5, pc}
 8009150:	20001840 	.word	0x20001840

08009154 <_fstat_r>:
 8009154:	b538      	push	{r3, r4, r5, lr}
 8009156:	4d07      	ldr	r5, [pc, #28]	; (8009174 <_fstat_r+0x20>)
 8009158:	2300      	movs	r3, #0
 800915a:	4604      	mov	r4, r0
 800915c:	4608      	mov	r0, r1
 800915e:	4611      	mov	r1, r2
 8009160:	602b      	str	r3, [r5, #0]
 8009162:	f7fb f9c4 	bl	80044ee <_fstat>
 8009166:	1c43      	adds	r3, r0, #1
 8009168:	d102      	bne.n	8009170 <_fstat_r+0x1c>
 800916a:	682b      	ldr	r3, [r5, #0]
 800916c:	b103      	cbz	r3, 8009170 <_fstat_r+0x1c>
 800916e:	6023      	str	r3, [r4, #0]
 8009170:	bd38      	pop	{r3, r4, r5, pc}
 8009172:	bf00      	nop
 8009174:	20001840 	.word	0x20001840

08009178 <_isatty_r>:
 8009178:	b538      	push	{r3, r4, r5, lr}
 800917a:	4d06      	ldr	r5, [pc, #24]	; (8009194 <_isatty_r+0x1c>)
 800917c:	2300      	movs	r3, #0
 800917e:	4604      	mov	r4, r0
 8009180:	4608      	mov	r0, r1
 8009182:	602b      	str	r3, [r5, #0]
 8009184:	f7fb f9b8 	bl	80044f8 <_isatty>
 8009188:	1c43      	adds	r3, r0, #1
 800918a:	d102      	bne.n	8009192 <_isatty_r+0x1a>
 800918c:	682b      	ldr	r3, [r5, #0]
 800918e:	b103      	cbz	r3, 8009192 <_isatty_r+0x1a>
 8009190:	6023      	str	r3, [r4, #0]
 8009192:	bd38      	pop	{r3, r4, r5, pc}
 8009194:	20001840 	.word	0x20001840

08009198 <_lseek_r>:
 8009198:	b538      	push	{r3, r4, r5, lr}
 800919a:	4d07      	ldr	r5, [pc, #28]	; (80091b8 <_lseek_r+0x20>)
 800919c:	4604      	mov	r4, r0
 800919e:	4608      	mov	r0, r1
 80091a0:	4611      	mov	r1, r2
 80091a2:	2200      	movs	r2, #0
 80091a4:	602a      	str	r2, [r5, #0]
 80091a6:	461a      	mov	r2, r3
 80091a8:	f7fb f9a8 	bl	80044fc <_lseek>
 80091ac:	1c43      	adds	r3, r0, #1
 80091ae:	d102      	bne.n	80091b6 <_lseek_r+0x1e>
 80091b0:	682b      	ldr	r3, [r5, #0]
 80091b2:	b103      	cbz	r3, 80091b6 <_lseek_r+0x1e>
 80091b4:	6023      	str	r3, [r4, #0]
 80091b6:	bd38      	pop	{r3, r4, r5, pc}
 80091b8:	20001840 	.word	0x20001840

080091bc <_read_r>:
 80091bc:	b538      	push	{r3, r4, r5, lr}
 80091be:	4d07      	ldr	r5, [pc, #28]	; (80091dc <_read_r+0x20>)
 80091c0:	4604      	mov	r4, r0
 80091c2:	4608      	mov	r0, r1
 80091c4:	4611      	mov	r1, r2
 80091c6:	2200      	movs	r2, #0
 80091c8:	602a      	str	r2, [r5, #0]
 80091ca:	461a      	mov	r2, r3
 80091cc:	f7fb f970 	bl	80044b0 <_read>
 80091d0:	1c43      	adds	r3, r0, #1
 80091d2:	d102      	bne.n	80091da <_read_r+0x1e>
 80091d4:	682b      	ldr	r3, [r5, #0]
 80091d6:	b103      	cbz	r3, 80091da <_read_r+0x1e>
 80091d8:	6023      	str	r3, [r4, #0]
 80091da:	bd38      	pop	{r3, r4, r5, pc}
 80091dc:	20001840 	.word	0x20001840

080091e0 <cos>:
 80091e0:	b51f      	push	{r0, r1, r2, r3, r4, lr}
 80091e2:	ec53 2b10 	vmov	r2, r3, d0
 80091e6:	4826      	ldr	r0, [pc, #152]	; (8009280 <cos+0xa0>)
 80091e8:	f023 4100 	bic.w	r1, r3, #2147483648	; 0x80000000
 80091ec:	4281      	cmp	r1, r0
 80091ee:	dc06      	bgt.n	80091fe <cos+0x1e>
 80091f0:	ed9f 1b21 	vldr	d1, [pc, #132]	; 8009278 <cos+0x98>
 80091f4:	b005      	add	sp, #20
 80091f6:	f85d eb04 	ldr.w	lr, [sp], #4
 80091fa:	f001 b975 	b.w	800a4e8 <__kernel_cos>
 80091fe:	4821      	ldr	r0, [pc, #132]	; (8009284 <cos+0xa4>)
 8009200:	4281      	cmp	r1, r0
 8009202:	dd09      	ble.n	8009218 <cos+0x38>
 8009204:	ee10 0a10 	vmov	r0, s0
 8009208:	4619      	mov	r1, r3
 800920a:	f7f7 f835 	bl	8000278 <__aeabi_dsub>
 800920e:	ec41 0b10 	vmov	d0, r0, r1
 8009212:	b005      	add	sp, #20
 8009214:	f85d fb04 	ldr.w	pc, [sp], #4
 8009218:	4668      	mov	r0, sp
 800921a:	f000 fea5 	bl	8009f68 <__ieee754_rem_pio2>
 800921e:	f000 0003 	and.w	r0, r0, #3
 8009222:	2801      	cmp	r0, #1
 8009224:	d00b      	beq.n	800923e <cos+0x5e>
 8009226:	2802      	cmp	r0, #2
 8009228:	d016      	beq.n	8009258 <cos+0x78>
 800922a:	b9e0      	cbnz	r0, 8009266 <cos+0x86>
 800922c:	ed9d 1b02 	vldr	d1, [sp, #8]
 8009230:	ed9d 0b00 	vldr	d0, [sp]
 8009234:	f001 f958 	bl	800a4e8 <__kernel_cos>
 8009238:	ec51 0b10 	vmov	r0, r1, d0
 800923c:	e7e7      	b.n	800920e <cos+0x2e>
 800923e:	ed9d 1b02 	vldr	d1, [sp, #8]
 8009242:	ed9d 0b00 	vldr	d0, [sp]
 8009246:	f001 fd67 	bl	800ad18 <__kernel_sin>
 800924a:	ec53 2b10 	vmov	r2, r3, d0
 800924e:	ee10 0a10 	vmov	r0, s0
 8009252:	f103 4100 	add.w	r1, r3, #2147483648	; 0x80000000
 8009256:	e7da      	b.n	800920e <cos+0x2e>
 8009258:	ed9d 1b02 	vldr	d1, [sp, #8]
 800925c:	ed9d 0b00 	vldr	d0, [sp]
 8009260:	f001 f942 	bl	800a4e8 <__kernel_cos>
 8009264:	e7f1      	b.n	800924a <cos+0x6a>
 8009266:	ed9d 1b02 	vldr	d1, [sp, #8]
 800926a:	ed9d 0b00 	vldr	d0, [sp]
 800926e:	2001      	movs	r0, #1
 8009270:	f001 fd52 	bl	800ad18 <__kernel_sin>
 8009274:	e7e0      	b.n	8009238 <cos+0x58>
 8009276:	bf00      	nop
	...
 8009280:	3fe921fb 	.word	0x3fe921fb
 8009284:	7fefffff 	.word	0x7fefffff

08009288 <sin>:
 8009288:	b51f      	push	{r0, r1, r2, r3, r4, lr}
 800928a:	ec53 2b10 	vmov	r2, r3, d0
 800928e:	4828      	ldr	r0, [pc, #160]	; (8009330 <sin+0xa8>)
 8009290:	f023 4100 	bic.w	r1, r3, #2147483648	; 0x80000000
 8009294:	4281      	cmp	r1, r0
 8009296:	dc07      	bgt.n	80092a8 <sin+0x20>
 8009298:	ed9f 1b23 	vldr	d1, [pc, #140]	; 8009328 <sin+0xa0>
 800929c:	2000      	movs	r0, #0
 800929e:	b005      	add	sp, #20
 80092a0:	f85d eb04 	ldr.w	lr, [sp], #4
 80092a4:	f001 bd38 	b.w	800ad18 <__kernel_sin>
 80092a8:	4822      	ldr	r0, [pc, #136]	; (8009334 <sin+0xac>)
 80092aa:	4281      	cmp	r1, r0
 80092ac:	dd09      	ble.n	80092c2 <sin+0x3a>
 80092ae:	ee10 0a10 	vmov	r0, s0
 80092b2:	4619      	mov	r1, r3
 80092b4:	f7f6 ffe0 	bl	8000278 <__aeabi_dsub>
 80092b8:	ec41 0b10 	vmov	d0, r0, r1
 80092bc:	b005      	add	sp, #20
 80092be:	f85d fb04 	ldr.w	pc, [sp], #4
 80092c2:	4668      	mov	r0, sp
 80092c4:	f000 fe50 	bl	8009f68 <__ieee754_rem_pio2>
 80092c8:	f000 0003 	and.w	r0, r0, #3
 80092cc:	2801      	cmp	r0, #1
 80092ce:	d00c      	beq.n	80092ea <sin+0x62>
 80092d0:	2802      	cmp	r0, #2
 80092d2:	d011      	beq.n	80092f8 <sin+0x70>
 80092d4:	b9f0      	cbnz	r0, 8009314 <sin+0x8c>
 80092d6:	ed9d 1b02 	vldr	d1, [sp, #8]
 80092da:	ed9d 0b00 	vldr	d0, [sp]
 80092de:	2001      	movs	r0, #1
 80092e0:	f001 fd1a 	bl	800ad18 <__kernel_sin>
 80092e4:	ec51 0b10 	vmov	r0, r1, d0
 80092e8:	e7e6      	b.n	80092b8 <sin+0x30>
 80092ea:	ed9d 1b02 	vldr	d1, [sp, #8]
 80092ee:	ed9d 0b00 	vldr	d0, [sp]
 80092f2:	f001 f8f9 	bl	800a4e8 <__kernel_cos>
 80092f6:	e7f5      	b.n	80092e4 <sin+0x5c>
 80092f8:	ed9d 1b02 	vldr	d1, [sp, #8]
 80092fc:	ed9d 0b00 	vldr	d0, [sp]
 8009300:	2001      	movs	r0, #1
 8009302:	f001 fd09 	bl	800ad18 <__kernel_sin>
 8009306:	ec53 2b10 	vmov	r2, r3, d0
 800930a:	ee10 0a10 	vmov	r0, s0
 800930e:	f103 4100 	add.w	r1, r3, #2147483648	; 0x80000000
 8009312:	e7d1      	b.n	80092b8 <sin+0x30>
 8009314:	ed9d 1b02 	vldr	d1, [sp, #8]
 8009318:	ed9d 0b00 	vldr	d0, [sp]
 800931c:	f001 f8e4 	bl	800a4e8 <__kernel_cos>
 8009320:	e7f1      	b.n	8009306 <sin+0x7e>
 8009322:	bf00      	nop
 8009324:	f3af 8000 	nop.w
	...
 8009330:	3fe921fb 	.word	0x3fe921fb
 8009334:	7fefffff 	.word	0x7fefffff

08009338 <floorf>:
 8009338:	ee10 3a10 	vmov	r3, s0
 800933c:	f3c3 52c7 	ubfx	r2, r3, #23, #8
 8009340:	3a7f      	subs	r2, #127	; 0x7f
 8009342:	2a16      	cmp	r2, #22
 8009344:	f023 4100 	bic.w	r1, r3, #2147483648	; 0x80000000
 8009348:	dc2a      	bgt.n	80093a0 <floorf+0x68>
 800934a:	2a00      	cmp	r2, #0
 800934c:	da11      	bge.n	8009372 <floorf+0x3a>
 800934e:	eddf 7a18 	vldr	s15, [pc, #96]	; 80093b0 <floorf+0x78>
 8009352:	ee30 0a27 	vadd.f32	s0, s0, s15
 8009356:	eeb5 0ac0 	vcmpe.f32	s0, #0.0
 800935a:	eef1 fa10 	vmrs	APSR_nzcv, fpscr
 800935e:	dd05      	ble.n	800936c <floorf+0x34>
 8009360:	2b00      	cmp	r3, #0
 8009362:	da23      	bge.n	80093ac <floorf+0x74>
 8009364:	4a13      	ldr	r2, [pc, #76]	; (80093b4 <floorf+0x7c>)
 8009366:	2900      	cmp	r1, #0
 8009368:	bf18      	it	ne
 800936a:	4613      	movne	r3, r2
 800936c:	ee00 3a10 	vmov	s0, r3
 8009370:	4770      	bx	lr
 8009372:	4911      	ldr	r1, [pc, #68]	; (80093b8 <floorf+0x80>)
 8009374:	4111      	asrs	r1, r2
 8009376:	420b      	tst	r3, r1
 8009378:	d0fa      	beq.n	8009370 <floorf+0x38>
 800937a:	eddf 7a0d 	vldr	s15, [pc, #52]	; 80093b0 <floorf+0x78>
 800937e:	ee30 0a27 	vadd.f32	s0, s0, s15
 8009382:	eeb5 0ac0 	vcmpe.f32	s0, #0.0
 8009386:	eef1 fa10 	vmrs	APSR_nzcv, fpscr
 800938a:	ddef      	ble.n	800936c <floorf+0x34>
 800938c:	2b00      	cmp	r3, #0
 800938e:	bfbe      	ittt	lt
 8009390:	f44f 0000 	movlt.w	r0, #8388608	; 0x800000
 8009394:	fa40 f202 	asrlt.w	r2, r0, r2
 8009398:	189b      	addlt	r3, r3, r2
 800939a:	ea23 0301 	bic.w	r3, r3, r1
 800939e:	e7e5      	b.n	800936c <floorf+0x34>
 80093a0:	f1b1 4fff 	cmp.w	r1, #2139095040	; 0x7f800000
 80093a4:	d3e4      	bcc.n	8009370 <floorf+0x38>
 80093a6:	ee30 0a00 	vadd.f32	s0, s0, s0
 80093aa:	4770      	bx	lr
 80093ac:	2300      	movs	r3, #0
 80093ae:	e7dd      	b.n	800936c <floorf+0x34>
 80093b0:	7149f2ca 	.word	0x7149f2ca
 80093b4:	bf800000 	.word	0xbf800000
 80093b8:	007fffff 	.word	0x007fffff

080093bc <acos>:
 80093bc:	b538      	push	{r3, r4, r5, lr}
 80093be:	ed2d 8b02 	vpush	{d8}
 80093c2:	ec55 4b10 	vmov	r4, r5, d0
 80093c6:	f000 f88f 	bl	80094e8 <__ieee754_acos>
 80093ca:	4622      	mov	r2, r4
 80093cc:	462b      	mov	r3, r5
 80093ce:	4620      	mov	r0, r4
 80093d0:	4629      	mov	r1, r5
 80093d2:	eeb0 8a40 	vmov.f32	s16, s0
 80093d6:	eef0 8a60 	vmov.f32	s17, s1
 80093da:	f7f7 fb9f 	bl	8000b1c <__aeabi_dcmpun>
 80093de:	b9a8      	cbnz	r0, 800940c <acos+0x50>
 80093e0:	ec45 4b10 	vmov	d0, r4, r5
 80093e4:	f001 fef8 	bl	800b1d8 <fabs>
 80093e8:	4b0c      	ldr	r3, [pc, #48]	; (800941c <acos+0x60>)
 80093ea:	ec51 0b10 	vmov	r0, r1, d0
 80093ee:	2200      	movs	r2, #0
 80093f0:	f7f7 fb8a 	bl	8000b08 <__aeabi_dcmpgt>
 80093f4:	b150      	cbz	r0, 800940c <acos+0x50>
 80093f6:	f7fe febd 	bl	8008174 <__errno>
 80093fa:	ecbd 8b02 	vpop	{d8}
 80093fe:	2321      	movs	r3, #33	; 0x21
 8009400:	6003      	str	r3, [r0, #0]
 8009402:	e8bd 4038 	ldmia.w	sp!, {r3, r4, r5, lr}
 8009406:	4806      	ldr	r0, [pc, #24]	; (8009420 <acos+0x64>)
 8009408:	f001 bf72 	b.w	800b2f0 <nan>
 800940c:	eeb0 0a48 	vmov.f32	s0, s16
 8009410:	eef0 0a68 	vmov.f32	s1, s17
 8009414:	ecbd 8b02 	vpop	{d8}
 8009418:	bd38      	pop	{r3, r4, r5, pc}
 800941a:	bf00      	nop
 800941c:	3ff00000 	.word	0x3ff00000
 8009420:	0800b47e 	.word	0x0800b47e

08009424 <asin>:
 8009424:	b538      	push	{r3, r4, r5, lr}
 8009426:	ed2d 8b02 	vpush	{d8}
 800942a:	ec55 4b10 	vmov	r4, r5, d0
 800942e:	f000 fabb 	bl	80099a8 <__ieee754_asin>
 8009432:	4622      	mov	r2, r4
 8009434:	462b      	mov	r3, r5
 8009436:	4620      	mov	r0, r4
 8009438:	4629      	mov	r1, r5
 800943a:	eeb0 8a40 	vmov.f32	s16, s0
 800943e:	eef0 8a60 	vmov.f32	s17, s1
 8009442:	f7f7 fb6b 	bl	8000b1c <__aeabi_dcmpun>
 8009446:	b9a8      	cbnz	r0, 8009474 <asin+0x50>
 8009448:	ec45 4b10 	vmov	d0, r4, r5
 800944c:	f001 fec4 	bl	800b1d8 <fabs>
 8009450:	4b0c      	ldr	r3, [pc, #48]	; (8009484 <asin+0x60>)
 8009452:	ec51 0b10 	vmov	r0, r1, d0
 8009456:	2200      	movs	r2, #0
 8009458:	f7f7 fb56 	bl	8000b08 <__aeabi_dcmpgt>
 800945c:	b150      	cbz	r0, 8009474 <asin+0x50>
 800945e:	f7fe fe89 	bl	8008174 <__errno>
 8009462:	ecbd 8b02 	vpop	{d8}
 8009466:	2321      	movs	r3, #33	; 0x21
 8009468:	6003      	str	r3, [r0, #0]
 800946a:	e8bd 4038 	ldmia.w	sp!, {r3, r4, r5, lr}
 800946e:	4806      	ldr	r0, [pc, #24]	; (8009488 <asin+0x64>)
 8009470:	f001 bf3e 	b.w	800b2f0 <nan>
 8009474:	eeb0 0a48 	vmov.f32	s0, s16
 8009478:	eef0 0a68 	vmov.f32	s1, s17
 800947c:	ecbd 8b02 	vpop	{d8}
 8009480:	bd38      	pop	{r3, r4, r5, pc}
 8009482:	bf00      	nop
 8009484:	3ff00000 	.word	0x3ff00000
 8009488:	0800b47e 	.word	0x0800b47e

0800948c <atan2>:
 800948c:	f000 bca0 	b.w	8009dd0 <__ieee754_atan2>

08009490 <sqrt>:
 8009490:	b538      	push	{r3, r4, r5, lr}
 8009492:	ed2d 8b02 	vpush	{d8}
 8009496:	ec55 4b10 	vmov	r4, r5, d0
 800949a:	f000 ff71 	bl	800a380 <__ieee754_sqrt>
 800949e:	4622      	mov	r2, r4
 80094a0:	462b      	mov	r3, r5
 80094a2:	4620      	mov	r0, r4
 80094a4:	4629      	mov	r1, r5
 80094a6:	eeb0 8a40 	vmov.f32	s16, s0
 80094aa:	eef0 8a60 	vmov.f32	s17, s1
 80094ae:	f7f7 fb35 	bl	8000b1c <__aeabi_dcmpun>
 80094b2:	b990      	cbnz	r0, 80094da <sqrt+0x4a>
 80094b4:	2200      	movs	r2, #0
 80094b6:	2300      	movs	r3, #0
 80094b8:	4620      	mov	r0, r4
 80094ba:	4629      	mov	r1, r5
 80094bc:	f7f7 fb06 	bl	8000acc <__aeabi_dcmplt>
 80094c0:	b158      	cbz	r0, 80094da <sqrt+0x4a>
 80094c2:	f7fe fe57 	bl	8008174 <__errno>
 80094c6:	2321      	movs	r3, #33	; 0x21
 80094c8:	6003      	str	r3, [r0, #0]
 80094ca:	2200      	movs	r2, #0
 80094cc:	2300      	movs	r3, #0
 80094ce:	4610      	mov	r0, r2
 80094d0:	4619      	mov	r1, r3
 80094d2:	f7f7 f9b3 	bl	800083c <__aeabi_ddiv>
 80094d6:	ec41 0b18 	vmov	d8, r0, r1
 80094da:	eeb0 0a48 	vmov.f32	s0, s16
 80094de:	eef0 0a68 	vmov.f32	s1, s17
 80094e2:	ecbd 8b02 	vpop	{d8}
 80094e6:	bd38      	pop	{r3, r4, r5, pc}

080094e8 <__ieee754_acos>:
 80094e8:	e92d 4ff8 	stmdb	sp!, {r3, r4, r5, r6, r7, r8, r9, sl, fp, lr}
 80094ec:	ec55 4b10 	vmov	r4, r5, d0
 80094f0:	49b7      	ldr	r1, [pc, #732]	; (80097d0 <__ieee754_acos+0x2e8>)
 80094f2:	f025 4300 	bic.w	r3, r5, #2147483648	; 0x80000000
 80094f6:	428b      	cmp	r3, r1
 80094f8:	dd1b      	ble.n	8009532 <__ieee754_acos+0x4a>
 80094fa:	f103 4340 	add.w	r3, r3, #3221225472	; 0xc0000000
 80094fe:	f503 1380 	add.w	r3, r3, #1048576	; 0x100000
 8009502:	4323      	orrs	r3, r4
 8009504:	d106      	bne.n	8009514 <__ieee754_acos+0x2c>
 8009506:	2d00      	cmp	r5, #0
 8009508:	f300 8211 	bgt.w	800992e <__ieee754_acos+0x446>
 800950c:	ed9f 0b96 	vldr	d0, [pc, #600]	; 8009768 <__ieee754_acos+0x280>
 8009510:	e8bd 8ff8 	ldmia.w	sp!, {r3, r4, r5, r6, r7, r8, r9, sl, fp, pc}
 8009514:	ee10 2a10 	vmov	r2, s0
 8009518:	462b      	mov	r3, r5
 800951a:	ee10 0a10 	vmov	r0, s0
 800951e:	4629      	mov	r1, r5
 8009520:	f7f6 feaa 	bl	8000278 <__aeabi_dsub>
 8009524:	4602      	mov	r2, r0
 8009526:	460b      	mov	r3, r1
 8009528:	f7f7 f988 	bl	800083c <__aeabi_ddiv>
 800952c:	ec41 0b10 	vmov	d0, r0, r1
 8009530:	e7ee      	b.n	8009510 <__ieee754_acos+0x28>
 8009532:	49a8      	ldr	r1, [pc, #672]	; (80097d4 <__ieee754_acos+0x2ec>)
 8009534:	428b      	cmp	r3, r1
 8009536:	f300 8087 	bgt.w	8009648 <__ieee754_acos+0x160>
 800953a:	4aa7      	ldr	r2, [pc, #668]	; (80097d8 <__ieee754_acos+0x2f0>)
 800953c:	4293      	cmp	r3, r2
 800953e:	f340 81f9 	ble.w	8009934 <__ieee754_acos+0x44c>
 8009542:	ee10 2a10 	vmov	r2, s0
 8009546:	ee10 0a10 	vmov	r0, s0
 800954a:	462b      	mov	r3, r5
 800954c:	4629      	mov	r1, r5
 800954e:	f7f7 f84b 	bl	80005e8 <__aeabi_dmul>
 8009552:	a387      	add	r3, pc, #540	; (adr r3, 8009770 <__ieee754_acos+0x288>)
 8009554:	e9d3 2300 	ldrd	r2, r3, [r3]
 8009558:	4606      	mov	r6, r0
 800955a:	460f      	mov	r7, r1
 800955c:	f7f7 f844 	bl	80005e8 <__aeabi_dmul>
 8009560:	a385      	add	r3, pc, #532	; (adr r3, 8009778 <__ieee754_acos+0x290>)
 8009562:	e9d3 2300 	ldrd	r2, r3, [r3]
 8009566:	f7f6 fe89 	bl	800027c <__adddf3>
 800956a:	4632      	mov	r2, r6
 800956c:	463b      	mov	r3, r7
 800956e:	f7f7 f83b 	bl	80005e8 <__aeabi_dmul>
 8009572:	a383      	add	r3, pc, #524	; (adr r3, 8009780 <__ieee754_acos+0x298>)
 8009574:	e9d3 2300 	ldrd	r2, r3, [r3]
 8009578:	f7f6 fe7e 	bl	8000278 <__aeabi_dsub>
 800957c:	4632      	mov	r2, r6
 800957e:	463b      	mov	r3, r7
 8009580:	f7f7 f832 	bl	80005e8 <__aeabi_dmul>
 8009584:	a380      	add	r3, pc, #512	; (adr r3, 8009788 <__ieee754_acos+0x2a0>)
 8009586:	e9d3 2300 	ldrd	r2, r3, [r3]
 800958a:	f7f6 fe77 	bl	800027c <__adddf3>
 800958e:	4632      	mov	r2, r6
 8009590:	463b      	mov	r3, r7
 8009592:	f7f7 f829 	bl	80005e8 <__aeabi_dmul>
 8009596:	a37e      	add	r3, pc, #504	; (adr r3, 8009790 <__ieee754_acos+0x2a8>)
 8009598:	e9d3 2300 	ldrd	r2, r3, [r3]
 800959c:	f7f6 fe6c 	bl	8000278 <__aeabi_dsub>
 80095a0:	4632      	mov	r2, r6
 80095a2:	463b      	mov	r3, r7
 80095a4:	f7f7 f820 	bl	80005e8 <__aeabi_dmul>
 80095a8:	a37b      	add	r3, pc, #492	; (adr r3, 8009798 <__ieee754_acos+0x2b0>)
 80095aa:	e9d3 2300 	ldrd	r2, r3, [r3]
 80095ae:	f7f6 fe65 	bl	800027c <__adddf3>
 80095b2:	4632      	mov	r2, r6
 80095b4:	463b      	mov	r3, r7
 80095b6:	f7f7 f817 	bl	80005e8 <__aeabi_dmul>
 80095ba:	a379      	add	r3, pc, #484	; (adr r3, 80097a0 <__ieee754_acos+0x2b8>)
 80095bc:	e9d3 2300 	ldrd	r2, r3, [r3]
 80095c0:	4680      	mov	r8, r0
 80095c2:	4689      	mov	r9, r1
 80095c4:	4630      	mov	r0, r6
 80095c6:	4639      	mov	r1, r7
 80095c8:	f7f7 f80e 	bl	80005e8 <__aeabi_dmul>
 80095cc:	a376      	add	r3, pc, #472	; (adr r3, 80097a8 <__ieee754_acos+0x2c0>)
 80095ce:	e9d3 2300 	ldrd	r2, r3, [r3]
 80095d2:	f7f6 fe51 	bl	8000278 <__aeabi_dsub>
 80095d6:	4632      	mov	r2, r6
 80095d8:	463b      	mov	r3, r7
 80095da:	f7f7 f805 	bl	80005e8 <__aeabi_dmul>
 80095de:	a374      	add	r3, pc, #464	; (adr r3, 80097b0 <__ieee754_acos+0x2c8>)
 80095e0:	e9d3 2300 	ldrd	r2, r3, [r3]
 80095e4:	f7f6 fe4a 	bl	800027c <__adddf3>
 80095e8:	4632      	mov	r2, r6
 80095ea:	463b      	mov	r3, r7
 80095ec:	f7f6 fffc 	bl	80005e8 <__aeabi_dmul>
 80095f0:	a371      	add	r3, pc, #452	; (adr r3, 80097b8 <__ieee754_acos+0x2d0>)
 80095f2:	e9d3 2300 	ldrd	r2, r3, [r3]
 80095f6:	f7f6 fe3f 	bl	8000278 <__aeabi_dsub>
 80095fa:	4632      	mov	r2, r6
 80095fc:	463b      	mov	r3, r7
 80095fe:	f7f6 fff3 	bl	80005e8 <__aeabi_dmul>
 8009602:	4b76      	ldr	r3, [pc, #472]	; (80097dc <__ieee754_acos+0x2f4>)
 8009604:	2200      	movs	r2, #0
 8009606:	f7f6 fe39 	bl	800027c <__adddf3>
 800960a:	4602      	mov	r2, r0
 800960c:	460b      	mov	r3, r1
 800960e:	4640      	mov	r0, r8
 8009610:	4649      	mov	r1, r9
 8009612:	f7f7 f913 	bl	800083c <__aeabi_ddiv>
 8009616:	4622      	mov	r2, r4
 8009618:	462b      	mov	r3, r5
 800961a:	f7f6 ffe5 	bl	80005e8 <__aeabi_dmul>
 800961e:	4602      	mov	r2, r0
 8009620:	460b      	mov	r3, r1
 8009622:	a167      	add	r1, pc, #412	; (adr r1, 80097c0 <__ieee754_acos+0x2d8>)
 8009624:	e9d1 0100 	ldrd	r0, r1, [r1]
 8009628:	f7f6 fe26 	bl	8000278 <__aeabi_dsub>
 800962c:	4602      	mov	r2, r0
 800962e:	460b      	mov	r3, r1
 8009630:	4620      	mov	r0, r4
 8009632:	4629      	mov	r1, r5
 8009634:	f7f6 fe20 	bl	8000278 <__aeabi_dsub>
 8009638:	4602      	mov	r2, r0
 800963a:	460b      	mov	r3, r1
 800963c:	a162      	add	r1, pc, #392	; (adr r1, 80097c8 <__ieee754_acos+0x2e0>)
 800963e:	e9d1 0100 	ldrd	r0, r1, [r1]
 8009642:	f7f6 fe19 	bl	8000278 <__aeabi_dsub>
 8009646:	e771      	b.n	800952c <__ieee754_acos+0x44>
 8009648:	2d00      	cmp	r5, #0
 800964a:	f280 80cb 	bge.w	80097e4 <__ieee754_acos+0x2fc>
 800964e:	ee10 0a10 	vmov	r0, s0
 8009652:	4b62      	ldr	r3, [pc, #392]	; (80097dc <__ieee754_acos+0x2f4>)
 8009654:	2200      	movs	r2, #0
 8009656:	4629      	mov	r1, r5
 8009658:	f7f6 fe10 	bl	800027c <__adddf3>
 800965c:	4b60      	ldr	r3, [pc, #384]	; (80097e0 <__ieee754_acos+0x2f8>)
 800965e:	2200      	movs	r2, #0
 8009660:	f7f6 ffc2 	bl	80005e8 <__aeabi_dmul>
 8009664:	a342      	add	r3, pc, #264	; (adr r3, 8009770 <__ieee754_acos+0x288>)
 8009666:	e9d3 2300 	ldrd	r2, r3, [r3]
 800966a:	4604      	mov	r4, r0
 800966c:	460d      	mov	r5, r1
 800966e:	f7f6 ffbb 	bl	80005e8 <__aeabi_dmul>
 8009672:	a341      	add	r3, pc, #260	; (adr r3, 8009778 <__ieee754_acos+0x290>)
 8009674:	e9d3 2300 	ldrd	r2, r3, [r3]
 8009678:	f7f6 fe00 	bl	800027c <__adddf3>
 800967c:	4622      	mov	r2, r4
 800967e:	462b      	mov	r3, r5
 8009680:	f7f6 ffb2 	bl	80005e8 <__aeabi_dmul>
 8009684:	a33e      	add	r3, pc, #248	; (adr r3, 8009780 <__ieee754_acos+0x298>)
 8009686:	e9d3 2300 	ldrd	r2, r3, [r3]
 800968a:	f7f6 fdf5 	bl	8000278 <__aeabi_dsub>
 800968e:	4622      	mov	r2, r4
 8009690:	462b      	mov	r3, r5
 8009692:	f7f6 ffa9 	bl	80005e8 <__aeabi_dmul>
 8009696:	a33c      	add	r3, pc, #240	; (adr r3, 8009788 <__ieee754_acos+0x2a0>)
 8009698:	e9d3 2300 	ldrd	r2, r3, [r3]
 800969c:	f7f6 fdee 	bl	800027c <__adddf3>
 80096a0:	4622      	mov	r2, r4
 80096a2:	462b      	mov	r3, r5
 80096a4:	f7f6 ffa0 	bl	80005e8 <__aeabi_dmul>
 80096a8:	a339      	add	r3, pc, #228	; (adr r3, 8009790 <__ieee754_acos+0x2a8>)
 80096aa:	e9d3 2300 	ldrd	r2, r3, [r3]
 80096ae:	f7f6 fde3 	bl	8000278 <__aeabi_dsub>
 80096b2:	4622      	mov	r2, r4
 80096b4:	462b      	mov	r3, r5
 80096b6:	f7f6 ff97 	bl	80005e8 <__aeabi_dmul>
 80096ba:	a337      	add	r3, pc, #220	; (adr r3, 8009798 <__ieee754_acos+0x2b0>)
 80096bc:	e9d3 2300 	ldrd	r2, r3, [r3]
 80096c0:	f7f6 fddc 	bl	800027c <__adddf3>
 80096c4:	4622      	mov	r2, r4
 80096c6:	462b      	mov	r3, r5
 80096c8:	f7f6 ff8e 	bl	80005e8 <__aeabi_dmul>
 80096cc:	ec45 4b10 	vmov	d0, r4, r5
 80096d0:	4680      	mov	r8, r0
 80096d2:	4689      	mov	r9, r1
 80096d4:	f000 fe54 	bl	800a380 <__ieee754_sqrt>
 80096d8:	a331      	add	r3, pc, #196	; (adr r3, 80097a0 <__ieee754_acos+0x2b8>)
 80096da:	e9d3 2300 	ldrd	r2, r3, [r3]
 80096de:	4620      	mov	r0, r4
 80096e0:	4629      	mov	r1, r5
 80096e2:	ec57 6b10 	vmov	r6, r7, d0
 80096e6:	f7f6 ff7f 	bl	80005e8 <__aeabi_dmul>
 80096ea:	a32f      	add	r3, pc, #188	; (adr r3, 80097a8 <__ieee754_acos+0x2c0>)
 80096ec:	e9d3 2300 	ldrd	r2, r3, [r3]
 80096f0:	f7f6 fdc2 	bl	8000278 <__aeabi_dsub>
 80096f4:	4622      	mov	r2, r4
 80096f6:	462b      	mov	r3, r5
 80096f8:	f7f6 ff76 	bl	80005e8 <__aeabi_dmul>
 80096fc:	a32c      	add	r3, pc, #176	; (adr r3, 80097b0 <__ieee754_acos+0x2c8>)
 80096fe:	e9d3 2300 	ldrd	r2, r3, [r3]
 8009702:	f7f6 fdbb 	bl	800027c <__adddf3>
 8009706:	4622      	mov	r2, r4
 8009708:	462b      	mov	r3, r5
 800970a:	f7f6 ff6d 	bl	80005e8 <__aeabi_dmul>
 800970e:	a32a      	add	r3, pc, #168	; (adr r3, 80097b8 <__ieee754_acos+0x2d0>)
 8009710:	e9d3 2300 	ldrd	r2, r3, [r3]
 8009714:	f7f6 fdb0 	bl	8000278 <__aeabi_dsub>
 8009718:	4622      	mov	r2, r4
 800971a:	462b      	mov	r3, r5
 800971c:	f7f6 ff64 	bl	80005e8 <__aeabi_dmul>
 8009720:	4b2e      	ldr	r3, [pc, #184]	; (80097dc <__ieee754_acos+0x2f4>)
 8009722:	2200      	movs	r2, #0
 8009724:	f7f6 fdaa 	bl	800027c <__adddf3>
 8009728:	4602      	mov	r2, r0
 800972a:	460b      	mov	r3, r1
 800972c:	4640      	mov	r0, r8
 800972e:	4649      	mov	r1, r9
 8009730:	f7f7 f884 	bl	800083c <__aeabi_ddiv>
 8009734:	4632      	mov	r2, r6
 8009736:	463b      	mov	r3, r7
 8009738:	f7f6 ff56 	bl	80005e8 <__aeabi_dmul>
 800973c:	a320      	add	r3, pc, #128	; (adr r3, 80097c0 <__ieee754_acos+0x2d8>)
 800973e:	e9d3 2300 	ldrd	r2, r3, [r3]
 8009742:	f7f6 fd99 	bl	8000278 <__aeabi_dsub>
 8009746:	4632      	mov	r2, r6
 8009748:	463b      	mov	r3, r7
 800974a:	f7f6 fd97 	bl	800027c <__adddf3>
 800974e:	4602      	mov	r2, r0
 8009750:	460b      	mov	r3, r1
 8009752:	f7f6 fd93 	bl	800027c <__adddf3>
 8009756:	4602      	mov	r2, r0
 8009758:	460b      	mov	r3, r1
 800975a:	a103      	add	r1, pc, #12	; (adr r1, 8009768 <__ieee754_acos+0x280>)
 800975c:	e9d1 0100 	ldrd	r0, r1, [r1]
 8009760:	e76f      	b.n	8009642 <__ieee754_acos+0x15a>
 8009762:	bf00      	nop
 8009764:	f3af 8000 	nop.w
 8009768:	54442d18 	.word	0x54442d18
 800976c:	400921fb 	.word	0x400921fb
 8009770:	0dfdf709 	.word	0x0dfdf709
 8009774:	3f023de1 	.word	0x3f023de1
 8009778:	7501b288 	.word	0x7501b288
 800977c:	3f49efe0 	.word	0x3f49efe0
 8009780:	b5688f3b 	.word	0xb5688f3b
 8009784:	3fa48228 	.word	0x3fa48228
 8009788:	0e884455 	.word	0x0e884455
 800978c:	3fc9c155 	.word	0x3fc9c155
 8009790:	03eb6f7d 	.word	0x03eb6f7d
 8009794:	3fd4d612 	.word	0x3fd4d612
 8009798:	55555555 	.word	0x55555555
 800979c:	3fc55555 	.word	0x3fc55555
 80097a0:	b12e9282 	.word	0xb12e9282
 80097a4:	3fb3b8c5 	.word	0x3fb3b8c5
 80097a8:	1b8d0159 	.word	0x1b8d0159
 80097ac:	3fe6066c 	.word	0x3fe6066c
 80097b0:	9c598ac8 	.word	0x9c598ac8
 80097b4:	40002ae5 	.word	0x40002ae5
 80097b8:	1c8a2d4b 	.word	0x1c8a2d4b
 80097bc:	40033a27 	.word	0x40033a27
 80097c0:	33145c07 	.word	0x33145c07
 80097c4:	3c91a626 	.word	0x3c91a626
 80097c8:	54442d18 	.word	0x54442d18
 80097cc:	3ff921fb 	.word	0x3ff921fb
 80097d0:	3fefffff 	.word	0x3fefffff
 80097d4:	3fdfffff 	.word	0x3fdfffff
 80097d8:	3c600000 	.word	0x3c600000
 80097dc:	3ff00000 	.word	0x3ff00000
 80097e0:	3fe00000 	.word	0x3fe00000
 80097e4:	ee10 2a10 	vmov	r2, s0
 80097e8:	462b      	mov	r3, r5
 80097ea:	496d      	ldr	r1, [pc, #436]	; (80099a0 <__ieee754_acos+0x4b8>)
 80097ec:	2000      	movs	r0, #0
 80097ee:	f7f6 fd43 	bl	8000278 <__aeabi_dsub>
 80097f2:	4b6c      	ldr	r3, [pc, #432]	; (80099a4 <__ieee754_acos+0x4bc>)
 80097f4:	2200      	movs	r2, #0
 80097f6:	f7f6 fef7 	bl	80005e8 <__aeabi_dmul>
 80097fa:	4604      	mov	r4, r0
 80097fc:	460d      	mov	r5, r1
 80097fe:	ec45 4b10 	vmov	d0, r4, r5
 8009802:	f000 fdbd 	bl	800a380 <__ieee754_sqrt>
 8009806:	a34e      	add	r3, pc, #312	; (adr r3, 8009940 <__ieee754_acos+0x458>)
 8009808:	e9d3 2300 	ldrd	r2, r3, [r3]
 800980c:	4620      	mov	r0, r4
 800980e:	4629      	mov	r1, r5
 8009810:	ec59 8b10 	vmov	r8, r9, d0
 8009814:	f7f6 fee8 	bl	80005e8 <__aeabi_dmul>
 8009818:	a34b      	add	r3, pc, #300	; (adr r3, 8009948 <__ieee754_acos+0x460>)
 800981a:	e9d3 2300 	ldrd	r2, r3, [r3]
 800981e:	f7f6 fd2d 	bl	800027c <__adddf3>
 8009822:	4622      	mov	r2, r4
 8009824:	462b      	mov	r3, r5
 8009826:	f7f6 fedf 	bl	80005e8 <__aeabi_dmul>
 800982a:	a349      	add	r3, pc, #292	; (adr r3, 8009950 <__ieee754_acos+0x468>)
 800982c:	e9d3 2300 	ldrd	r2, r3, [r3]
 8009830:	f7f6 fd22 	bl	8000278 <__aeabi_dsub>
 8009834:	4622      	mov	r2, r4
 8009836:	462b      	mov	r3, r5
 8009838:	f7f6 fed6 	bl	80005e8 <__aeabi_dmul>
 800983c:	a346      	add	r3, pc, #280	; (adr r3, 8009958 <__ieee754_acos+0x470>)
 800983e:	e9d3 2300 	ldrd	r2, r3, [r3]
 8009842:	f7f6 fd1b 	bl	800027c <__adddf3>
 8009846:	4622      	mov	r2, r4
 8009848:	462b      	mov	r3, r5
 800984a:	f7f6 fecd 	bl	80005e8 <__aeabi_dmul>
 800984e:	a344      	add	r3, pc, #272	; (adr r3, 8009960 <__ieee754_acos+0x478>)
 8009850:	e9d3 2300 	ldrd	r2, r3, [r3]
 8009854:	f7f6 fd10 	bl	8000278 <__aeabi_dsub>
 8009858:	4622      	mov	r2, r4
 800985a:	462b      	mov	r3, r5
 800985c:	f7f6 fec4 	bl	80005e8 <__aeabi_dmul>
 8009860:	a341      	add	r3, pc, #260	; (adr r3, 8009968 <__ieee754_acos+0x480>)
 8009862:	e9d3 2300 	ldrd	r2, r3, [r3]
 8009866:	f7f6 fd09 	bl	800027c <__adddf3>
 800986a:	4622      	mov	r2, r4
 800986c:	462b      	mov	r3, r5
 800986e:	f7f6 febb 	bl	80005e8 <__aeabi_dmul>
 8009872:	a33f      	add	r3, pc, #252	; (adr r3, 8009970 <__ieee754_acos+0x488>)
 8009874:	e9d3 2300 	ldrd	r2, r3, [r3]
 8009878:	4682      	mov	sl, r0
 800987a:	468b      	mov	fp, r1
 800987c:	4620      	mov	r0, r4
 800987e:	4629      	mov	r1, r5
 8009880:	f7f6 feb2 	bl	80005e8 <__aeabi_dmul>
 8009884:	a33c      	add	r3, pc, #240	; (adr r3, 8009978 <__ieee754_acos+0x490>)
 8009886:	e9d3 2300 	ldrd	r2, r3, [r3]
 800988a:	f7f6 fcf5 	bl	8000278 <__aeabi_dsub>
 800988e:	4622      	mov	r2, r4
 8009890:	462b      	mov	r3, r5
 8009892:	f7f6 fea9 	bl	80005e8 <__aeabi_dmul>
 8009896:	a33a      	add	r3, pc, #232	; (adr r3, 8009980 <__ieee754_acos+0x498>)
 8009898:	e9d3 2300 	ldrd	r2, r3, [r3]
 800989c:	f7f6 fcee 	bl	800027c <__adddf3>
 80098a0:	4622      	mov	r2, r4
 80098a2:	462b      	mov	r3, r5
 80098a4:	f7f6 fea0 	bl	80005e8 <__aeabi_dmul>
 80098a8:	a337      	add	r3, pc, #220	; (adr r3, 8009988 <__ieee754_acos+0x4a0>)
 80098aa:	e9d3 2300 	ldrd	r2, r3, [r3]
 80098ae:	f7f6 fce3 	bl	8000278 <__aeabi_dsub>
 80098b2:	4622      	mov	r2, r4
 80098b4:	462b      	mov	r3, r5
 80098b6:	f7f6 fe97 	bl	80005e8 <__aeabi_dmul>
 80098ba:	4b39      	ldr	r3, [pc, #228]	; (80099a0 <__ieee754_acos+0x4b8>)
 80098bc:	2200      	movs	r2, #0
 80098be:	f7f6 fcdd 	bl	800027c <__adddf3>
 80098c2:	4602      	mov	r2, r0
 80098c4:	460b      	mov	r3, r1
 80098c6:	4650      	mov	r0, sl
 80098c8:	4659      	mov	r1, fp
 80098ca:	f7f6 ffb7 	bl	800083c <__aeabi_ddiv>
 80098ce:	4642      	mov	r2, r8
 80098d0:	464b      	mov	r3, r9
 80098d2:	f7f6 fe89 	bl	80005e8 <__aeabi_dmul>
 80098d6:	2600      	movs	r6, #0
 80098d8:	4682      	mov	sl, r0
 80098da:	468b      	mov	fp, r1
 80098dc:	4632      	mov	r2, r6
 80098de:	464b      	mov	r3, r9
 80098e0:	4630      	mov	r0, r6
 80098e2:	4649      	mov	r1, r9
 80098e4:	f7f6 fe80 	bl	80005e8 <__aeabi_dmul>
 80098e8:	4602      	mov	r2, r0
 80098ea:	460b      	mov	r3, r1
 80098ec:	4620      	mov	r0, r4
 80098ee:	4629      	mov	r1, r5
 80098f0:	f7f6 fcc2 	bl	8000278 <__aeabi_dsub>
 80098f4:	4632      	mov	r2, r6
 80098f6:	4604      	mov	r4, r0
 80098f8:	460d      	mov	r5, r1
 80098fa:	464b      	mov	r3, r9
 80098fc:	4640      	mov	r0, r8
 80098fe:	4649      	mov	r1, r9
 8009900:	f7f6 fcbc 	bl	800027c <__adddf3>
 8009904:	4602      	mov	r2, r0
 8009906:	460b      	mov	r3, r1
 8009908:	4620      	mov	r0, r4
 800990a:	4629      	mov	r1, r5
 800990c:	f7f6 ff96 	bl	800083c <__aeabi_ddiv>
 8009910:	4602      	mov	r2, r0
 8009912:	460b      	mov	r3, r1
 8009914:	4650      	mov	r0, sl
 8009916:	4659      	mov	r1, fp
 8009918:	f7f6 fcb0 	bl	800027c <__adddf3>
 800991c:	4632      	mov	r2, r6
 800991e:	464b      	mov	r3, r9
 8009920:	f7f6 fcac 	bl	800027c <__adddf3>
 8009924:	4602      	mov	r2, r0
 8009926:	460b      	mov	r3, r1
 8009928:	f7f6 fca8 	bl	800027c <__adddf3>
 800992c:	e5fe      	b.n	800952c <__ieee754_acos+0x44>
 800992e:	ed9f 0b18 	vldr	d0, [pc, #96]	; 8009990 <__ieee754_acos+0x4a8>
 8009932:	e5ed      	b.n	8009510 <__ieee754_acos+0x28>
 8009934:	ed9f 0b18 	vldr	d0, [pc, #96]	; 8009998 <__ieee754_acos+0x4b0>
 8009938:	e5ea      	b.n	8009510 <__ieee754_acos+0x28>
 800993a:	bf00      	nop
 800993c:	f3af 8000 	nop.w
 8009940:	0dfdf709 	.word	0x0dfdf709
 8009944:	3f023de1 	.word	0x3f023de1
 8009948:	7501b288 	.word	0x7501b288
 800994c:	3f49efe0 	.word	0x3f49efe0
 8009950:	b5688f3b 	.word	0xb5688f3b
 8009954:	3fa48228 	.word	0x3fa48228
 8009958:	0e884455 	.word	0x0e884455
 800995c:	3fc9c155 	.word	0x3fc9c155
 8009960:	03eb6f7d 	.word	0x03eb6f7d
 8009964:	3fd4d612 	.word	0x3fd4d612
 8009968:	55555555 	.word	0x55555555
 800996c:	3fc55555 	.word	0x3fc55555
 8009970:	b12e9282 	.word	0xb12e9282
 8009974:	3fb3b8c5 	.word	0x3fb3b8c5
 8009978:	1b8d0159 	.word	0x1b8d0159
 800997c:	3fe6066c 	.word	0x3fe6066c
 8009980:	9c598ac8 	.word	0x9c598ac8
 8009984:	40002ae5 	.word	0x40002ae5
 8009988:	1c8a2d4b 	.word	0x1c8a2d4b
 800998c:	40033a27 	.word	0x40033a27
	...
 8009998:	54442d18 	.word	0x54442d18
 800999c:	3ff921fb 	.word	0x3ff921fb
 80099a0:	3ff00000 	.word	0x3ff00000
 80099a4:	3fe00000 	.word	0x3fe00000

080099a8 <__ieee754_asin>:
 80099a8:	e92d 4ff0 	stmdb	sp!, {r4, r5, r6, r7, r8, r9, sl, fp, lr}
 80099ac:	ed2d 8b04 	vpush	{d8-d9}
 80099b0:	ec55 4b10 	vmov	r4, r5, d0
 80099b4:	4bcc      	ldr	r3, [pc, #816]	; (8009ce8 <__ieee754_asin+0x340>)
 80099b6:	b083      	sub	sp, #12
 80099b8:	f025 4800 	bic.w	r8, r5, #2147483648	; 0x80000000
 80099bc:	4598      	cmp	r8, r3
 80099be:	9501      	str	r5, [sp, #4]
 80099c0:	dd35      	ble.n	8009a2e <__ieee754_asin+0x86>
 80099c2:	ee10 3a10 	vmov	r3, s0
 80099c6:	f108 4840 	add.w	r8, r8, #3221225472	; 0xc0000000
 80099ca:	f508 1880 	add.w	r8, r8, #1048576	; 0x100000
 80099ce:	ea58 0303 	orrs.w	r3, r8, r3
 80099d2:	d117      	bne.n	8009a04 <__ieee754_asin+0x5c>
 80099d4:	a3aa      	add	r3, pc, #680	; (adr r3, 8009c80 <__ieee754_asin+0x2d8>)
 80099d6:	e9d3 2300 	ldrd	r2, r3, [r3]
 80099da:	ee10 0a10 	vmov	r0, s0
 80099de:	4629      	mov	r1, r5
 80099e0:	f7f6 fe02 	bl	80005e8 <__aeabi_dmul>
 80099e4:	a3a8      	add	r3, pc, #672	; (adr r3, 8009c88 <__ieee754_asin+0x2e0>)
 80099e6:	e9d3 2300 	ldrd	r2, r3, [r3]
 80099ea:	4606      	mov	r6, r0
 80099ec:	460f      	mov	r7, r1
 80099ee:	4620      	mov	r0, r4
 80099f0:	4629      	mov	r1, r5
 80099f2:	f7f6 fdf9 	bl	80005e8 <__aeabi_dmul>
 80099f6:	4602      	mov	r2, r0
 80099f8:	460b      	mov	r3, r1
 80099fa:	4630      	mov	r0, r6
 80099fc:	4639      	mov	r1, r7
 80099fe:	f7f6 fc3d 	bl	800027c <__adddf3>
 8009a02:	e00b      	b.n	8009a1c <__ieee754_asin+0x74>
 8009a04:	ee10 2a10 	vmov	r2, s0
 8009a08:	462b      	mov	r3, r5
 8009a0a:	ee10 0a10 	vmov	r0, s0
 8009a0e:	4629      	mov	r1, r5
 8009a10:	f7f6 fc32 	bl	8000278 <__aeabi_dsub>
 8009a14:	4602      	mov	r2, r0
 8009a16:	460b      	mov	r3, r1
 8009a18:	f7f6 ff10 	bl	800083c <__aeabi_ddiv>
 8009a1c:	4604      	mov	r4, r0
 8009a1e:	460d      	mov	r5, r1
 8009a20:	ec45 4b10 	vmov	d0, r4, r5
 8009a24:	b003      	add	sp, #12
 8009a26:	ecbd 8b04 	vpop	{d8-d9}
 8009a2a:	e8bd 8ff0 	ldmia.w	sp!, {r4, r5, r6, r7, r8, r9, sl, fp, pc}
 8009a2e:	4baf      	ldr	r3, [pc, #700]	; (8009cec <__ieee754_asin+0x344>)
 8009a30:	4598      	cmp	r8, r3
 8009a32:	dc11      	bgt.n	8009a58 <__ieee754_asin+0xb0>
 8009a34:	f1b8 5f79 	cmp.w	r8, #1044381696	; 0x3e400000
 8009a38:	f280 80ae 	bge.w	8009b98 <__ieee754_asin+0x1f0>
 8009a3c:	a394      	add	r3, pc, #592	; (adr r3, 8009c90 <__ieee754_asin+0x2e8>)
 8009a3e:	e9d3 2300 	ldrd	r2, r3, [r3]
 8009a42:	ee10 0a10 	vmov	r0, s0
 8009a46:	4629      	mov	r1, r5
 8009a48:	f7f6 fc18 	bl	800027c <__adddf3>
 8009a4c:	4ba8      	ldr	r3, [pc, #672]	; (8009cf0 <__ieee754_asin+0x348>)
 8009a4e:	2200      	movs	r2, #0
 8009a50:	f7f7 f85a 	bl	8000b08 <__aeabi_dcmpgt>
 8009a54:	2800      	cmp	r0, #0
 8009a56:	d1e3      	bne.n	8009a20 <__ieee754_asin+0x78>
 8009a58:	ec45 4b10 	vmov	d0, r4, r5
 8009a5c:	f001 fbbc 	bl	800b1d8 <fabs>
 8009a60:	49a3      	ldr	r1, [pc, #652]	; (8009cf0 <__ieee754_asin+0x348>)
 8009a62:	ec53 2b10 	vmov	r2, r3, d0
 8009a66:	2000      	movs	r0, #0
 8009a68:	f7f6 fc06 	bl	8000278 <__aeabi_dsub>
 8009a6c:	4ba1      	ldr	r3, [pc, #644]	; (8009cf4 <__ieee754_asin+0x34c>)
 8009a6e:	2200      	movs	r2, #0
 8009a70:	f7f6 fdba 	bl	80005e8 <__aeabi_dmul>
 8009a74:	a388      	add	r3, pc, #544	; (adr r3, 8009c98 <__ieee754_asin+0x2f0>)
 8009a76:	e9d3 2300 	ldrd	r2, r3, [r3]
 8009a7a:	4604      	mov	r4, r0
 8009a7c:	460d      	mov	r5, r1
 8009a7e:	f7f6 fdb3 	bl	80005e8 <__aeabi_dmul>
 8009a82:	a387      	add	r3, pc, #540	; (adr r3, 8009ca0 <__ieee754_asin+0x2f8>)
 8009a84:	e9d3 2300 	ldrd	r2, r3, [r3]
 8009a88:	f7f6 fbf8 	bl	800027c <__adddf3>
 8009a8c:	4622      	mov	r2, r4
 8009a8e:	462b      	mov	r3, r5
 8009a90:	f7f6 fdaa 	bl	80005e8 <__aeabi_dmul>
 8009a94:	a384      	add	r3, pc, #528	; (adr r3, 8009ca8 <__ieee754_asin+0x300>)
 8009a96:	e9d3 2300 	ldrd	r2, r3, [r3]
 8009a9a:	f7f6 fbed 	bl	8000278 <__aeabi_dsub>
 8009a9e:	4622      	mov	r2, r4
 8009aa0:	462b      	mov	r3, r5
 8009aa2:	f7f6 fda1 	bl	80005e8 <__aeabi_dmul>
 8009aa6:	a382      	add	r3, pc, #520	; (adr r3, 8009cb0 <__ieee754_asin+0x308>)
 8009aa8:	e9d3 2300 	ldrd	r2, r3, [r3]
 8009aac:	f7f6 fbe6 	bl	800027c <__adddf3>
 8009ab0:	4622      	mov	r2, r4
 8009ab2:	462b      	mov	r3, r5
 8009ab4:	f7f6 fd98 	bl	80005e8 <__aeabi_dmul>
 8009ab8:	a37f      	add	r3, pc, #508	; (adr r3, 8009cb8 <__ieee754_asin+0x310>)
 8009aba:	e9d3 2300 	ldrd	r2, r3, [r3]
 8009abe:	f7f6 fbdb 	bl	8000278 <__aeabi_dsub>
 8009ac2:	4622      	mov	r2, r4
 8009ac4:	462b      	mov	r3, r5
 8009ac6:	f7f6 fd8f 	bl	80005e8 <__aeabi_dmul>
 8009aca:	a37d      	add	r3, pc, #500	; (adr r3, 8009cc0 <__ieee754_asin+0x318>)
 8009acc:	e9d3 2300 	ldrd	r2, r3, [r3]
 8009ad0:	f7f6 fbd4 	bl	800027c <__adddf3>
 8009ad4:	4622      	mov	r2, r4
 8009ad6:	462b      	mov	r3, r5
 8009ad8:	f7f6 fd86 	bl	80005e8 <__aeabi_dmul>
 8009adc:	a37a      	add	r3, pc, #488	; (adr r3, 8009cc8 <__ieee754_asin+0x320>)
 8009ade:	e9d3 2300 	ldrd	r2, r3, [r3]
 8009ae2:	ec41 0b18 	vmov	d8, r0, r1
 8009ae6:	4620      	mov	r0, r4
 8009ae8:	4629      	mov	r1, r5
 8009aea:	f7f6 fd7d 	bl	80005e8 <__aeabi_dmul>
 8009aee:	a378      	add	r3, pc, #480	; (adr r3, 8009cd0 <__ieee754_asin+0x328>)
 8009af0:	e9d3 2300 	ldrd	r2, r3, [r3]
 8009af4:	f7f6 fbc0 	bl	8000278 <__aeabi_dsub>
 8009af8:	4622      	mov	r2, r4
 8009afa:	462b      	mov	r3, r5
 8009afc:	f7f6 fd74 	bl	80005e8 <__aeabi_dmul>
 8009b00:	a375      	add	r3, pc, #468	; (adr r3, 8009cd8 <__ieee754_asin+0x330>)
 8009b02:	e9d3 2300 	ldrd	r2, r3, [r3]
 8009b06:	f7f6 fbb9 	bl	800027c <__adddf3>
 8009b0a:	4622      	mov	r2, r4
 8009b0c:	462b      	mov	r3, r5
 8009b0e:	f7f6 fd6b 	bl	80005e8 <__aeabi_dmul>
 8009b12:	a373      	add	r3, pc, #460	; (adr r3, 8009ce0 <__ieee754_asin+0x338>)
 8009b14:	e9d3 2300 	ldrd	r2, r3, [r3]
 8009b18:	f7f6 fbae 	bl	8000278 <__aeabi_dsub>
 8009b1c:	4622      	mov	r2, r4
 8009b1e:	462b      	mov	r3, r5
 8009b20:	f7f6 fd62 	bl	80005e8 <__aeabi_dmul>
 8009b24:	4b72      	ldr	r3, [pc, #456]	; (8009cf0 <__ieee754_asin+0x348>)
 8009b26:	2200      	movs	r2, #0
 8009b28:	f7f6 fba8 	bl	800027c <__adddf3>
 8009b2c:	ec45 4b10 	vmov	d0, r4, r5
 8009b30:	4606      	mov	r6, r0
 8009b32:	460f      	mov	r7, r1
 8009b34:	f000 fc24 	bl	800a380 <__ieee754_sqrt>
 8009b38:	4b6f      	ldr	r3, [pc, #444]	; (8009cf8 <__ieee754_asin+0x350>)
 8009b3a:	4598      	cmp	r8, r3
 8009b3c:	ec5b ab10 	vmov	sl, fp, d0
 8009b40:	f340 80dc 	ble.w	8009cfc <__ieee754_asin+0x354>
 8009b44:	4632      	mov	r2, r6
 8009b46:	463b      	mov	r3, r7
 8009b48:	ec51 0b18 	vmov	r0, r1, d8
 8009b4c:	f7f6 fe76 	bl	800083c <__aeabi_ddiv>
 8009b50:	4652      	mov	r2, sl
 8009b52:	465b      	mov	r3, fp
 8009b54:	f7f6 fd48 	bl	80005e8 <__aeabi_dmul>
 8009b58:	4652      	mov	r2, sl
 8009b5a:	465b      	mov	r3, fp
 8009b5c:	f7f6 fb8e 	bl	800027c <__adddf3>
 8009b60:	4602      	mov	r2, r0
 8009b62:	460b      	mov	r3, r1
 8009b64:	f7f6 fb8a 	bl	800027c <__adddf3>
 8009b68:	a347      	add	r3, pc, #284	; (adr r3, 8009c88 <__ieee754_asin+0x2e0>)
 8009b6a:	e9d3 2300 	ldrd	r2, r3, [r3]
 8009b6e:	f7f6 fb83 	bl	8000278 <__aeabi_dsub>
 8009b72:	4602      	mov	r2, r0
 8009b74:	460b      	mov	r3, r1
 8009b76:	a142      	add	r1, pc, #264	; (adr r1, 8009c80 <__ieee754_asin+0x2d8>)
 8009b78:	e9d1 0100 	ldrd	r0, r1, [r1]
 8009b7c:	f7f6 fb7c 	bl	8000278 <__aeabi_dsub>
 8009b80:	9b01      	ldr	r3, [sp, #4]
 8009b82:	2b00      	cmp	r3, #0
 8009b84:	bfdc      	itt	le
 8009b86:	4602      	movle	r2, r0
 8009b88:	f101 4300 	addle.w	r3, r1, #2147483648	; 0x80000000
 8009b8c:	4604      	mov	r4, r0
 8009b8e:	460d      	mov	r5, r1
 8009b90:	bfdc      	itt	le
 8009b92:	4614      	movle	r4, r2
 8009b94:	461d      	movle	r5, r3
 8009b96:	e743      	b.n	8009a20 <__ieee754_asin+0x78>
 8009b98:	ee10 2a10 	vmov	r2, s0
 8009b9c:	ee10 0a10 	vmov	r0, s0
 8009ba0:	462b      	mov	r3, r5
 8009ba2:	4629      	mov	r1, r5
 8009ba4:	f7f6 fd20 	bl	80005e8 <__aeabi_dmul>
 8009ba8:	a33b      	add	r3, pc, #236	; (adr r3, 8009c98 <__ieee754_asin+0x2f0>)
 8009baa:	e9d3 2300 	ldrd	r2, r3, [r3]
 8009bae:	4606      	mov	r6, r0
 8009bb0:	460f      	mov	r7, r1
 8009bb2:	f7f6 fd19 	bl	80005e8 <__aeabi_dmul>
 8009bb6:	a33a      	add	r3, pc, #232	; (adr r3, 8009ca0 <__ieee754_asin+0x2f8>)
 8009bb8:	e9d3 2300 	ldrd	r2, r3, [r3]
 8009bbc:	f7f6 fb5e 	bl	800027c <__adddf3>
 8009bc0:	4632      	mov	r2, r6
 8009bc2:	463b      	mov	r3, r7
 8009bc4:	f7f6 fd10 	bl	80005e8 <__aeabi_dmul>
 8009bc8:	a337      	add	r3, pc, #220	; (adr r3, 8009ca8 <__ieee754_asin+0x300>)
 8009bca:	e9d3 2300 	ldrd	r2, r3, [r3]
 8009bce:	f7f6 fb53 	bl	8000278 <__aeabi_dsub>
 8009bd2:	4632      	mov	r2, r6
 8009bd4:	463b      	mov	r3, r7
 8009bd6:	f7f6 fd07 	bl	80005e8 <__aeabi_dmul>
 8009bda:	a335      	add	r3, pc, #212	; (adr r3, 8009cb0 <__ieee754_asin+0x308>)
 8009bdc:	e9d3 2300 	ldrd	r2, r3, [r3]
 8009be0:	f7f6 fb4c 	bl	800027c <__adddf3>
 8009be4:	4632      	mov	r2, r6
 8009be6:	463b      	mov	r3, r7
 8009be8:	f7f6 fcfe 	bl	80005e8 <__aeabi_dmul>
 8009bec:	a332      	add	r3, pc, #200	; (adr r3, 8009cb8 <__ieee754_asin+0x310>)
 8009bee:	e9d3 2300 	ldrd	r2, r3, [r3]
 8009bf2:	f7f6 fb41 	bl	8000278 <__aeabi_dsub>
 8009bf6:	4632      	mov	r2, r6
 8009bf8:	463b      	mov	r3, r7
 8009bfa:	f7f6 fcf5 	bl	80005e8 <__aeabi_dmul>
 8009bfe:	a330      	add	r3, pc, #192	; (adr r3, 8009cc0 <__ieee754_asin+0x318>)
 8009c00:	e9d3 2300 	ldrd	r2, r3, [r3]
 8009c04:	f7f6 fb3a 	bl	800027c <__adddf3>
 8009c08:	4632      	mov	r2, r6
 8009c0a:	463b      	mov	r3, r7
 8009c0c:	f7f6 fcec 	bl	80005e8 <__aeabi_dmul>
 8009c10:	a32d      	add	r3, pc, #180	; (adr r3, 8009cc8 <__ieee754_asin+0x320>)
 8009c12:	e9d3 2300 	ldrd	r2, r3, [r3]
 8009c16:	4680      	mov	r8, r0
 8009c18:	4689      	mov	r9, r1
 8009c1a:	4630      	mov	r0, r6
 8009c1c:	4639      	mov	r1, r7
 8009c1e:	f7f6 fce3 	bl	80005e8 <__aeabi_dmul>
 8009c22:	a32b      	add	r3, pc, #172	; (adr r3, 8009cd0 <__ieee754_asin+0x328>)
 8009c24:	e9d3 2300 	ldrd	r2, r3, [r3]
 8009c28:	f7f6 fb26 	bl	8000278 <__aeabi_dsub>
 8009c2c:	4632      	mov	r2, r6
 8009c2e:	463b      	mov	r3, r7
 8009c30:	f7f6 fcda 	bl	80005e8 <__aeabi_dmul>
 8009c34:	a328      	add	r3, pc, #160	; (adr r3, 8009cd8 <__ieee754_asin+0x330>)
 8009c36:	e9d3 2300 	ldrd	r2, r3, [r3]
 8009c3a:	f7f6 fb1f 	bl	800027c <__adddf3>
 8009c3e:	4632      	mov	r2, r6
 8009c40:	463b      	mov	r3, r7
 8009c42:	f7f6 fcd1 	bl	80005e8 <__aeabi_dmul>
 8009c46:	a326      	add	r3, pc, #152	; (adr r3, 8009ce0 <__ieee754_asin+0x338>)
 8009c48:	e9d3 2300 	ldrd	r2, r3, [r3]
 8009c4c:	f7f6 fb14 	bl	8000278 <__aeabi_dsub>
 8009c50:	4632      	mov	r2, r6
 8009c52:	463b      	mov	r3, r7
 8009c54:	f7f6 fcc8 	bl	80005e8 <__aeabi_dmul>
 8009c58:	4b25      	ldr	r3, [pc, #148]	; (8009cf0 <__ieee754_asin+0x348>)
 8009c5a:	2200      	movs	r2, #0
 8009c5c:	f7f6 fb0e 	bl	800027c <__adddf3>
 8009c60:	4602      	mov	r2, r0
 8009c62:	460b      	mov	r3, r1
 8009c64:	4640      	mov	r0, r8
 8009c66:	4649      	mov	r1, r9
 8009c68:	f7f6 fde8 	bl	800083c <__aeabi_ddiv>
 8009c6c:	4622      	mov	r2, r4
 8009c6e:	462b      	mov	r3, r5
 8009c70:	f7f6 fcba 	bl	80005e8 <__aeabi_dmul>
 8009c74:	4602      	mov	r2, r0
 8009c76:	460b      	mov	r3, r1
 8009c78:	4620      	mov	r0, r4
 8009c7a:	4629      	mov	r1, r5
 8009c7c:	e6bf      	b.n	80099fe <__ieee754_asin+0x56>
 8009c7e:	bf00      	nop
 8009c80:	54442d18 	.word	0x54442d18
 8009c84:	3ff921fb 	.word	0x3ff921fb
 8009c88:	33145c07 	.word	0x33145c07
 8009c8c:	3c91a626 	.word	0x3c91a626
 8009c90:	8800759c 	.word	0x8800759c
 8009c94:	7e37e43c 	.word	0x7e37e43c
 8009c98:	0dfdf709 	.word	0x0dfdf709
 8009c9c:	3f023de1 	.word	0x3f023de1
 8009ca0:	7501b288 	.word	0x7501b288
 8009ca4:	3f49efe0 	.word	0x3f49efe0
 8009ca8:	b5688f3b 	.word	0xb5688f3b
 8009cac:	3fa48228 	.word	0x3fa48228
 8009cb0:	0e884455 	.word	0x0e884455
 8009cb4:	3fc9c155 	.word	0x3fc9c155
 8009cb8:	03eb6f7d 	.word	0x03eb6f7d
 8009cbc:	3fd4d612 	.word	0x3fd4d612
 8009cc0:	55555555 	.word	0x55555555
 8009cc4:	3fc55555 	.word	0x3fc55555
 8009cc8:	b12e9282 	.word	0xb12e9282
 8009ccc:	3fb3b8c5 	.word	0x3fb3b8c5
 8009cd0:	1b8d0159 	.word	0x1b8d0159
 8009cd4:	3fe6066c 	.word	0x3fe6066c
 8009cd8:	9c598ac8 	.word	0x9c598ac8
 8009cdc:	40002ae5 	.word	0x40002ae5
 8009ce0:	1c8a2d4b 	.word	0x1c8a2d4b
 8009ce4:	40033a27 	.word	0x40033a27
 8009ce8:	3fefffff 	.word	0x3fefffff
 8009cec:	3fdfffff 	.word	0x3fdfffff
 8009cf0:	3ff00000 	.word	0x3ff00000
 8009cf4:	3fe00000 	.word	0x3fe00000
 8009cf8:	3fef3332 	.word	0x3fef3332
 8009cfc:	ee10 2a10 	vmov	r2, s0
 8009d00:	ee10 0a10 	vmov	r0, s0
 8009d04:	465b      	mov	r3, fp
 8009d06:	4659      	mov	r1, fp
 8009d08:	f7f6 fab8 	bl	800027c <__adddf3>
 8009d0c:	4632      	mov	r2, r6
 8009d0e:	463b      	mov	r3, r7
 8009d10:	ec41 0b19 	vmov	d9, r0, r1
 8009d14:	ec51 0b18 	vmov	r0, r1, d8
 8009d18:	f7f6 fd90 	bl	800083c <__aeabi_ddiv>
 8009d1c:	4602      	mov	r2, r0
 8009d1e:	460b      	mov	r3, r1
 8009d20:	ec51 0b19 	vmov	r0, r1, d9
 8009d24:	f7f6 fc60 	bl	80005e8 <__aeabi_dmul>
 8009d28:	f04f 0800 	mov.w	r8, #0
 8009d2c:	4606      	mov	r6, r0
 8009d2e:	460f      	mov	r7, r1
 8009d30:	4642      	mov	r2, r8
 8009d32:	465b      	mov	r3, fp
 8009d34:	4640      	mov	r0, r8
 8009d36:	4659      	mov	r1, fp
 8009d38:	f7f6 fc56 	bl	80005e8 <__aeabi_dmul>
 8009d3c:	4602      	mov	r2, r0
 8009d3e:	460b      	mov	r3, r1
 8009d40:	4620      	mov	r0, r4
 8009d42:	4629      	mov	r1, r5
 8009d44:	f7f6 fa98 	bl	8000278 <__aeabi_dsub>
 8009d48:	4642      	mov	r2, r8
 8009d4a:	4604      	mov	r4, r0
 8009d4c:	460d      	mov	r5, r1
 8009d4e:	465b      	mov	r3, fp
 8009d50:	4650      	mov	r0, sl
 8009d52:	4659      	mov	r1, fp
 8009d54:	f7f6 fa92 	bl	800027c <__adddf3>
 8009d58:	4602      	mov	r2, r0
 8009d5a:	460b      	mov	r3, r1
 8009d5c:	4620      	mov	r0, r4
 8009d5e:	4629      	mov	r1, r5
 8009d60:	f7f6 fd6c 	bl	800083c <__aeabi_ddiv>
 8009d64:	4602      	mov	r2, r0
 8009d66:	460b      	mov	r3, r1
 8009d68:	f7f6 fa88 	bl	800027c <__adddf3>
 8009d6c:	4602      	mov	r2, r0
 8009d6e:	460b      	mov	r3, r1
 8009d70:	a113      	add	r1, pc, #76	; (adr r1, 8009dc0 <__ieee754_asin+0x418>)
 8009d72:	e9d1 0100 	ldrd	r0, r1, [r1]
 8009d76:	f7f6 fa7f 	bl	8000278 <__aeabi_dsub>
 8009d7a:	4602      	mov	r2, r0
 8009d7c:	460b      	mov	r3, r1
 8009d7e:	4630      	mov	r0, r6
 8009d80:	4639      	mov	r1, r7
 8009d82:	f7f6 fa79 	bl	8000278 <__aeabi_dsub>
 8009d86:	4642      	mov	r2, r8
 8009d88:	4604      	mov	r4, r0
 8009d8a:	460d      	mov	r5, r1
 8009d8c:	465b      	mov	r3, fp
 8009d8e:	4640      	mov	r0, r8
 8009d90:	4659      	mov	r1, fp
 8009d92:	f7f6 fa73 	bl	800027c <__adddf3>
 8009d96:	4602      	mov	r2, r0
 8009d98:	460b      	mov	r3, r1
 8009d9a:	a10b      	add	r1, pc, #44	; (adr r1, 8009dc8 <__ieee754_asin+0x420>)
 8009d9c:	e9d1 0100 	ldrd	r0, r1, [r1]
 8009da0:	f7f6 fa6a 	bl	8000278 <__aeabi_dsub>
 8009da4:	4602      	mov	r2, r0
 8009da6:	460b      	mov	r3, r1
 8009da8:	4620      	mov	r0, r4
 8009daa:	4629      	mov	r1, r5
 8009dac:	f7f6 fa64 	bl	8000278 <__aeabi_dsub>
 8009db0:	4602      	mov	r2, r0
 8009db2:	460b      	mov	r3, r1
 8009db4:	a104      	add	r1, pc, #16	; (adr r1, 8009dc8 <__ieee754_asin+0x420>)
 8009db6:	e9d1 0100 	ldrd	r0, r1, [r1]
 8009dba:	e6df      	b.n	8009b7c <__ieee754_asin+0x1d4>
 8009dbc:	f3af 8000 	nop.w
 8009dc0:	33145c07 	.word	0x33145c07
 8009dc4:	3c91a626 	.word	0x3c91a626
 8009dc8:	54442d18 	.word	0x54442d18
 8009dcc:	3fe921fb 	.word	0x3fe921fb

08009dd0 <__ieee754_atan2>:
 8009dd0:	e92d 43f8 	stmdb	sp!, {r3, r4, r5, r6, r7, r8, r9, lr}
 8009dd4:	ec57 6b11 	vmov	r6, r7, d1
 8009dd8:	4273      	negs	r3, r6
 8009dda:	f8df e184 	ldr.w	lr, [pc, #388]	; 8009f60 <__ieee754_atan2+0x190>
 8009dde:	f027 4200 	bic.w	r2, r7, #2147483648	; 0x80000000
 8009de2:	4333      	orrs	r3, r6
 8009de4:	ea42 73d3 	orr.w	r3, r2, r3, lsr #31
 8009de8:	4573      	cmp	r3, lr
 8009dea:	ec51 0b10 	vmov	r0, r1, d0
 8009dee:	ee11 8a10 	vmov	r8, s2
 8009df2:	d80a      	bhi.n	8009e0a <__ieee754_atan2+0x3a>
 8009df4:	4244      	negs	r4, r0
 8009df6:	f021 4300 	bic.w	r3, r1, #2147483648	; 0x80000000
 8009dfa:	4304      	orrs	r4, r0
 8009dfc:	ea43 74d4 	orr.w	r4, r3, r4, lsr #31
 8009e00:	4574      	cmp	r4, lr
 8009e02:	ee10 9a10 	vmov	r9, s0
 8009e06:	468c      	mov	ip, r1
 8009e08:	d907      	bls.n	8009e1a <__ieee754_atan2+0x4a>
 8009e0a:	4632      	mov	r2, r6
 8009e0c:	463b      	mov	r3, r7
 8009e0e:	f7f6 fa35 	bl	800027c <__adddf3>
 8009e12:	ec41 0b10 	vmov	d0, r0, r1
 8009e16:	e8bd 83f8 	ldmia.w	sp!, {r3, r4, r5, r6, r7, r8, r9, pc}
 8009e1a:	f107 4440 	add.w	r4, r7, #3221225472	; 0xc0000000
 8009e1e:	f504 1480 	add.w	r4, r4, #1048576	; 0x100000
 8009e22:	4334      	orrs	r4, r6
 8009e24:	d103      	bne.n	8009e2e <__ieee754_atan2+0x5e>
 8009e26:	e8bd 43f8 	ldmia.w	sp!, {r3, r4, r5, r6, r7, r8, r9, lr}
 8009e2a:	f001 b835 	b.w	800ae98 <atan>
 8009e2e:	17bc      	asrs	r4, r7, #30
 8009e30:	f004 0402 	and.w	r4, r4, #2
 8009e34:	ea53 0909 	orrs.w	r9, r3, r9
 8009e38:	ea44 74d1 	orr.w	r4, r4, r1, lsr #31
 8009e3c:	d107      	bne.n	8009e4e <__ieee754_atan2+0x7e>
 8009e3e:	2c02      	cmp	r4, #2
 8009e40:	d060      	beq.n	8009f04 <__ieee754_atan2+0x134>
 8009e42:	2c03      	cmp	r4, #3
 8009e44:	d1e5      	bne.n	8009e12 <__ieee754_atan2+0x42>
 8009e46:	a142      	add	r1, pc, #264	; (adr r1, 8009f50 <__ieee754_atan2+0x180>)
 8009e48:	e9d1 0100 	ldrd	r0, r1, [r1]
 8009e4c:	e7e1      	b.n	8009e12 <__ieee754_atan2+0x42>
 8009e4e:	ea52 0808 	orrs.w	r8, r2, r8
 8009e52:	d106      	bne.n	8009e62 <__ieee754_atan2+0x92>
 8009e54:	f1bc 0f00 	cmp.w	ip, #0
 8009e58:	da5f      	bge.n	8009f1a <__ieee754_atan2+0x14a>
 8009e5a:	a13f      	add	r1, pc, #252	; (adr r1, 8009f58 <__ieee754_atan2+0x188>)
 8009e5c:	e9d1 0100 	ldrd	r0, r1, [r1]
 8009e60:	e7d7      	b.n	8009e12 <__ieee754_atan2+0x42>
 8009e62:	4572      	cmp	r2, lr
 8009e64:	d10f      	bne.n	8009e86 <__ieee754_atan2+0xb6>
 8009e66:	4293      	cmp	r3, r2
 8009e68:	f104 34ff 	add.w	r4, r4, #4294967295	; 0xffffffff
 8009e6c:	d107      	bne.n	8009e7e <__ieee754_atan2+0xae>
 8009e6e:	2c02      	cmp	r4, #2
 8009e70:	d84c      	bhi.n	8009f0c <__ieee754_atan2+0x13c>
 8009e72:	4b35      	ldr	r3, [pc, #212]	; (8009f48 <__ieee754_atan2+0x178>)
 8009e74:	eb03 04c4 	add.w	r4, r3, r4, lsl #3
 8009e78:	e9d4 0100 	ldrd	r0, r1, [r4]
 8009e7c:	e7c9      	b.n	8009e12 <__ieee754_atan2+0x42>
 8009e7e:	2c02      	cmp	r4, #2
 8009e80:	d848      	bhi.n	8009f14 <__ieee754_atan2+0x144>
 8009e82:	4b32      	ldr	r3, [pc, #200]	; (8009f4c <__ieee754_atan2+0x17c>)
 8009e84:	e7f6      	b.n	8009e74 <__ieee754_atan2+0xa4>
 8009e86:	4573      	cmp	r3, lr
 8009e88:	d0e4      	beq.n	8009e54 <__ieee754_atan2+0x84>
 8009e8a:	1a9b      	subs	r3, r3, r2
 8009e8c:	f1b3 7f74 	cmp.w	r3, #63963136	; 0x3d00000
 8009e90:	ea4f 5223 	mov.w	r2, r3, asr #20
 8009e94:	da1e      	bge.n	8009ed4 <__ieee754_atan2+0x104>
 8009e96:	2f00      	cmp	r7, #0
 8009e98:	da01      	bge.n	8009e9e <__ieee754_atan2+0xce>
 8009e9a:	323c      	adds	r2, #60	; 0x3c
 8009e9c:	db1e      	blt.n	8009edc <__ieee754_atan2+0x10c>
 8009e9e:	4632      	mov	r2, r6
 8009ea0:	463b      	mov	r3, r7
 8009ea2:	f7f6 fccb 	bl	800083c <__aeabi_ddiv>
 8009ea6:	ec41 0b10 	vmov	d0, r0, r1
 8009eaa:	f001 f995 	bl	800b1d8 <fabs>
 8009eae:	f000 fff3 	bl	800ae98 <atan>
 8009eb2:	ec51 0b10 	vmov	r0, r1, d0
 8009eb6:	2c01      	cmp	r4, #1
 8009eb8:	d013      	beq.n	8009ee2 <__ieee754_atan2+0x112>
 8009eba:	2c02      	cmp	r4, #2
 8009ebc:	d015      	beq.n	8009eea <__ieee754_atan2+0x11a>
 8009ebe:	2c00      	cmp	r4, #0
 8009ec0:	d0a7      	beq.n	8009e12 <__ieee754_atan2+0x42>
 8009ec2:	a319      	add	r3, pc, #100	; (adr r3, 8009f28 <__ieee754_atan2+0x158>)
 8009ec4:	e9d3 2300 	ldrd	r2, r3, [r3]
 8009ec8:	f7f6 f9d6 	bl	8000278 <__aeabi_dsub>
 8009ecc:	a318      	add	r3, pc, #96	; (adr r3, 8009f30 <__ieee754_atan2+0x160>)
 8009ece:	e9d3 2300 	ldrd	r2, r3, [r3]
 8009ed2:	e014      	b.n	8009efe <__ieee754_atan2+0x12e>
 8009ed4:	a118      	add	r1, pc, #96	; (adr r1, 8009f38 <__ieee754_atan2+0x168>)
 8009ed6:	e9d1 0100 	ldrd	r0, r1, [r1]
 8009eda:	e7ec      	b.n	8009eb6 <__ieee754_atan2+0xe6>
 8009edc:	2000      	movs	r0, #0
 8009ede:	2100      	movs	r1, #0
 8009ee0:	e7e9      	b.n	8009eb6 <__ieee754_atan2+0xe6>
 8009ee2:	f101 4300 	add.w	r3, r1, #2147483648	; 0x80000000
 8009ee6:	4619      	mov	r1, r3
 8009ee8:	e793      	b.n	8009e12 <__ieee754_atan2+0x42>
 8009eea:	a30f      	add	r3, pc, #60	; (adr r3, 8009f28 <__ieee754_atan2+0x158>)
 8009eec:	e9d3 2300 	ldrd	r2, r3, [r3]
 8009ef0:	f7f6 f9c2 	bl	8000278 <__aeabi_dsub>
 8009ef4:	4602      	mov	r2, r0
 8009ef6:	460b      	mov	r3, r1
 8009ef8:	a10d      	add	r1, pc, #52	; (adr r1, 8009f30 <__ieee754_atan2+0x160>)
 8009efa:	e9d1 0100 	ldrd	r0, r1, [r1]
 8009efe:	f7f6 f9bb 	bl	8000278 <__aeabi_dsub>
 8009f02:	e786      	b.n	8009e12 <__ieee754_atan2+0x42>
 8009f04:	a10a      	add	r1, pc, #40	; (adr r1, 8009f30 <__ieee754_atan2+0x160>)
 8009f06:	e9d1 0100 	ldrd	r0, r1, [r1]
 8009f0a:	e782      	b.n	8009e12 <__ieee754_atan2+0x42>
 8009f0c:	a10c      	add	r1, pc, #48	; (adr r1, 8009f40 <__ieee754_atan2+0x170>)
 8009f0e:	e9d1 0100 	ldrd	r0, r1, [r1]
 8009f12:	e77e      	b.n	8009e12 <__ieee754_atan2+0x42>
 8009f14:	2000      	movs	r0, #0
 8009f16:	2100      	movs	r1, #0
 8009f18:	e77b      	b.n	8009e12 <__ieee754_atan2+0x42>
 8009f1a:	a107      	add	r1, pc, #28	; (adr r1, 8009f38 <__ieee754_atan2+0x168>)
 8009f1c:	e9d1 0100 	ldrd	r0, r1, [r1]
 8009f20:	e777      	b.n	8009e12 <__ieee754_atan2+0x42>
 8009f22:	bf00      	nop
 8009f24:	f3af 8000 	nop.w
 8009f28:	33145c07 	.word	0x33145c07
 8009f2c:	3ca1a626 	.word	0x3ca1a626
 8009f30:	54442d18 	.word	0x54442d18
 8009f34:	400921fb 	.word	0x400921fb
 8009f38:	54442d18 	.word	0x54442d18
 8009f3c:	3ff921fb 	.word	0x3ff921fb
 8009f40:	54442d18 	.word	0x54442d18
 8009f44:	3fe921fb 	.word	0x3fe921fb
 8009f48:	0800b618 	.word	0x0800b618
 8009f4c:	0800b630 	.word	0x0800b630
 8009f50:	54442d18 	.word	0x54442d18
 8009f54:	c00921fb 	.word	0xc00921fb
 8009f58:	54442d18 	.word	0x54442d18
 8009f5c:	bff921fb 	.word	0xbff921fb
 8009f60:	7ff00000 	.word	0x7ff00000
 8009f64:	00000000 	.word	0x00000000

08009f68 <__ieee754_rem_pio2>:
 8009f68:	e92d 4ff0 	stmdb	sp!, {r4, r5, r6, r7, r8, r9, sl, fp, lr}
 8009f6c:	ed2d 8b02 	vpush	{d8}
 8009f70:	ec55 4b10 	vmov	r4, r5, d0
 8009f74:	4bca      	ldr	r3, [pc, #808]	; (800a2a0 <__ieee754_rem_pio2+0x338>)
 8009f76:	b08b      	sub	sp, #44	; 0x2c
 8009f78:	f025 4800 	bic.w	r8, r5, #2147483648	; 0x80000000
 8009f7c:	4598      	cmp	r8, r3
 8009f7e:	4682      	mov	sl, r0
 8009f80:	9502      	str	r5, [sp, #8]
 8009f82:	dc08      	bgt.n	8009f96 <__ieee754_rem_pio2+0x2e>
 8009f84:	2200      	movs	r2, #0
 8009f86:	2300      	movs	r3, #0
 8009f88:	ed80 0b00 	vstr	d0, [r0]
 8009f8c:	e9c0 2302 	strd	r2, r3, [r0, #8]
 8009f90:	f04f 0b00 	mov.w	fp, #0
 8009f94:	e028      	b.n	8009fe8 <__ieee754_rem_pio2+0x80>
 8009f96:	4bc3      	ldr	r3, [pc, #780]	; (800a2a4 <__ieee754_rem_pio2+0x33c>)
 8009f98:	4598      	cmp	r8, r3
 8009f9a:	dc78      	bgt.n	800a08e <__ieee754_rem_pio2+0x126>
 8009f9c:	9b02      	ldr	r3, [sp, #8]
 8009f9e:	4ec2      	ldr	r6, [pc, #776]	; (800a2a8 <__ieee754_rem_pio2+0x340>)
 8009fa0:	2b00      	cmp	r3, #0
 8009fa2:	ee10 0a10 	vmov	r0, s0
 8009fa6:	a3b0      	add	r3, pc, #704	; (adr r3, 800a268 <__ieee754_rem_pio2+0x300>)
 8009fa8:	e9d3 2300 	ldrd	r2, r3, [r3]
 8009fac:	4629      	mov	r1, r5
 8009fae:	dd39      	ble.n	800a024 <__ieee754_rem_pio2+0xbc>
 8009fb0:	f7f6 f962 	bl	8000278 <__aeabi_dsub>
 8009fb4:	45b0      	cmp	r8, r6
 8009fb6:	4604      	mov	r4, r0
 8009fb8:	460d      	mov	r5, r1
 8009fba:	d01b      	beq.n	8009ff4 <__ieee754_rem_pio2+0x8c>
 8009fbc:	a3ac      	add	r3, pc, #688	; (adr r3, 800a270 <__ieee754_rem_pio2+0x308>)
 8009fbe:	e9d3 2300 	ldrd	r2, r3, [r3]
 8009fc2:	f7f6 f959 	bl	8000278 <__aeabi_dsub>
 8009fc6:	4602      	mov	r2, r0
 8009fc8:	460b      	mov	r3, r1
 8009fca:	e9ca 2300 	strd	r2, r3, [sl]
 8009fce:	4620      	mov	r0, r4
 8009fd0:	4629      	mov	r1, r5
 8009fd2:	f7f6 f951 	bl	8000278 <__aeabi_dsub>
 8009fd6:	a3a6      	add	r3, pc, #664	; (adr r3, 800a270 <__ieee754_rem_pio2+0x308>)
 8009fd8:	e9d3 2300 	ldrd	r2, r3, [r3]
 8009fdc:	f7f6 f94c 	bl	8000278 <__aeabi_dsub>
 8009fe0:	e9ca 0102 	strd	r0, r1, [sl, #8]
 8009fe4:	f04f 0b01 	mov.w	fp, #1
 8009fe8:	4658      	mov	r0, fp
 8009fea:	b00b      	add	sp, #44	; 0x2c
 8009fec:	ecbd 8b02 	vpop	{d8}
 8009ff0:	e8bd 8ff0 	ldmia.w	sp!, {r4, r5, r6, r7, r8, r9, sl, fp, pc}
 8009ff4:	a3a0      	add	r3, pc, #640	; (adr r3, 800a278 <__ieee754_rem_pio2+0x310>)
 8009ff6:	e9d3 2300 	ldrd	r2, r3, [r3]
 8009ffa:	f7f6 f93d 	bl	8000278 <__aeabi_dsub>
 8009ffe:	a3a0      	add	r3, pc, #640	; (adr r3, 800a280 <__ieee754_rem_pio2+0x318>)
 800a000:	e9d3 2300 	ldrd	r2, r3, [r3]
 800a004:	4604      	mov	r4, r0
 800a006:	460d      	mov	r5, r1
 800a008:	f7f6 f936 	bl	8000278 <__aeabi_dsub>
 800a00c:	4602      	mov	r2, r0
 800a00e:	460b      	mov	r3, r1
 800a010:	e9ca 2300 	strd	r2, r3, [sl]
 800a014:	4620      	mov	r0, r4
 800a016:	4629      	mov	r1, r5
 800a018:	f7f6 f92e 	bl	8000278 <__aeabi_dsub>
 800a01c:	a398      	add	r3, pc, #608	; (adr r3, 800a280 <__ieee754_rem_pio2+0x318>)
 800a01e:	e9d3 2300 	ldrd	r2, r3, [r3]
 800a022:	e7db      	b.n	8009fdc <__ieee754_rem_pio2+0x74>
 800a024:	f7f6 f92a 	bl	800027c <__adddf3>
 800a028:	45b0      	cmp	r8, r6
 800a02a:	4604      	mov	r4, r0
 800a02c:	460d      	mov	r5, r1
 800a02e:	d016      	beq.n	800a05e <__ieee754_rem_pio2+0xf6>
 800a030:	a38f      	add	r3, pc, #572	; (adr r3, 800a270 <__ieee754_rem_pio2+0x308>)
 800a032:	e9d3 2300 	ldrd	r2, r3, [r3]
 800a036:	f7f6 f921 	bl	800027c <__adddf3>
 800a03a:	4602      	mov	r2, r0
 800a03c:	460b      	mov	r3, r1
 800a03e:	e9ca 2300 	strd	r2, r3, [sl]
 800a042:	4620      	mov	r0, r4
 800a044:	4629      	mov	r1, r5
 800a046:	f7f6 f917 	bl	8000278 <__aeabi_dsub>
 800a04a:	a389      	add	r3, pc, #548	; (adr r3, 800a270 <__ieee754_rem_pio2+0x308>)
 800a04c:	e9d3 2300 	ldrd	r2, r3, [r3]
 800a050:	f7f6 f914 	bl	800027c <__adddf3>
 800a054:	f04f 3bff 	mov.w	fp, #4294967295	; 0xffffffff
 800a058:	e9ca 0102 	strd	r0, r1, [sl, #8]
 800a05c:	e7c4      	b.n	8009fe8 <__ieee754_rem_pio2+0x80>
 800a05e:	a386      	add	r3, pc, #536	; (adr r3, 800a278 <__ieee754_rem_pio2+0x310>)
 800a060:	e9d3 2300 	ldrd	r2, r3, [r3]
 800a064:	f7f6 f90a 	bl	800027c <__adddf3>
 800a068:	a385      	add	r3, pc, #532	; (adr r3, 800a280 <__ieee754_rem_pio2+0x318>)
 800a06a:	e9d3 2300 	ldrd	r2, r3, [r3]
 800a06e:	4604      	mov	r4, r0
 800a070:	460d      	mov	r5, r1
 800a072:	f7f6 f903 	bl	800027c <__adddf3>
 800a076:	4602      	mov	r2, r0
 800a078:	460b      	mov	r3, r1
 800a07a:	e9ca 2300 	strd	r2, r3, [sl]
 800a07e:	4620      	mov	r0, r4
 800a080:	4629      	mov	r1, r5
 800a082:	f7f6 f8f9 	bl	8000278 <__aeabi_dsub>
 800a086:	a37e      	add	r3, pc, #504	; (adr r3, 800a280 <__ieee754_rem_pio2+0x318>)
 800a088:	e9d3 2300 	ldrd	r2, r3, [r3]
 800a08c:	e7e0      	b.n	800a050 <__ieee754_rem_pio2+0xe8>
 800a08e:	4b87      	ldr	r3, [pc, #540]	; (800a2ac <__ieee754_rem_pio2+0x344>)
 800a090:	4598      	cmp	r8, r3
 800a092:	f300 80d9 	bgt.w	800a248 <__ieee754_rem_pio2+0x2e0>
 800a096:	f001 f89f 	bl	800b1d8 <fabs>
 800a09a:	ec55 4b10 	vmov	r4, r5, d0
 800a09e:	ee10 0a10 	vmov	r0, s0
 800a0a2:	a379      	add	r3, pc, #484	; (adr r3, 800a288 <__ieee754_rem_pio2+0x320>)
 800a0a4:	e9d3 2300 	ldrd	r2, r3, [r3]
 800a0a8:	4629      	mov	r1, r5
 800a0aa:	f7f6 fa9d 	bl	80005e8 <__aeabi_dmul>
 800a0ae:	4b80      	ldr	r3, [pc, #512]	; (800a2b0 <__ieee754_rem_pio2+0x348>)
 800a0b0:	2200      	movs	r2, #0
 800a0b2:	f7f6 f8e3 	bl	800027c <__adddf3>
 800a0b6:	f7f6 fd47 	bl	8000b48 <__aeabi_d2iz>
 800a0ba:	4683      	mov	fp, r0
 800a0bc:	f7f6 fa2a 	bl	8000514 <__aeabi_i2d>
 800a0c0:	4602      	mov	r2, r0
 800a0c2:	460b      	mov	r3, r1
 800a0c4:	ec43 2b18 	vmov	d8, r2, r3
 800a0c8:	a367      	add	r3, pc, #412	; (adr r3, 800a268 <__ieee754_rem_pio2+0x300>)
 800a0ca:	e9d3 2300 	ldrd	r2, r3, [r3]
 800a0ce:	f7f6 fa8b 	bl	80005e8 <__aeabi_dmul>
 800a0d2:	4602      	mov	r2, r0
 800a0d4:	460b      	mov	r3, r1
 800a0d6:	4620      	mov	r0, r4
 800a0d8:	4629      	mov	r1, r5
 800a0da:	f7f6 f8cd 	bl	8000278 <__aeabi_dsub>
 800a0de:	a364      	add	r3, pc, #400	; (adr r3, 800a270 <__ieee754_rem_pio2+0x308>)
 800a0e0:	e9d3 2300 	ldrd	r2, r3, [r3]
 800a0e4:	4606      	mov	r6, r0
 800a0e6:	460f      	mov	r7, r1
 800a0e8:	ec51 0b18 	vmov	r0, r1, d8
 800a0ec:	f7f6 fa7c 	bl	80005e8 <__aeabi_dmul>
 800a0f0:	f1bb 0f1f 	cmp.w	fp, #31
 800a0f4:	4604      	mov	r4, r0
 800a0f6:	460d      	mov	r5, r1
 800a0f8:	dc0d      	bgt.n	800a116 <__ieee754_rem_pio2+0x1ae>
 800a0fa:	4b6e      	ldr	r3, [pc, #440]	; (800a2b4 <__ieee754_rem_pio2+0x34c>)
 800a0fc:	f10b 32ff 	add.w	r2, fp, #4294967295	; 0xffffffff
 800a100:	f853 3022 	ldr.w	r3, [r3, r2, lsl #2]
 800a104:	4543      	cmp	r3, r8
 800a106:	d006      	beq.n	800a116 <__ieee754_rem_pio2+0x1ae>
 800a108:	4622      	mov	r2, r4
 800a10a:	462b      	mov	r3, r5
 800a10c:	4630      	mov	r0, r6
 800a10e:	4639      	mov	r1, r7
 800a110:	f7f6 f8b2 	bl	8000278 <__aeabi_dsub>
 800a114:	e00f      	b.n	800a136 <__ieee754_rem_pio2+0x1ce>
 800a116:	462b      	mov	r3, r5
 800a118:	4622      	mov	r2, r4
 800a11a:	4630      	mov	r0, r6
 800a11c:	4639      	mov	r1, r7
 800a11e:	f7f6 f8ab 	bl	8000278 <__aeabi_dsub>
 800a122:	ea4f 5328 	mov.w	r3, r8, asr #20
 800a126:	9303      	str	r3, [sp, #12]
 800a128:	f3c1 530a 	ubfx	r3, r1, #20, #11
 800a12c:	ebc3 5818 	rsb	r8, r3, r8, lsr #20
 800a130:	f1b8 0f10 	cmp.w	r8, #16
 800a134:	dc02      	bgt.n	800a13c <__ieee754_rem_pio2+0x1d4>
 800a136:	e9ca 0100 	strd	r0, r1, [sl]
 800a13a:	e039      	b.n	800a1b0 <__ieee754_rem_pio2+0x248>
 800a13c:	a34e      	add	r3, pc, #312	; (adr r3, 800a278 <__ieee754_rem_pio2+0x310>)
 800a13e:	e9d3 2300 	ldrd	r2, r3, [r3]
 800a142:	ec51 0b18 	vmov	r0, r1, d8
 800a146:	f7f6 fa4f 	bl	80005e8 <__aeabi_dmul>
 800a14a:	4604      	mov	r4, r0
 800a14c:	460d      	mov	r5, r1
 800a14e:	4602      	mov	r2, r0
 800a150:	460b      	mov	r3, r1
 800a152:	4630      	mov	r0, r6
 800a154:	4639      	mov	r1, r7
 800a156:	f7f6 f88f 	bl	8000278 <__aeabi_dsub>
 800a15a:	4602      	mov	r2, r0
 800a15c:	460b      	mov	r3, r1
 800a15e:	4680      	mov	r8, r0
 800a160:	4689      	mov	r9, r1
 800a162:	4630      	mov	r0, r6
 800a164:	4639      	mov	r1, r7
 800a166:	f7f6 f887 	bl	8000278 <__aeabi_dsub>
 800a16a:	4622      	mov	r2, r4
 800a16c:	462b      	mov	r3, r5
 800a16e:	f7f6 f883 	bl	8000278 <__aeabi_dsub>
 800a172:	a343      	add	r3, pc, #268	; (adr r3, 800a280 <__ieee754_rem_pio2+0x318>)
 800a174:	e9d3 2300 	ldrd	r2, r3, [r3]
 800a178:	4604      	mov	r4, r0
 800a17a:	460d      	mov	r5, r1
 800a17c:	ec51 0b18 	vmov	r0, r1, d8
 800a180:	f7f6 fa32 	bl	80005e8 <__aeabi_dmul>
 800a184:	4622      	mov	r2, r4
 800a186:	462b      	mov	r3, r5
 800a188:	f7f6 f876 	bl	8000278 <__aeabi_dsub>
 800a18c:	4602      	mov	r2, r0
 800a18e:	460b      	mov	r3, r1
 800a190:	4604      	mov	r4, r0
 800a192:	460d      	mov	r5, r1
 800a194:	4640      	mov	r0, r8
 800a196:	4649      	mov	r1, r9
 800a198:	f7f6 f86e 	bl	8000278 <__aeabi_dsub>
 800a19c:	9a03      	ldr	r2, [sp, #12]
 800a19e:	f3c1 530a 	ubfx	r3, r1, #20, #11
 800a1a2:	1ad3      	subs	r3, r2, r3
 800a1a4:	2b31      	cmp	r3, #49	; 0x31
 800a1a6:	dc24      	bgt.n	800a1f2 <__ieee754_rem_pio2+0x28a>
 800a1a8:	e9ca 0100 	strd	r0, r1, [sl]
 800a1ac:	4646      	mov	r6, r8
 800a1ae:	464f      	mov	r7, r9
 800a1b0:	e9da 8900 	ldrd	r8, r9, [sl]
 800a1b4:	4630      	mov	r0, r6
 800a1b6:	4642      	mov	r2, r8
 800a1b8:	464b      	mov	r3, r9
 800a1ba:	4639      	mov	r1, r7
 800a1bc:	f7f6 f85c 	bl	8000278 <__aeabi_dsub>
 800a1c0:	462b      	mov	r3, r5
 800a1c2:	4622      	mov	r2, r4
 800a1c4:	f7f6 f858 	bl	8000278 <__aeabi_dsub>
 800a1c8:	9b02      	ldr	r3, [sp, #8]
 800a1ca:	2b00      	cmp	r3, #0
 800a1cc:	e9ca 0102 	strd	r0, r1, [sl, #8]
 800a1d0:	f6bf af0a 	bge.w	8009fe8 <__ieee754_rem_pio2+0x80>
 800a1d4:	f109 4300 	add.w	r3, r9, #2147483648	; 0x80000000
 800a1d8:	f8ca 3004 	str.w	r3, [sl, #4]
 800a1dc:	f101 4300 	add.w	r3, r1, #2147483648	; 0x80000000
 800a1e0:	f8ca 8000 	str.w	r8, [sl]
 800a1e4:	f8ca 0008 	str.w	r0, [sl, #8]
 800a1e8:	f8ca 300c 	str.w	r3, [sl, #12]
 800a1ec:	f1cb 0b00 	rsb	fp, fp, #0
 800a1f0:	e6fa      	b.n	8009fe8 <__ieee754_rem_pio2+0x80>
 800a1f2:	a327      	add	r3, pc, #156	; (adr r3, 800a290 <__ieee754_rem_pio2+0x328>)
 800a1f4:	e9d3 2300 	ldrd	r2, r3, [r3]
 800a1f8:	ec51 0b18 	vmov	r0, r1, d8
 800a1fc:	f7f6 f9f4 	bl	80005e8 <__aeabi_dmul>
 800a200:	4604      	mov	r4, r0
 800a202:	460d      	mov	r5, r1
 800a204:	4602      	mov	r2, r0
 800a206:	460b      	mov	r3, r1
 800a208:	4640      	mov	r0, r8
 800a20a:	4649      	mov	r1, r9
 800a20c:	f7f6 f834 	bl	8000278 <__aeabi_dsub>
 800a210:	4602      	mov	r2, r0
 800a212:	460b      	mov	r3, r1
 800a214:	4606      	mov	r6, r0
 800a216:	460f      	mov	r7, r1
 800a218:	4640      	mov	r0, r8
 800a21a:	4649      	mov	r1, r9
 800a21c:	f7f6 f82c 	bl	8000278 <__aeabi_dsub>
 800a220:	4622      	mov	r2, r4
 800a222:	462b      	mov	r3, r5
 800a224:	f7f6 f828 	bl	8000278 <__aeabi_dsub>
 800a228:	a31b      	add	r3, pc, #108	; (adr r3, 800a298 <__ieee754_rem_pio2+0x330>)
 800a22a:	e9d3 2300 	ldrd	r2, r3, [r3]
 800a22e:	4604      	mov	r4, r0
 800a230:	460d      	mov	r5, r1
 800a232:	ec51 0b18 	vmov	r0, r1, d8
 800a236:	f7f6 f9d7 	bl	80005e8 <__aeabi_dmul>
 800a23a:	4622      	mov	r2, r4
 800a23c:	462b      	mov	r3, r5
 800a23e:	f7f6 f81b 	bl	8000278 <__aeabi_dsub>
 800a242:	4604      	mov	r4, r0
 800a244:	460d      	mov	r5, r1
 800a246:	e75f      	b.n	800a108 <__ieee754_rem_pio2+0x1a0>
 800a248:	4b1b      	ldr	r3, [pc, #108]	; (800a2b8 <__ieee754_rem_pio2+0x350>)
 800a24a:	4598      	cmp	r8, r3
 800a24c:	dd36      	ble.n	800a2bc <__ieee754_rem_pio2+0x354>
 800a24e:	ee10 2a10 	vmov	r2, s0
 800a252:	462b      	mov	r3, r5
 800a254:	4620      	mov	r0, r4
 800a256:	4629      	mov	r1, r5
 800a258:	f7f6 f80e 	bl	8000278 <__aeabi_dsub>
 800a25c:	e9ca 0102 	strd	r0, r1, [sl, #8]
 800a260:	e9ca 0100 	strd	r0, r1, [sl]
 800a264:	e694      	b.n	8009f90 <__ieee754_rem_pio2+0x28>
 800a266:	bf00      	nop
 800a268:	54400000 	.word	0x54400000
 800a26c:	3ff921fb 	.word	0x3ff921fb
 800a270:	1a626331 	.word	0x1a626331
 800a274:	3dd0b461 	.word	0x3dd0b461
 800a278:	1a600000 	.word	0x1a600000
 800a27c:	3dd0b461 	.word	0x3dd0b461
 800a280:	2e037073 	.word	0x2e037073
 800a284:	3ba3198a 	.word	0x3ba3198a
 800a288:	6dc9c883 	.word	0x6dc9c883
 800a28c:	3fe45f30 	.word	0x3fe45f30
 800a290:	2e000000 	.word	0x2e000000
 800a294:	3ba3198a 	.word	0x3ba3198a
 800a298:	252049c1 	.word	0x252049c1
 800a29c:	397b839a 	.word	0x397b839a
 800a2a0:	3fe921fb 	.word	0x3fe921fb
 800a2a4:	4002d97b 	.word	0x4002d97b
 800a2a8:	3ff921fb 	.word	0x3ff921fb
 800a2ac:	413921fb 	.word	0x413921fb
 800a2b0:	3fe00000 	.word	0x3fe00000
 800a2b4:	0800b648 	.word	0x0800b648
 800a2b8:	7fefffff 	.word	0x7fefffff
 800a2bc:	ea4f 5428 	mov.w	r4, r8, asr #20
 800a2c0:	f2a4 4416 	subw	r4, r4, #1046	; 0x416
 800a2c4:	ee10 0a10 	vmov	r0, s0
 800a2c8:	eba8 5104 	sub.w	r1, r8, r4, lsl #20
 800a2cc:	ee10 6a10 	vmov	r6, s0
 800a2d0:	460f      	mov	r7, r1
 800a2d2:	f7f6 fc39 	bl	8000b48 <__aeabi_d2iz>
 800a2d6:	f7f6 f91d 	bl	8000514 <__aeabi_i2d>
 800a2da:	4602      	mov	r2, r0
 800a2dc:	460b      	mov	r3, r1
 800a2de:	4630      	mov	r0, r6
 800a2e0:	4639      	mov	r1, r7
 800a2e2:	e9cd 2304 	strd	r2, r3, [sp, #16]
 800a2e6:	f7f5 ffc7 	bl	8000278 <__aeabi_dsub>
 800a2ea:	4b23      	ldr	r3, [pc, #140]	; (800a378 <__ieee754_rem_pio2+0x410>)
 800a2ec:	2200      	movs	r2, #0
 800a2ee:	f7f6 f97b 	bl	80005e8 <__aeabi_dmul>
 800a2f2:	460f      	mov	r7, r1
 800a2f4:	4606      	mov	r6, r0
 800a2f6:	f7f6 fc27 	bl	8000b48 <__aeabi_d2iz>
 800a2fa:	f7f6 f90b 	bl	8000514 <__aeabi_i2d>
 800a2fe:	4602      	mov	r2, r0
 800a300:	460b      	mov	r3, r1
 800a302:	4630      	mov	r0, r6
 800a304:	4639      	mov	r1, r7
 800a306:	e9cd 2306 	strd	r2, r3, [sp, #24]
 800a30a:	f7f5 ffb5 	bl	8000278 <__aeabi_dsub>
 800a30e:	4b1a      	ldr	r3, [pc, #104]	; (800a378 <__ieee754_rem_pio2+0x410>)
 800a310:	2200      	movs	r2, #0
 800a312:	f7f6 f969 	bl	80005e8 <__aeabi_dmul>
 800a316:	e9cd 0108 	strd	r0, r1, [sp, #32]
 800a31a:	ad04      	add	r5, sp, #16
 800a31c:	f04f 0803 	mov.w	r8, #3
 800a320:	46a9      	mov	r9, r5
 800a322:	2600      	movs	r6, #0
 800a324:	2700      	movs	r7, #0
 800a326:	4632      	mov	r2, r6
 800a328:	463b      	mov	r3, r7
 800a32a:	e9d5 0104 	ldrd	r0, r1, [r5, #16]
 800a32e:	46c3      	mov	fp, r8
 800a330:	3d08      	subs	r5, #8
 800a332:	f108 38ff 	add.w	r8, r8, #4294967295	; 0xffffffff
 800a336:	f7f6 fbbf 	bl	8000ab8 <__aeabi_dcmpeq>
 800a33a:	2800      	cmp	r0, #0
 800a33c:	d1f3      	bne.n	800a326 <__ieee754_rem_pio2+0x3be>
 800a33e:	4b0f      	ldr	r3, [pc, #60]	; (800a37c <__ieee754_rem_pio2+0x414>)
 800a340:	9301      	str	r3, [sp, #4]
 800a342:	2302      	movs	r3, #2
 800a344:	9300      	str	r3, [sp, #0]
 800a346:	4622      	mov	r2, r4
 800a348:	465b      	mov	r3, fp
 800a34a:	4651      	mov	r1, sl
 800a34c:	4648      	mov	r0, r9
 800a34e:	f000 f993 	bl	800a678 <__kernel_rem_pio2>
 800a352:	9b02      	ldr	r3, [sp, #8]
 800a354:	2b00      	cmp	r3, #0
 800a356:	4683      	mov	fp, r0
 800a358:	f6bf ae46 	bge.w	8009fe8 <__ieee754_rem_pio2+0x80>
 800a35c:	e9da 2100 	ldrd	r2, r1, [sl]
 800a360:	f101 4300 	add.w	r3, r1, #2147483648	; 0x80000000
 800a364:	e9ca 2300 	strd	r2, r3, [sl]
 800a368:	e9da 2102 	ldrd	r2, r1, [sl, #8]
 800a36c:	f101 4300 	add.w	r3, r1, #2147483648	; 0x80000000
 800a370:	e9ca 2302 	strd	r2, r3, [sl, #8]
 800a374:	e73a      	b.n	800a1ec <__ieee754_rem_pio2+0x284>
 800a376:	bf00      	nop
 800a378:	41700000 	.word	0x41700000
 800a37c:	0800b6c8 	.word	0x0800b6c8

0800a380 <__ieee754_sqrt>:
 800a380:	e92d 41f0 	stmdb	sp!, {r4, r5, r6, r7, r8, lr}
 800a384:	ec55 4b10 	vmov	r4, r5, d0
 800a388:	4e55      	ldr	r6, [pc, #340]	; (800a4e0 <__ieee754_sqrt+0x160>)
 800a38a:	43ae      	bics	r6, r5
 800a38c:	ee10 0a10 	vmov	r0, s0
 800a390:	ee10 3a10 	vmov	r3, s0
 800a394:	462a      	mov	r2, r5
 800a396:	4629      	mov	r1, r5
 800a398:	d110      	bne.n	800a3bc <__ieee754_sqrt+0x3c>
 800a39a:	ee10 2a10 	vmov	r2, s0
 800a39e:	462b      	mov	r3, r5
 800a3a0:	f7f6 f922 	bl	80005e8 <__aeabi_dmul>
 800a3a4:	4602      	mov	r2, r0
 800a3a6:	460b      	mov	r3, r1
 800a3a8:	4620      	mov	r0, r4
 800a3aa:	4629      	mov	r1, r5
 800a3ac:	f7f5 ff66 	bl	800027c <__adddf3>
 800a3b0:	4604      	mov	r4, r0
 800a3b2:	460d      	mov	r5, r1
 800a3b4:	ec45 4b10 	vmov	d0, r4, r5
 800a3b8:	e8bd 81f0 	ldmia.w	sp!, {r4, r5, r6, r7, r8, pc}
 800a3bc:	2d00      	cmp	r5, #0
 800a3be:	dc10      	bgt.n	800a3e2 <__ieee754_sqrt+0x62>
 800a3c0:	f025 4600 	bic.w	r6, r5, #2147483648	; 0x80000000
 800a3c4:	4330      	orrs	r0, r6
 800a3c6:	d0f5      	beq.n	800a3b4 <__ieee754_sqrt+0x34>
 800a3c8:	b15d      	cbz	r5, 800a3e2 <__ieee754_sqrt+0x62>
 800a3ca:	ee10 2a10 	vmov	r2, s0
 800a3ce:	462b      	mov	r3, r5
 800a3d0:	ee10 0a10 	vmov	r0, s0
 800a3d4:	f7f5 ff50 	bl	8000278 <__aeabi_dsub>
 800a3d8:	4602      	mov	r2, r0
 800a3da:	460b      	mov	r3, r1
 800a3dc:	f7f6 fa2e 	bl	800083c <__aeabi_ddiv>
 800a3e0:	e7e6      	b.n	800a3b0 <__ieee754_sqrt+0x30>
 800a3e2:	1512      	asrs	r2, r2, #20
 800a3e4:	d074      	beq.n	800a4d0 <__ieee754_sqrt+0x150>
 800a3e6:	07d4      	lsls	r4, r2, #31
 800a3e8:	f3c1 0113 	ubfx	r1, r1, #0, #20
 800a3ec:	f2a2 37ff 	subw	r7, r2, #1023	; 0x3ff
 800a3f0:	f441 1180 	orr.w	r1, r1, #1048576	; 0x100000
 800a3f4:	bf5e      	ittt	pl
 800a3f6:	0fda      	lsrpl	r2, r3, #31
 800a3f8:	005b      	lslpl	r3, r3, #1
 800a3fa:	eb02 0141 	addpl.w	r1, r2, r1, lsl #1
 800a3fe:	2400      	movs	r4, #0
 800a400:	0fda      	lsrs	r2, r3, #31
 800a402:	eb02 0141 	add.w	r1, r2, r1, lsl #1
 800a406:	107f      	asrs	r7, r7, #1
 800a408:	005b      	lsls	r3, r3, #1
 800a40a:	2516      	movs	r5, #22
 800a40c:	4620      	mov	r0, r4
 800a40e:	f44f 1200 	mov.w	r2, #2097152	; 0x200000
 800a412:	1886      	adds	r6, r0, r2
 800a414:	428e      	cmp	r6, r1
 800a416:	bfde      	ittt	le
 800a418:	1b89      	suble	r1, r1, r6
 800a41a:	18b0      	addle	r0, r6, r2
 800a41c:	18a4      	addle	r4, r4, r2
 800a41e:	0049      	lsls	r1, r1, #1
 800a420:	3d01      	subs	r5, #1
 800a422:	eb01 71d3 	add.w	r1, r1, r3, lsr #31
 800a426:	ea4f 0252 	mov.w	r2, r2, lsr #1
 800a42a:	ea4f 0343 	mov.w	r3, r3, lsl #1
 800a42e:	d1f0      	bne.n	800a412 <__ieee754_sqrt+0x92>
 800a430:	462a      	mov	r2, r5
 800a432:	f04f 0e20 	mov.w	lr, #32
 800a436:	f04f 4600 	mov.w	r6, #2147483648	; 0x80000000
 800a43a:	4281      	cmp	r1, r0
 800a43c:	eb06 0c05 	add.w	ip, r6, r5
 800a440:	dc02      	bgt.n	800a448 <__ieee754_sqrt+0xc8>
 800a442:	d113      	bne.n	800a46c <__ieee754_sqrt+0xec>
 800a444:	459c      	cmp	ip, r3
 800a446:	d811      	bhi.n	800a46c <__ieee754_sqrt+0xec>
 800a448:	f1bc 0f00 	cmp.w	ip, #0
 800a44c:	eb0c 0506 	add.w	r5, ip, r6
 800a450:	da43      	bge.n	800a4da <__ieee754_sqrt+0x15a>
 800a452:	2d00      	cmp	r5, #0
 800a454:	db41      	blt.n	800a4da <__ieee754_sqrt+0x15a>
 800a456:	f100 0801 	add.w	r8, r0, #1
 800a45a:	1a09      	subs	r1, r1, r0
 800a45c:	459c      	cmp	ip, r3
 800a45e:	bf88      	it	hi
 800a460:	f101 31ff 	addhi.w	r1, r1, #4294967295	; 0xffffffff
 800a464:	eba3 030c 	sub.w	r3, r3, ip
 800a468:	4432      	add	r2, r6
 800a46a:	4640      	mov	r0, r8
 800a46c:	ea4f 7cd3 	mov.w	ip, r3, lsr #31
 800a470:	f1be 0e01 	subs.w	lr, lr, #1
 800a474:	eb0c 0141 	add.w	r1, ip, r1, lsl #1
 800a478:	ea4f 0343 	mov.w	r3, r3, lsl #1
 800a47c:	ea4f 0656 	mov.w	r6, r6, lsr #1
 800a480:	d1db      	bne.n	800a43a <__ieee754_sqrt+0xba>
 800a482:	430b      	orrs	r3, r1
 800a484:	d006      	beq.n	800a494 <__ieee754_sqrt+0x114>
 800a486:	1c50      	adds	r0, r2, #1
 800a488:	bf13      	iteet	ne
 800a48a:	3201      	addne	r2, #1
 800a48c:	3401      	addeq	r4, #1
 800a48e:	4672      	moveq	r2, lr
 800a490:	f022 0201 	bicne.w	r2, r2, #1
 800a494:	1063      	asrs	r3, r4, #1
 800a496:	0852      	lsrs	r2, r2, #1
 800a498:	07e1      	lsls	r1, r4, #31
 800a49a:	f103 537f 	add.w	r3, r3, #1069547520	; 0x3fc00000
 800a49e:	f503 1300 	add.w	r3, r3, #2097152	; 0x200000
 800a4a2:	bf48      	it	mi
 800a4a4:	f042 4200 	orrmi.w	r2, r2, #2147483648	; 0x80000000
 800a4a8:	eb03 5507 	add.w	r5, r3, r7, lsl #20
 800a4ac:	4614      	mov	r4, r2
 800a4ae:	e781      	b.n	800a3b4 <__ieee754_sqrt+0x34>
 800a4b0:	0ad9      	lsrs	r1, r3, #11
 800a4b2:	3815      	subs	r0, #21
 800a4b4:	055b      	lsls	r3, r3, #21
 800a4b6:	2900      	cmp	r1, #0
 800a4b8:	d0fa      	beq.n	800a4b0 <__ieee754_sqrt+0x130>
 800a4ba:	02cd      	lsls	r5, r1, #11
 800a4bc:	d50a      	bpl.n	800a4d4 <__ieee754_sqrt+0x154>
 800a4be:	f1c2 0420 	rsb	r4, r2, #32
 800a4c2:	fa23 f404 	lsr.w	r4, r3, r4
 800a4c6:	1e55      	subs	r5, r2, #1
 800a4c8:	4093      	lsls	r3, r2
 800a4ca:	4321      	orrs	r1, r4
 800a4cc:	1b42      	subs	r2, r0, r5
 800a4ce:	e78a      	b.n	800a3e6 <__ieee754_sqrt+0x66>
 800a4d0:	4610      	mov	r0, r2
 800a4d2:	e7f0      	b.n	800a4b6 <__ieee754_sqrt+0x136>
 800a4d4:	0049      	lsls	r1, r1, #1
 800a4d6:	3201      	adds	r2, #1
 800a4d8:	e7ef      	b.n	800a4ba <__ieee754_sqrt+0x13a>
 800a4da:	4680      	mov	r8, r0
 800a4dc:	e7bd      	b.n	800a45a <__ieee754_sqrt+0xda>
 800a4de:	bf00      	nop
 800a4e0:	7ff00000 	.word	0x7ff00000
 800a4e4:	00000000 	.word	0x00000000

0800a4e8 <__kernel_cos>:
 800a4e8:	e92d 4ff7 	stmdb	sp!, {r0, r1, r2, r4, r5, r6, r7, r8, r9, sl, fp, lr}
 800a4ec:	ec57 6b10 	vmov	r6, r7, d0
 800a4f0:	f027 4800 	bic.w	r8, r7, #2147483648	; 0x80000000
 800a4f4:	f1b8 5f79 	cmp.w	r8, #1044381696	; 0x3e400000
 800a4f8:	ed8d 1b00 	vstr	d1, [sp]
 800a4fc:	da07      	bge.n	800a50e <__kernel_cos+0x26>
 800a4fe:	ee10 0a10 	vmov	r0, s0
 800a502:	4639      	mov	r1, r7
 800a504:	f7f6 fb20 	bl	8000b48 <__aeabi_d2iz>
 800a508:	2800      	cmp	r0, #0
 800a50a:	f000 8088 	beq.w	800a61e <__kernel_cos+0x136>
 800a50e:	4632      	mov	r2, r6
 800a510:	463b      	mov	r3, r7
 800a512:	4630      	mov	r0, r6
 800a514:	4639      	mov	r1, r7
 800a516:	f7f6 f867 	bl	80005e8 <__aeabi_dmul>
 800a51a:	4b51      	ldr	r3, [pc, #324]	; (800a660 <__kernel_cos+0x178>)
 800a51c:	2200      	movs	r2, #0
 800a51e:	4604      	mov	r4, r0
 800a520:	460d      	mov	r5, r1
 800a522:	f7f6 f861 	bl	80005e8 <__aeabi_dmul>
 800a526:	a340      	add	r3, pc, #256	; (adr r3, 800a628 <__kernel_cos+0x140>)
 800a528:	e9d3 2300 	ldrd	r2, r3, [r3]
 800a52c:	4682      	mov	sl, r0
 800a52e:	468b      	mov	fp, r1
 800a530:	4620      	mov	r0, r4
 800a532:	4629      	mov	r1, r5
 800a534:	f7f6 f858 	bl	80005e8 <__aeabi_dmul>
 800a538:	a33d      	add	r3, pc, #244	; (adr r3, 800a630 <__kernel_cos+0x148>)
 800a53a:	e9d3 2300 	ldrd	r2, r3, [r3]
 800a53e:	f7f5 fe9d 	bl	800027c <__adddf3>
 800a542:	4622      	mov	r2, r4
 800a544:	462b      	mov	r3, r5
 800a546:	f7f6 f84f 	bl	80005e8 <__aeabi_dmul>
 800a54a:	a33b      	add	r3, pc, #236	; (adr r3, 800a638 <__kernel_cos+0x150>)
 800a54c:	e9d3 2300 	ldrd	r2, r3, [r3]
 800a550:	f7f5 fe92 	bl	8000278 <__aeabi_dsub>
 800a554:	4622      	mov	r2, r4
 800a556:	462b      	mov	r3, r5
 800a558:	f7f6 f846 	bl	80005e8 <__aeabi_dmul>
 800a55c:	a338      	add	r3, pc, #224	; (adr r3, 800a640 <__kernel_cos+0x158>)
 800a55e:	e9d3 2300 	ldrd	r2, r3, [r3]
 800a562:	f7f5 fe8b 	bl	800027c <__adddf3>
 800a566:	4622      	mov	r2, r4
 800a568:	462b      	mov	r3, r5
 800a56a:	f7f6 f83d 	bl	80005e8 <__aeabi_dmul>
 800a56e:	a336      	add	r3, pc, #216	; (adr r3, 800a648 <__kernel_cos+0x160>)
 800a570:	e9d3 2300 	ldrd	r2, r3, [r3]
 800a574:	f7f5 fe80 	bl	8000278 <__aeabi_dsub>
 800a578:	4622      	mov	r2, r4
 800a57a:	462b      	mov	r3, r5
 800a57c:	f7f6 f834 	bl	80005e8 <__aeabi_dmul>
 800a580:	a333      	add	r3, pc, #204	; (adr r3, 800a650 <__kernel_cos+0x168>)
 800a582:	e9d3 2300 	ldrd	r2, r3, [r3]
 800a586:	f7f5 fe79 	bl	800027c <__adddf3>
 800a58a:	4622      	mov	r2, r4
 800a58c:	462b      	mov	r3, r5
 800a58e:	f7f6 f82b 	bl	80005e8 <__aeabi_dmul>
 800a592:	4622      	mov	r2, r4
 800a594:	462b      	mov	r3, r5
 800a596:	f7f6 f827 	bl	80005e8 <__aeabi_dmul>
 800a59a:	e9dd 2300 	ldrd	r2, r3, [sp]
 800a59e:	4604      	mov	r4, r0
 800a5a0:	460d      	mov	r5, r1
 800a5a2:	4630      	mov	r0, r6
 800a5a4:	4639      	mov	r1, r7
 800a5a6:	f7f6 f81f 	bl	80005e8 <__aeabi_dmul>
 800a5aa:	460b      	mov	r3, r1
 800a5ac:	4602      	mov	r2, r0
 800a5ae:	4629      	mov	r1, r5
 800a5b0:	4620      	mov	r0, r4
 800a5b2:	f7f5 fe61 	bl	8000278 <__aeabi_dsub>
 800a5b6:	4b2b      	ldr	r3, [pc, #172]	; (800a664 <__kernel_cos+0x17c>)
 800a5b8:	4598      	cmp	r8, r3
 800a5ba:	4606      	mov	r6, r0
 800a5bc:	460f      	mov	r7, r1
 800a5be:	dc10      	bgt.n	800a5e2 <__kernel_cos+0xfa>
 800a5c0:	4602      	mov	r2, r0
 800a5c2:	460b      	mov	r3, r1
 800a5c4:	4650      	mov	r0, sl
 800a5c6:	4659      	mov	r1, fp
 800a5c8:	f7f5 fe56 	bl	8000278 <__aeabi_dsub>
 800a5cc:	460b      	mov	r3, r1
 800a5ce:	4926      	ldr	r1, [pc, #152]	; (800a668 <__kernel_cos+0x180>)
 800a5d0:	4602      	mov	r2, r0
 800a5d2:	2000      	movs	r0, #0
 800a5d4:	f7f5 fe50 	bl	8000278 <__aeabi_dsub>
 800a5d8:	ec41 0b10 	vmov	d0, r0, r1
 800a5dc:	b003      	add	sp, #12
 800a5de:	e8bd 8ff0 	ldmia.w	sp!, {r4, r5, r6, r7, r8, r9, sl, fp, pc}
 800a5e2:	4b22      	ldr	r3, [pc, #136]	; (800a66c <__kernel_cos+0x184>)
 800a5e4:	4920      	ldr	r1, [pc, #128]	; (800a668 <__kernel_cos+0x180>)
 800a5e6:	4598      	cmp	r8, r3
 800a5e8:	bfcc      	ite	gt
 800a5ea:	4d21      	ldrgt	r5, [pc, #132]	; (800a670 <__kernel_cos+0x188>)
 800a5ec:	f5a8 1500 	suble.w	r5, r8, #2097152	; 0x200000
 800a5f0:	2400      	movs	r4, #0
 800a5f2:	4622      	mov	r2, r4
 800a5f4:	462b      	mov	r3, r5
 800a5f6:	2000      	movs	r0, #0
 800a5f8:	f7f5 fe3e 	bl	8000278 <__aeabi_dsub>
 800a5fc:	4622      	mov	r2, r4
 800a5fe:	4680      	mov	r8, r0
 800a600:	4689      	mov	r9, r1
 800a602:	462b      	mov	r3, r5
 800a604:	4650      	mov	r0, sl
 800a606:	4659      	mov	r1, fp
 800a608:	f7f5 fe36 	bl	8000278 <__aeabi_dsub>
 800a60c:	4632      	mov	r2, r6
 800a60e:	463b      	mov	r3, r7
 800a610:	f7f5 fe32 	bl	8000278 <__aeabi_dsub>
 800a614:	4602      	mov	r2, r0
 800a616:	460b      	mov	r3, r1
 800a618:	4640      	mov	r0, r8
 800a61a:	4649      	mov	r1, r9
 800a61c:	e7da      	b.n	800a5d4 <__kernel_cos+0xec>
 800a61e:	ed9f 0b0e 	vldr	d0, [pc, #56]	; 800a658 <__kernel_cos+0x170>
 800a622:	e7db      	b.n	800a5dc <__kernel_cos+0xf4>
 800a624:	f3af 8000 	nop.w
 800a628:	be8838d4 	.word	0xbe8838d4
 800a62c:	bda8fae9 	.word	0xbda8fae9
 800a630:	bdb4b1c4 	.word	0xbdb4b1c4
 800a634:	3e21ee9e 	.word	0x3e21ee9e
 800a638:	809c52ad 	.word	0x809c52ad
 800a63c:	3e927e4f 	.word	0x3e927e4f
 800a640:	19cb1590 	.word	0x19cb1590
 800a644:	3efa01a0 	.word	0x3efa01a0
 800a648:	16c15177 	.word	0x16c15177
 800a64c:	3f56c16c 	.word	0x3f56c16c
 800a650:	5555554c 	.word	0x5555554c
 800a654:	3fa55555 	.word	0x3fa55555
 800a658:	00000000 	.word	0x00000000
 800a65c:	3ff00000 	.word	0x3ff00000
 800a660:	3fe00000 	.word	0x3fe00000
 800a664:	3fd33332 	.word	0x3fd33332
 800a668:	3ff00000 	.word	0x3ff00000
 800a66c:	3fe90000 	.word	0x3fe90000
 800a670:	3fd20000 	.word	0x3fd20000
 800a674:	00000000 	.word	0x00000000

0800a678 <__kernel_rem_pio2>:
 800a678:	e92d 4ff0 	stmdb	sp!, {r4, r5, r6, r7, r8, r9, sl, fp, lr}
 800a67c:	ed2d 8b02 	vpush	{d8}
 800a680:	f5ad 7d1b 	sub.w	sp, sp, #620	; 0x26c
 800a684:	f112 0f14 	cmn.w	r2, #20
 800a688:	9308      	str	r3, [sp, #32]
 800a68a:	9101      	str	r1, [sp, #4]
 800a68c:	4bc4      	ldr	r3, [pc, #784]	; (800a9a0 <__kernel_rem_pio2+0x328>)
 800a68e:	99a6      	ldr	r1, [sp, #664]	; 0x298
 800a690:	900b      	str	r0, [sp, #44]	; 0x2c
 800a692:	f853 3021 	ldr.w	r3, [r3, r1, lsl #2]
 800a696:	9302      	str	r3, [sp, #8]
 800a698:	9b08      	ldr	r3, [sp, #32]
 800a69a:	f103 33ff 	add.w	r3, r3, #4294967295	; 0xffffffff
 800a69e:	bfa8      	it	ge
 800a6a0:	1ed4      	subge	r4, r2, #3
 800a6a2:	9306      	str	r3, [sp, #24]
 800a6a4:	bfb2      	itee	lt
 800a6a6:	2400      	movlt	r4, #0
 800a6a8:	2318      	movge	r3, #24
 800a6aa:	fb94 f4f3 	sdivge	r4, r4, r3
 800a6ae:	f06f 0317 	mvn.w	r3, #23
 800a6b2:	fb04 3303 	mla	r3, r4, r3, r3
 800a6b6:	eb03 0a02 	add.w	sl, r3, r2
 800a6ba:	9b02      	ldr	r3, [sp, #8]
 800a6bc:	9a06      	ldr	r2, [sp, #24]
 800a6be:	ed9f 8bb4 	vldr	d8, [pc, #720]	; 800a990 <__kernel_rem_pio2+0x318>
 800a6c2:	eb03 0802 	add.w	r8, r3, r2
 800a6c6:	9ba7      	ldr	r3, [sp, #668]	; 0x29c
 800a6c8:	1aa7      	subs	r7, r4, r2
 800a6ca:	ae22      	add	r6, sp, #136	; 0x88
 800a6cc:	eb03 0987 	add.w	r9, r3, r7, lsl #2
 800a6d0:	2500      	movs	r5, #0
 800a6d2:	4545      	cmp	r5, r8
 800a6d4:	dd13      	ble.n	800a6fe <__kernel_rem_pio2+0x86>
 800a6d6:	9b08      	ldr	r3, [sp, #32]
 800a6d8:	ed9f 8bad 	vldr	d8, [pc, #692]	; 800a990 <__kernel_rem_pio2+0x318>
 800a6dc:	aa22      	add	r2, sp, #136	; 0x88
 800a6de:	eb02 05c3 	add.w	r5, r2, r3, lsl #3
 800a6e2:	f50d 7be4 	add.w	fp, sp, #456	; 0x1c8
 800a6e6:	f04f 0800 	mov.w	r8, #0
 800a6ea:	9b02      	ldr	r3, [sp, #8]
 800a6ec:	4598      	cmp	r8, r3
 800a6ee:	dc2f      	bgt.n	800a750 <__kernel_rem_pio2+0xd8>
 800a6f0:	ed8d 8b04 	vstr	d8, [sp, #16]
 800a6f4:	f8dd 902c 	ldr.w	r9, [sp, #44]	; 0x2c
 800a6f8:	462f      	mov	r7, r5
 800a6fa:	2600      	movs	r6, #0
 800a6fc:	e01b      	b.n	800a736 <__kernel_rem_pio2+0xbe>
 800a6fe:	42ef      	cmn	r7, r5
 800a700:	d407      	bmi.n	800a712 <__kernel_rem_pio2+0x9a>
 800a702:	f859 0025 	ldr.w	r0, [r9, r5, lsl #2]
 800a706:	f7f5 ff05 	bl	8000514 <__aeabi_i2d>
 800a70a:	e8e6 0102 	strd	r0, r1, [r6], #8
 800a70e:	3501      	adds	r5, #1
 800a710:	e7df      	b.n	800a6d2 <__kernel_rem_pio2+0x5a>
 800a712:	ec51 0b18 	vmov	r0, r1, d8
 800a716:	e7f8      	b.n	800a70a <__kernel_rem_pio2+0x92>
 800a718:	e9d7 2300 	ldrd	r2, r3, [r7]
 800a71c:	e8f9 0102 	ldrd	r0, r1, [r9], #8
 800a720:	f7f5 ff62 	bl	80005e8 <__aeabi_dmul>
 800a724:	4602      	mov	r2, r0
 800a726:	460b      	mov	r3, r1
 800a728:	e9dd 0104 	ldrd	r0, r1, [sp, #16]
 800a72c:	f7f5 fda6 	bl	800027c <__adddf3>
 800a730:	e9cd 0104 	strd	r0, r1, [sp, #16]
 800a734:	3601      	adds	r6, #1
 800a736:	9b06      	ldr	r3, [sp, #24]
 800a738:	429e      	cmp	r6, r3
 800a73a:	f1a7 0708 	sub.w	r7, r7, #8
 800a73e:	ddeb      	ble.n	800a718 <__kernel_rem_pio2+0xa0>
 800a740:	ed9d 7b04 	vldr	d7, [sp, #16]
 800a744:	f108 0801 	add.w	r8, r8, #1
 800a748:	ecab 7b02 	vstmia	fp!, {d7}
 800a74c:	3508      	adds	r5, #8
 800a74e:	e7cc      	b.n	800a6ea <__kernel_rem_pio2+0x72>
 800a750:	9b02      	ldr	r3, [sp, #8]
 800a752:	aa0e      	add	r2, sp, #56	; 0x38
 800a754:	eb02 0383 	add.w	r3, r2, r3, lsl #2
 800a758:	930d      	str	r3, [sp, #52]	; 0x34
 800a75a:	9ba7      	ldr	r3, [sp, #668]	; 0x29c
 800a75c:	eb03 0384 	add.w	r3, r3, r4, lsl #2
 800a760:	9c02      	ldr	r4, [sp, #8]
 800a762:	930c      	str	r3, [sp, #48]	; 0x30
 800a764:	00e3      	lsls	r3, r4, #3
 800a766:	930a      	str	r3, [sp, #40]	; 0x28
 800a768:	ab9a      	add	r3, sp, #616	; 0x268
 800a76a:	eb03 03c4 	add.w	r3, r3, r4, lsl #3
 800a76e:	e953 6728 	ldrd	r6, r7, [r3, #-160]	; 0xa0
 800a772:	f10d 0838 	add.w	r8, sp, #56	; 0x38
 800a776:	ab72      	add	r3, sp, #456	; 0x1c8
 800a778:	eb03 05c4 	add.w	r5, r3, r4, lsl #3
 800a77c:	46c3      	mov	fp, r8
 800a77e:	46a1      	mov	r9, r4
 800a780:	f1b9 0f00 	cmp.w	r9, #0
 800a784:	f1a5 0508 	sub.w	r5, r5, #8
 800a788:	dc77      	bgt.n	800a87a <__kernel_rem_pio2+0x202>
 800a78a:	ec47 6b10 	vmov	d0, r6, r7
 800a78e:	4650      	mov	r0, sl
 800a790:	f000 fdb6 	bl	800b300 <scalbn>
 800a794:	ec57 6b10 	vmov	r6, r7, d0
 800a798:	2200      	movs	r2, #0
 800a79a:	f04f 537f 	mov.w	r3, #1069547520	; 0x3fc00000
 800a79e:	ee10 0a10 	vmov	r0, s0
 800a7a2:	4639      	mov	r1, r7
 800a7a4:	f7f5 ff20 	bl	80005e8 <__aeabi_dmul>
 800a7a8:	ec41 0b10 	vmov	d0, r0, r1
 800a7ac:	f000 fd20 	bl	800b1f0 <floor>
 800a7b0:	4b7c      	ldr	r3, [pc, #496]	; (800a9a4 <__kernel_rem_pio2+0x32c>)
 800a7b2:	ec51 0b10 	vmov	r0, r1, d0
 800a7b6:	2200      	movs	r2, #0
 800a7b8:	f7f5 ff16 	bl	80005e8 <__aeabi_dmul>
 800a7bc:	4602      	mov	r2, r0
 800a7be:	460b      	mov	r3, r1
 800a7c0:	4630      	mov	r0, r6
 800a7c2:	4639      	mov	r1, r7
 800a7c4:	f7f5 fd58 	bl	8000278 <__aeabi_dsub>
 800a7c8:	460f      	mov	r7, r1
 800a7ca:	4606      	mov	r6, r0
 800a7cc:	f7f6 f9bc 	bl	8000b48 <__aeabi_d2iz>
 800a7d0:	9004      	str	r0, [sp, #16]
 800a7d2:	f7f5 fe9f 	bl	8000514 <__aeabi_i2d>
 800a7d6:	4602      	mov	r2, r0
 800a7d8:	460b      	mov	r3, r1
 800a7da:	4630      	mov	r0, r6
 800a7dc:	4639      	mov	r1, r7
 800a7de:	f7f5 fd4b 	bl	8000278 <__aeabi_dsub>
 800a7e2:	f1ba 0f00 	cmp.w	sl, #0
 800a7e6:	4606      	mov	r6, r0
 800a7e8:	460f      	mov	r7, r1
 800a7ea:	dd6d      	ble.n	800a8c8 <__kernel_rem_pio2+0x250>
 800a7ec:	1e62      	subs	r2, r4, #1
 800a7ee:	ab0e      	add	r3, sp, #56	; 0x38
 800a7f0:	9d04      	ldr	r5, [sp, #16]
 800a7f2:	f853 0022 	ldr.w	r0, [r3, r2, lsl #2]
 800a7f6:	f1ca 0118 	rsb	r1, sl, #24
 800a7fa:	fa40 f301 	asr.w	r3, r0, r1
 800a7fe:	441d      	add	r5, r3
 800a800:	408b      	lsls	r3, r1
 800a802:	1ac0      	subs	r0, r0, r3
 800a804:	ab0e      	add	r3, sp, #56	; 0x38
 800a806:	9504      	str	r5, [sp, #16]
 800a808:	f843 0022 	str.w	r0, [r3, r2, lsl #2]
 800a80c:	f1ca 0317 	rsb	r3, sl, #23
 800a810:	fa40 fb03 	asr.w	fp, r0, r3
 800a814:	f1bb 0f00 	cmp.w	fp, #0
 800a818:	dd65      	ble.n	800a8e6 <__kernel_rem_pio2+0x26e>
 800a81a:	9b04      	ldr	r3, [sp, #16]
 800a81c:	2200      	movs	r2, #0
 800a81e:	3301      	adds	r3, #1
 800a820:	9304      	str	r3, [sp, #16]
 800a822:	4615      	mov	r5, r2
 800a824:	f06f 417f 	mvn.w	r1, #4278190080	; 0xff000000
 800a828:	4294      	cmp	r4, r2
 800a82a:	f300 809c 	bgt.w	800a966 <__kernel_rem_pio2+0x2ee>
 800a82e:	f1ba 0f00 	cmp.w	sl, #0
 800a832:	dd07      	ble.n	800a844 <__kernel_rem_pio2+0x1cc>
 800a834:	f1ba 0f01 	cmp.w	sl, #1
 800a838:	f000 80c0 	beq.w	800a9bc <__kernel_rem_pio2+0x344>
 800a83c:	f1ba 0f02 	cmp.w	sl, #2
 800a840:	f000 80c6 	beq.w	800a9d0 <__kernel_rem_pio2+0x358>
 800a844:	f1bb 0f02 	cmp.w	fp, #2
 800a848:	d14d      	bne.n	800a8e6 <__kernel_rem_pio2+0x26e>
 800a84a:	4632      	mov	r2, r6
 800a84c:	463b      	mov	r3, r7
 800a84e:	4956      	ldr	r1, [pc, #344]	; (800a9a8 <__kernel_rem_pio2+0x330>)
 800a850:	2000      	movs	r0, #0
 800a852:	f7f5 fd11 	bl	8000278 <__aeabi_dsub>
 800a856:	4606      	mov	r6, r0
 800a858:	460f      	mov	r7, r1
 800a85a:	2d00      	cmp	r5, #0
 800a85c:	d043      	beq.n	800a8e6 <__kernel_rem_pio2+0x26e>
 800a85e:	4650      	mov	r0, sl
 800a860:	ed9f 0b4d 	vldr	d0, [pc, #308]	; 800a998 <__kernel_rem_pio2+0x320>
 800a864:	f000 fd4c 	bl	800b300 <scalbn>
 800a868:	4630      	mov	r0, r6
 800a86a:	4639      	mov	r1, r7
 800a86c:	ec53 2b10 	vmov	r2, r3, d0
 800a870:	f7f5 fd02 	bl	8000278 <__aeabi_dsub>
 800a874:	4606      	mov	r6, r0
 800a876:	460f      	mov	r7, r1
 800a878:	e035      	b.n	800a8e6 <__kernel_rem_pio2+0x26e>
 800a87a:	4b4c      	ldr	r3, [pc, #304]	; (800a9ac <__kernel_rem_pio2+0x334>)
 800a87c:	2200      	movs	r2, #0
 800a87e:	4630      	mov	r0, r6
 800a880:	4639      	mov	r1, r7
 800a882:	f7f5 feb1 	bl	80005e8 <__aeabi_dmul>
 800a886:	f7f6 f95f 	bl	8000b48 <__aeabi_d2iz>
 800a88a:	f7f5 fe43 	bl	8000514 <__aeabi_i2d>
 800a88e:	4602      	mov	r2, r0
 800a890:	460b      	mov	r3, r1
 800a892:	ec43 2b18 	vmov	d8, r2, r3
 800a896:	4b46      	ldr	r3, [pc, #280]	; (800a9b0 <__kernel_rem_pio2+0x338>)
 800a898:	2200      	movs	r2, #0
 800a89a:	f7f5 fea5 	bl	80005e8 <__aeabi_dmul>
 800a89e:	4602      	mov	r2, r0
 800a8a0:	460b      	mov	r3, r1
 800a8a2:	4630      	mov	r0, r6
 800a8a4:	4639      	mov	r1, r7
 800a8a6:	f7f5 fce7 	bl	8000278 <__aeabi_dsub>
 800a8aa:	f7f6 f94d 	bl	8000b48 <__aeabi_d2iz>
 800a8ae:	e9d5 2300 	ldrd	r2, r3, [r5]
 800a8b2:	f84b 0b04 	str.w	r0, [fp], #4
 800a8b6:	ec51 0b18 	vmov	r0, r1, d8
 800a8ba:	f7f5 fcdf 	bl	800027c <__adddf3>
 800a8be:	f109 39ff 	add.w	r9, r9, #4294967295	; 0xffffffff
 800a8c2:	4606      	mov	r6, r0
 800a8c4:	460f      	mov	r7, r1
 800a8c6:	e75b      	b.n	800a780 <__kernel_rem_pio2+0x108>
 800a8c8:	d106      	bne.n	800a8d8 <__kernel_rem_pio2+0x260>
 800a8ca:	1e63      	subs	r3, r4, #1
 800a8cc:	aa0e      	add	r2, sp, #56	; 0x38
 800a8ce:	f852 0023 	ldr.w	r0, [r2, r3, lsl #2]
 800a8d2:	ea4f 5be0 	mov.w	fp, r0, asr #23
 800a8d6:	e79d      	b.n	800a814 <__kernel_rem_pio2+0x19c>
 800a8d8:	4b36      	ldr	r3, [pc, #216]	; (800a9b4 <__kernel_rem_pio2+0x33c>)
 800a8da:	2200      	movs	r2, #0
 800a8dc:	f7f6 f90a 	bl	8000af4 <__aeabi_dcmpge>
 800a8e0:	2800      	cmp	r0, #0
 800a8e2:	d13d      	bne.n	800a960 <__kernel_rem_pio2+0x2e8>
 800a8e4:	4683      	mov	fp, r0
 800a8e6:	2200      	movs	r2, #0
 800a8e8:	2300      	movs	r3, #0
 800a8ea:	4630      	mov	r0, r6
 800a8ec:	4639      	mov	r1, r7
 800a8ee:	f7f6 f8e3 	bl	8000ab8 <__aeabi_dcmpeq>
 800a8f2:	2800      	cmp	r0, #0
 800a8f4:	f000 80c0 	beq.w	800aa78 <__kernel_rem_pio2+0x400>
 800a8f8:	1e65      	subs	r5, r4, #1
 800a8fa:	462b      	mov	r3, r5
 800a8fc:	2200      	movs	r2, #0
 800a8fe:	9902      	ldr	r1, [sp, #8]
 800a900:	428b      	cmp	r3, r1
 800a902:	da6c      	bge.n	800a9de <__kernel_rem_pio2+0x366>
 800a904:	2a00      	cmp	r2, #0
 800a906:	f000 8089 	beq.w	800aa1c <__kernel_rem_pio2+0x3a4>
 800a90a:	ab0e      	add	r3, sp, #56	; 0x38
 800a90c:	f1aa 0a18 	sub.w	sl, sl, #24
 800a910:	f853 3025 	ldr.w	r3, [r3, r5, lsl #2]
 800a914:	2b00      	cmp	r3, #0
 800a916:	f000 80ad 	beq.w	800aa74 <__kernel_rem_pio2+0x3fc>
 800a91a:	4650      	mov	r0, sl
 800a91c:	ed9f 0b1e 	vldr	d0, [pc, #120]	; 800a998 <__kernel_rem_pio2+0x320>
 800a920:	f000 fcee 	bl	800b300 <scalbn>
 800a924:	ab9a      	add	r3, sp, #616	; 0x268
 800a926:	eb03 03c5 	add.w	r3, r3, r5, lsl #3
 800a92a:	ec57 6b10 	vmov	r6, r7, d0
 800a92e:	00ec      	lsls	r4, r5, #3
 800a930:	f1a3 0898 	sub.w	r8, r3, #152	; 0x98
 800a934:	46aa      	mov	sl, r5
 800a936:	f1ba 0f00 	cmp.w	sl, #0
 800a93a:	f280 80d6 	bge.w	800aaea <__kernel_rem_pio2+0x472>
 800a93e:	ed9f 8b14 	vldr	d8, [pc, #80]	; 800a990 <__kernel_rem_pio2+0x318>
 800a942:	462e      	mov	r6, r5
 800a944:	2e00      	cmp	r6, #0
 800a946:	f2c0 8104 	blt.w	800ab52 <__kernel_rem_pio2+0x4da>
 800a94a:	ab72      	add	r3, sp, #456	; 0x1c8
 800a94c:	ed8d 8b06 	vstr	d8, [sp, #24]
 800a950:	f8df a064 	ldr.w	sl, [pc, #100]	; 800a9b8 <__kernel_rem_pio2+0x340>
 800a954:	eb03 09c6 	add.w	r9, r3, r6, lsl #3
 800a958:	f04f 0800 	mov.w	r8, #0
 800a95c:	1baf      	subs	r7, r5, r6
 800a95e:	e0ea      	b.n	800ab36 <__kernel_rem_pio2+0x4be>
 800a960:	f04f 0b02 	mov.w	fp, #2
 800a964:	e759      	b.n	800a81a <__kernel_rem_pio2+0x1a2>
 800a966:	f8d8 3000 	ldr.w	r3, [r8]
 800a96a:	b955      	cbnz	r5, 800a982 <__kernel_rem_pio2+0x30a>
 800a96c:	b123      	cbz	r3, 800a978 <__kernel_rem_pio2+0x300>
 800a96e:	f1c3 7380 	rsb	r3, r3, #16777216	; 0x1000000
 800a972:	f8c8 3000 	str.w	r3, [r8]
 800a976:	2301      	movs	r3, #1
 800a978:	3201      	adds	r2, #1
 800a97a:	f108 0804 	add.w	r8, r8, #4
 800a97e:	461d      	mov	r5, r3
 800a980:	e752      	b.n	800a828 <__kernel_rem_pio2+0x1b0>
 800a982:	1acb      	subs	r3, r1, r3
 800a984:	f8c8 3000 	str.w	r3, [r8]
 800a988:	462b      	mov	r3, r5
 800a98a:	e7f5      	b.n	800a978 <__kernel_rem_pio2+0x300>
 800a98c:	f3af 8000 	nop.w
	...
 800a99c:	3ff00000 	.word	0x3ff00000
 800a9a0:	0800b810 	.word	0x0800b810
 800a9a4:	40200000 	.word	0x40200000
 800a9a8:	3ff00000 	.word	0x3ff00000
 800a9ac:	3e700000 	.word	0x3e700000
 800a9b0:	41700000 	.word	0x41700000
 800a9b4:	3fe00000 	.word	0x3fe00000
 800a9b8:	0800b7d0 	.word	0x0800b7d0
 800a9bc:	1e62      	subs	r2, r4, #1
 800a9be:	ab0e      	add	r3, sp, #56	; 0x38
 800a9c0:	f853 3022 	ldr.w	r3, [r3, r2, lsl #2]
 800a9c4:	f3c3 0316 	ubfx	r3, r3, #0, #23
 800a9c8:	a90e      	add	r1, sp, #56	; 0x38
 800a9ca:	f841 3022 	str.w	r3, [r1, r2, lsl #2]
 800a9ce:	e739      	b.n	800a844 <__kernel_rem_pio2+0x1cc>
 800a9d0:	1e62      	subs	r2, r4, #1
 800a9d2:	ab0e      	add	r3, sp, #56	; 0x38
 800a9d4:	f853 3022 	ldr.w	r3, [r3, r2, lsl #2]
 800a9d8:	f3c3 0315 	ubfx	r3, r3, #0, #22
 800a9dc:	e7f4      	b.n	800a9c8 <__kernel_rem_pio2+0x350>
 800a9de:	a90e      	add	r1, sp, #56	; 0x38
 800a9e0:	f851 1023 	ldr.w	r1, [r1, r3, lsl #2]
 800a9e4:	3b01      	subs	r3, #1
 800a9e6:	430a      	orrs	r2, r1
 800a9e8:	e789      	b.n	800a8fe <__kernel_rem_pio2+0x286>
 800a9ea:	3301      	adds	r3, #1
 800a9ec:	f852 1d04 	ldr.w	r1, [r2, #-4]!
 800a9f0:	2900      	cmp	r1, #0
 800a9f2:	d0fa      	beq.n	800a9ea <__kernel_rem_pio2+0x372>
 800a9f4:	9a0a      	ldr	r2, [sp, #40]	; 0x28
 800a9f6:	f502 721a 	add.w	r2, r2, #616	; 0x268
 800a9fa:	446a      	add	r2, sp
 800a9fc:	3a98      	subs	r2, #152	; 0x98
 800a9fe:	920a      	str	r2, [sp, #40]	; 0x28
 800aa00:	9a08      	ldr	r2, [sp, #32]
 800aa02:	18e3      	adds	r3, r4, r3
 800aa04:	18a5      	adds	r5, r4, r2
 800aa06:	aa22      	add	r2, sp, #136	; 0x88
 800aa08:	f104 0801 	add.w	r8, r4, #1
 800aa0c:	eb02 05c5 	add.w	r5, r2, r5, lsl #3
 800aa10:	9304      	str	r3, [sp, #16]
 800aa12:	9b04      	ldr	r3, [sp, #16]
 800aa14:	4543      	cmp	r3, r8
 800aa16:	da04      	bge.n	800aa22 <__kernel_rem_pio2+0x3aa>
 800aa18:	461c      	mov	r4, r3
 800aa1a:	e6a3      	b.n	800a764 <__kernel_rem_pio2+0xec>
 800aa1c:	9a0d      	ldr	r2, [sp, #52]	; 0x34
 800aa1e:	2301      	movs	r3, #1
 800aa20:	e7e4      	b.n	800a9ec <__kernel_rem_pio2+0x374>
 800aa22:	9b0c      	ldr	r3, [sp, #48]	; 0x30
 800aa24:	f853 0028 	ldr.w	r0, [r3, r8, lsl #2]
 800aa28:	f7f5 fd74 	bl	8000514 <__aeabi_i2d>
 800aa2c:	e8e5 0102 	strd	r0, r1, [r5], #8
 800aa30:	9b0b      	ldr	r3, [sp, #44]	; 0x2c
 800aa32:	46ab      	mov	fp, r5
 800aa34:	461c      	mov	r4, r3
 800aa36:	f04f 0900 	mov.w	r9, #0
 800aa3a:	2600      	movs	r6, #0
 800aa3c:	2700      	movs	r7, #0
 800aa3e:	9b06      	ldr	r3, [sp, #24]
 800aa40:	4599      	cmp	r9, r3
 800aa42:	dd06      	ble.n	800aa52 <__kernel_rem_pio2+0x3da>
 800aa44:	9b0a      	ldr	r3, [sp, #40]	; 0x28
 800aa46:	e8e3 6702 	strd	r6, r7, [r3], #8
 800aa4a:	f108 0801 	add.w	r8, r8, #1
 800aa4e:	930a      	str	r3, [sp, #40]	; 0x28
 800aa50:	e7df      	b.n	800aa12 <__kernel_rem_pio2+0x39a>
 800aa52:	e97b 2302 	ldrd	r2, r3, [fp, #-8]!
 800aa56:	e8f4 0102 	ldrd	r0, r1, [r4], #8
 800aa5a:	f7f5 fdc5 	bl	80005e8 <__aeabi_dmul>
 800aa5e:	4602      	mov	r2, r0
 800aa60:	460b      	mov	r3, r1
 800aa62:	4630      	mov	r0, r6
 800aa64:	4639      	mov	r1, r7
 800aa66:	f7f5 fc09 	bl	800027c <__adddf3>
 800aa6a:	f109 0901 	add.w	r9, r9, #1
 800aa6e:	4606      	mov	r6, r0
 800aa70:	460f      	mov	r7, r1
 800aa72:	e7e4      	b.n	800aa3e <__kernel_rem_pio2+0x3c6>
 800aa74:	3d01      	subs	r5, #1
 800aa76:	e748      	b.n	800a90a <__kernel_rem_pio2+0x292>
 800aa78:	ec47 6b10 	vmov	d0, r6, r7
 800aa7c:	f1ca 0000 	rsb	r0, sl, #0
 800aa80:	f000 fc3e 	bl	800b300 <scalbn>
 800aa84:	ec57 6b10 	vmov	r6, r7, d0
 800aa88:	4ba0      	ldr	r3, [pc, #640]	; (800ad0c <__kernel_rem_pio2+0x694>)
 800aa8a:	ee10 0a10 	vmov	r0, s0
 800aa8e:	2200      	movs	r2, #0
 800aa90:	4639      	mov	r1, r7
 800aa92:	f7f6 f82f 	bl	8000af4 <__aeabi_dcmpge>
 800aa96:	b1f8      	cbz	r0, 800aad8 <__kernel_rem_pio2+0x460>
 800aa98:	4b9d      	ldr	r3, [pc, #628]	; (800ad10 <__kernel_rem_pio2+0x698>)
 800aa9a:	2200      	movs	r2, #0
 800aa9c:	4630      	mov	r0, r6
 800aa9e:	4639      	mov	r1, r7
 800aaa0:	f7f5 fda2 	bl	80005e8 <__aeabi_dmul>
 800aaa4:	f7f6 f850 	bl	8000b48 <__aeabi_d2iz>
 800aaa8:	4680      	mov	r8, r0
 800aaaa:	f7f5 fd33 	bl	8000514 <__aeabi_i2d>
 800aaae:	4b97      	ldr	r3, [pc, #604]	; (800ad0c <__kernel_rem_pio2+0x694>)
 800aab0:	2200      	movs	r2, #0
 800aab2:	f7f5 fd99 	bl	80005e8 <__aeabi_dmul>
 800aab6:	460b      	mov	r3, r1
 800aab8:	4602      	mov	r2, r0
 800aaba:	4639      	mov	r1, r7
 800aabc:	4630      	mov	r0, r6
 800aabe:	f7f5 fbdb 	bl	8000278 <__aeabi_dsub>
 800aac2:	f7f6 f841 	bl	8000b48 <__aeabi_d2iz>
 800aac6:	1c65      	adds	r5, r4, #1
 800aac8:	ab0e      	add	r3, sp, #56	; 0x38
 800aaca:	f10a 0a18 	add.w	sl, sl, #24
 800aace:	f843 0024 	str.w	r0, [r3, r4, lsl #2]
 800aad2:	f843 8025 	str.w	r8, [r3, r5, lsl #2]
 800aad6:	e720      	b.n	800a91a <__kernel_rem_pio2+0x2a2>
 800aad8:	4630      	mov	r0, r6
 800aada:	4639      	mov	r1, r7
 800aadc:	f7f6 f834 	bl	8000b48 <__aeabi_d2iz>
 800aae0:	ab0e      	add	r3, sp, #56	; 0x38
 800aae2:	4625      	mov	r5, r4
 800aae4:	f843 0024 	str.w	r0, [r3, r4, lsl #2]
 800aae8:	e717      	b.n	800a91a <__kernel_rem_pio2+0x2a2>
 800aaea:	ab0e      	add	r3, sp, #56	; 0x38
 800aaec:	f853 002a 	ldr.w	r0, [r3, sl, lsl #2]
 800aaf0:	f7f5 fd10 	bl	8000514 <__aeabi_i2d>
 800aaf4:	4632      	mov	r2, r6
 800aaf6:	463b      	mov	r3, r7
 800aaf8:	f7f5 fd76 	bl	80005e8 <__aeabi_dmul>
 800aafc:	4b84      	ldr	r3, [pc, #528]	; (800ad10 <__kernel_rem_pio2+0x698>)
 800aafe:	e968 0102 	strd	r0, r1, [r8, #-8]!
 800ab02:	2200      	movs	r2, #0
 800ab04:	4630      	mov	r0, r6
 800ab06:	4639      	mov	r1, r7
 800ab08:	f7f5 fd6e 	bl	80005e8 <__aeabi_dmul>
 800ab0c:	f10a 3aff 	add.w	sl, sl, #4294967295	; 0xffffffff
 800ab10:	4606      	mov	r6, r0
 800ab12:	460f      	mov	r7, r1
 800ab14:	e70f      	b.n	800a936 <__kernel_rem_pio2+0x2be>
 800ab16:	e8f9 2302 	ldrd	r2, r3, [r9], #8
 800ab1a:	e8fa 0102 	ldrd	r0, r1, [sl], #8
 800ab1e:	f7f5 fd63 	bl	80005e8 <__aeabi_dmul>
 800ab22:	4602      	mov	r2, r0
 800ab24:	460b      	mov	r3, r1
 800ab26:	e9dd 0106 	ldrd	r0, r1, [sp, #24]
 800ab2a:	f7f5 fba7 	bl	800027c <__adddf3>
 800ab2e:	e9cd 0106 	strd	r0, r1, [sp, #24]
 800ab32:	f108 0801 	add.w	r8, r8, #1
 800ab36:	9b02      	ldr	r3, [sp, #8]
 800ab38:	4598      	cmp	r8, r3
 800ab3a:	dc01      	bgt.n	800ab40 <__kernel_rem_pio2+0x4c8>
 800ab3c:	45b8      	cmp	r8, r7
 800ab3e:	ddea      	ble.n	800ab16 <__kernel_rem_pio2+0x49e>
 800ab40:	ed9d 7b06 	vldr	d7, [sp, #24]
 800ab44:	ab4a      	add	r3, sp, #296	; 0x128
 800ab46:	eb03 07c7 	add.w	r7, r3, r7, lsl #3
 800ab4a:	ed87 7b00 	vstr	d7, [r7]
 800ab4e:	3e01      	subs	r6, #1
 800ab50:	e6f8      	b.n	800a944 <__kernel_rem_pio2+0x2cc>
 800ab52:	9ba6      	ldr	r3, [sp, #664]	; 0x298
 800ab54:	2b02      	cmp	r3, #2
 800ab56:	dc0b      	bgt.n	800ab70 <__kernel_rem_pio2+0x4f8>
 800ab58:	2b00      	cmp	r3, #0
 800ab5a:	dc35      	bgt.n	800abc8 <__kernel_rem_pio2+0x550>
 800ab5c:	d059      	beq.n	800ac12 <__kernel_rem_pio2+0x59a>
 800ab5e:	9b04      	ldr	r3, [sp, #16]
 800ab60:	f003 0007 	and.w	r0, r3, #7
 800ab64:	f50d 7d1b 	add.w	sp, sp, #620	; 0x26c
 800ab68:	ecbd 8b02 	vpop	{d8}
 800ab6c:	e8bd 8ff0 	ldmia.w	sp!, {r4, r5, r6, r7, r8, r9, sl, fp, pc}
 800ab70:	9ba6      	ldr	r3, [sp, #664]	; 0x298
 800ab72:	2b03      	cmp	r3, #3
 800ab74:	d1f3      	bne.n	800ab5e <__kernel_rem_pio2+0x4e6>
 800ab76:	ab4a      	add	r3, sp, #296	; 0x128
 800ab78:	4423      	add	r3, r4
 800ab7a:	9306      	str	r3, [sp, #24]
 800ab7c:	461c      	mov	r4, r3
 800ab7e:	469a      	mov	sl, r3
 800ab80:	9502      	str	r5, [sp, #8]
 800ab82:	9b02      	ldr	r3, [sp, #8]
 800ab84:	2b00      	cmp	r3, #0
 800ab86:	f1aa 0a08 	sub.w	sl, sl, #8
 800ab8a:	dc6b      	bgt.n	800ac64 <__kernel_rem_pio2+0x5ec>
 800ab8c:	46aa      	mov	sl, r5
 800ab8e:	f1ba 0f01 	cmp.w	sl, #1
 800ab92:	f1a4 0408 	sub.w	r4, r4, #8
 800ab96:	f300 8085 	bgt.w	800aca4 <__kernel_rem_pio2+0x62c>
 800ab9a:	9c06      	ldr	r4, [sp, #24]
 800ab9c:	2000      	movs	r0, #0
 800ab9e:	3408      	adds	r4, #8
 800aba0:	2100      	movs	r1, #0
 800aba2:	2d01      	cmp	r5, #1
 800aba4:	f300 809d 	bgt.w	800ace2 <__kernel_rem_pio2+0x66a>
 800aba8:	e9dd 564a 	ldrd	r5, r6, [sp, #296]	; 0x128
 800abac:	e9dd 784c 	ldrd	r7, r8, [sp, #304]	; 0x130
 800abb0:	f1bb 0f00 	cmp.w	fp, #0
 800abb4:	f040 809b 	bne.w	800acee <__kernel_rem_pio2+0x676>
 800abb8:	9b01      	ldr	r3, [sp, #4]
 800abba:	e9c3 5600 	strd	r5, r6, [r3]
 800abbe:	e9c3 7802 	strd	r7, r8, [r3, #8]
 800abc2:	e9c3 0104 	strd	r0, r1, [r3, #16]
 800abc6:	e7ca      	b.n	800ab5e <__kernel_rem_pio2+0x4e6>
 800abc8:	3408      	adds	r4, #8
 800abca:	ab4a      	add	r3, sp, #296	; 0x128
 800abcc:	441c      	add	r4, r3
 800abce:	462e      	mov	r6, r5
 800abd0:	2000      	movs	r0, #0
 800abd2:	2100      	movs	r1, #0
 800abd4:	2e00      	cmp	r6, #0
 800abd6:	da36      	bge.n	800ac46 <__kernel_rem_pio2+0x5ce>
 800abd8:	f1bb 0f00 	cmp.w	fp, #0
 800abdc:	d039      	beq.n	800ac52 <__kernel_rem_pio2+0x5da>
 800abde:	4602      	mov	r2, r0
 800abe0:	f101 4300 	add.w	r3, r1, #2147483648	; 0x80000000
 800abe4:	9c01      	ldr	r4, [sp, #4]
 800abe6:	e9c4 2300 	strd	r2, r3, [r4]
 800abea:	4602      	mov	r2, r0
 800abec:	460b      	mov	r3, r1
 800abee:	e9dd 014a 	ldrd	r0, r1, [sp, #296]	; 0x128
 800abf2:	f7f5 fb41 	bl	8000278 <__aeabi_dsub>
 800abf6:	ae4c      	add	r6, sp, #304	; 0x130
 800abf8:	2401      	movs	r4, #1
 800abfa:	42a5      	cmp	r5, r4
 800abfc:	da2c      	bge.n	800ac58 <__kernel_rem_pio2+0x5e0>
 800abfe:	f1bb 0f00 	cmp.w	fp, #0
 800ac02:	d002      	beq.n	800ac0a <__kernel_rem_pio2+0x592>
 800ac04:	f101 4300 	add.w	r3, r1, #2147483648	; 0x80000000
 800ac08:	4619      	mov	r1, r3
 800ac0a:	9b01      	ldr	r3, [sp, #4]
 800ac0c:	e9c3 0102 	strd	r0, r1, [r3, #8]
 800ac10:	e7a5      	b.n	800ab5e <__kernel_rem_pio2+0x4e6>
 800ac12:	f504 731a 	add.w	r3, r4, #616	; 0x268
 800ac16:	eb0d 0403 	add.w	r4, sp, r3
 800ac1a:	f5a4 749c 	sub.w	r4, r4, #312	; 0x138
 800ac1e:	2000      	movs	r0, #0
 800ac20:	2100      	movs	r1, #0
 800ac22:	2d00      	cmp	r5, #0
 800ac24:	da09      	bge.n	800ac3a <__kernel_rem_pio2+0x5c2>
 800ac26:	f1bb 0f00 	cmp.w	fp, #0
 800ac2a:	d002      	beq.n	800ac32 <__kernel_rem_pio2+0x5ba>
 800ac2c:	f101 4300 	add.w	r3, r1, #2147483648	; 0x80000000
 800ac30:	4619      	mov	r1, r3
 800ac32:	9b01      	ldr	r3, [sp, #4]
 800ac34:	e9c3 0100 	strd	r0, r1, [r3]
 800ac38:	e791      	b.n	800ab5e <__kernel_rem_pio2+0x4e6>
 800ac3a:	e974 2302 	ldrd	r2, r3, [r4, #-8]!
 800ac3e:	f7f5 fb1d 	bl	800027c <__adddf3>
 800ac42:	3d01      	subs	r5, #1
 800ac44:	e7ed      	b.n	800ac22 <__kernel_rem_pio2+0x5aa>
 800ac46:	e974 2302 	ldrd	r2, r3, [r4, #-8]!
 800ac4a:	f7f5 fb17 	bl	800027c <__adddf3>
 800ac4e:	3e01      	subs	r6, #1
 800ac50:	e7c0      	b.n	800abd4 <__kernel_rem_pio2+0x55c>
 800ac52:	4602      	mov	r2, r0
 800ac54:	460b      	mov	r3, r1
 800ac56:	e7c5      	b.n	800abe4 <__kernel_rem_pio2+0x56c>
 800ac58:	e8f6 2302 	ldrd	r2, r3, [r6], #8
 800ac5c:	f7f5 fb0e 	bl	800027c <__adddf3>
 800ac60:	3401      	adds	r4, #1
 800ac62:	e7ca      	b.n	800abfa <__kernel_rem_pio2+0x582>
 800ac64:	e9da 8900 	ldrd	r8, r9, [sl]
 800ac68:	e9da 6702 	ldrd	r6, r7, [sl, #8]
 800ac6c:	9b02      	ldr	r3, [sp, #8]
 800ac6e:	3b01      	subs	r3, #1
 800ac70:	9302      	str	r3, [sp, #8]
 800ac72:	4632      	mov	r2, r6
 800ac74:	463b      	mov	r3, r7
 800ac76:	4640      	mov	r0, r8
 800ac78:	4649      	mov	r1, r9
 800ac7a:	f7f5 faff 	bl	800027c <__adddf3>
 800ac7e:	e9cd 0108 	strd	r0, r1, [sp, #32]
 800ac82:	4602      	mov	r2, r0
 800ac84:	460b      	mov	r3, r1
 800ac86:	4640      	mov	r0, r8
 800ac88:	4649      	mov	r1, r9
 800ac8a:	f7f5 faf5 	bl	8000278 <__aeabi_dsub>
 800ac8e:	4632      	mov	r2, r6
 800ac90:	463b      	mov	r3, r7
 800ac92:	f7f5 faf3 	bl	800027c <__adddf3>
 800ac96:	ed9d 7b08 	vldr	d7, [sp, #32]
 800ac9a:	e9ca 0102 	strd	r0, r1, [sl, #8]
 800ac9e:	ed8a 7b00 	vstr	d7, [sl]
 800aca2:	e76e      	b.n	800ab82 <__kernel_rem_pio2+0x50a>
 800aca4:	e9d4 8900 	ldrd	r8, r9, [r4]
 800aca8:	e9d4 6702 	ldrd	r6, r7, [r4, #8]
 800acac:	4640      	mov	r0, r8
 800acae:	4632      	mov	r2, r6
 800acb0:	463b      	mov	r3, r7
 800acb2:	4649      	mov	r1, r9
 800acb4:	f7f5 fae2 	bl	800027c <__adddf3>
 800acb8:	e9cd 0102 	strd	r0, r1, [sp, #8]
 800acbc:	4602      	mov	r2, r0
 800acbe:	460b      	mov	r3, r1
 800acc0:	4640      	mov	r0, r8
 800acc2:	4649      	mov	r1, r9
 800acc4:	f7f5 fad8 	bl	8000278 <__aeabi_dsub>
 800acc8:	4632      	mov	r2, r6
 800acca:	463b      	mov	r3, r7
 800accc:	f7f5 fad6 	bl	800027c <__adddf3>
 800acd0:	ed9d 7b02 	vldr	d7, [sp, #8]
 800acd4:	e9c4 0102 	strd	r0, r1, [r4, #8]
 800acd8:	ed84 7b00 	vstr	d7, [r4]
 800acdc:	f10a 3aff 	add.w	sl, sl, #4294967295	; 0xffffffff
 800ace0:	e755      	b.n	800ab8e <__kernel_rem_pio2+0x516>
 800ace2:	e974 2302 	ldrd	r2, r3, [r4, #-8]!
 800ace6:	f7f5 fac9 	bl	800027c <__adddf3>
 800acea:	3d01      	subs	r5, #1
 800acec:	e759      	b.n	800aba2 <__kernel_rem_pio2+0x52a>
 800acee:	9b01      	ldr	r3, [sp, #4]
 800acf0:	9a01      	ldr	r2, [sp, #4]
 800acf2:	601d      	str	r5, [r3, #0]
 800acf4:	f106 4400 	add.w	r4, r6, #2147483648	; 0x80000000
 800acf8:	605c      	str	r4, [r3, #4]
 800acfa:	609f      	str	r7, [r3, #8]
 800acfc:	f108 4300 	add.w	r3, r8, #2147483648	; 0x80000000
 800ad00:	60d3      	str	r3, [r2, #12]
 800ad02:	f101 4300 	add.w	r3, r1, #2147483648	; 0x80000000
 800ad06:	6110      	str	r0, [r2, #16]
 800ad08:	6153      	str	r3, [r2, #20]
 800ad0a:	e728      	b.n	800ab5e <__kernel_rem_pio2+0x4e6>
 800ad0c:	41700000 	.word	0x41700000
 800ad10:	3e700000 	.word	0x3e700000
 800ad14:	00000000 	.word	0x00000000

0800ad18 <__kernel_sin>:
 800ad18:	e92d 4ff0 	stmdb	sp!, {r4, r5, r6, r7, r8, r9, sl, fp, lr}
 800ad1c:	ed2d 8b04 	vpush	{d8-d9}
 800ad20:	eeb0 8a41 	vmov.f32	s16, s2
 800ad24:	eef0 8a61 	vmov.f32	s17, s3
 800ad28:	ec55 4b10 	vmov	r4, r5, d0
 800ad2c:	b083      	sub	sp, #12
 800ad2e:	f025 4300 	bic.w	r3, r5, #2147483648	; 0x80000000
 800ad32:	f1b3 5f79 	cmp.w	r3, #1044381696	; 0x3e400000
 800ad36:	9001      	str	r0, [sp, #4]
 800ad38:	da06      	bge.n	800ad48 <__kernel_sin+0x30>
 800ad3a:	ee10 0a10 	vmov	r0, s0
 800ad3e:	4629      	mov	r1, r5
 800ad40:	f7f5 ff02 	bl	8000b48 <__aeabi_d2iz>
 800ad44:	2800      	cmp	r0, #0
 800ad46:	d051      	beq.n	800adec <__kernel_sin+0xd4>
 800ad48:	4622      	mov	r2, r4
 800ad4a:	462b      	mov	r3, r5
 800ad4c:	4620      	mov	r0, r4
 800ad4e:	4629      	mov	r1, r5
 800ad50:	f7f5 fc4a 	bl	80005e8 <__aeabi_dmul>
 800ad54:	4682      	mov	sl, r0
 800ad56:	468b      	mov	fp, r1
 800ad58:	4602      	mov	r2, r0
 800ad5a:	460b      	mov	r3, r1
 800ad5c:	4620      	mov	r0, r4
 800ad5e:	4629      	mov	r1, r5
 800ad60:	f7f5 fc42 	bl	80005e8 <__aeabi_dmul>
 800ad64:	a341      	add	r3, pc, #260	; (adr r3, 800ae6c <__kernel_sin+0x154>)
 800ad66:	e9d3 2300 	ldrd	r2, r3, [r3]
 800ad6a:	4680      	mov	r8, r0
 800ad6c:	4689      	mov	r9, r1
 800ad6e:	4650      	mov	r0, sl
 800ad70:	4659      	mov	r1, fp
 800ad72:	f7f5 fc39 	bl	80005e8 <__aeabi_dmul>
 800ad76:	a33f      	add	r3, pc, #252	; (adr r3, 800ae74 <__kernel_sin+0x15c>)
 800ad78:	e9d3 2300 	ldrd	r2, r3, [r3]
 800ad7c:	f7f5 fa7c 	bl	8000278 <__aeabi_dsub>
 800ad80:	4652      	mov	r2, sl
 800ad82:	465b      	mov	r3, fp
 800ad84:	f7f5 fc30 	bl	80005e8 <__aeabi_dmul>
 800ad88:	a33c      	add	r3, pc, #240	; (adr r3, 800ae7c <__kernel_sin+0x164>)
 800ad8a:	e9d3 2300 	ldrd	r2, r3, [r3]
 800ad8e:	f7f5 fa75 	bl	800027c <__adddf3>
 800ad92:	4652      	mov	r2, sl
 800ad94:	465b      	mov	r3, fp
 800ad96:	f7f5 fc27 	bl	80005e8 <__aeabi_dmul>
 800ad9a:	a33a      	add	r3, pc, #232	; (adr r3, 800ae84 <__kernel_sin+0x16c>)
 800ad9c:	e9d3 2300 	ldrd	r2, r3, [r3]
 800ada0:	f7f5 fa6a 	bl	8000278 <__aeabi_dsub>
 800ada4:	4652      	mov	r2, sl
 800ada6:	465b      	mov	r3, fp
 800ada8:	f7f5 fc1e 	bl	80005e8 <__aeabi_dmul>
 800adac:	a337      	add	r3, pc, #220	; (adr r3, 800ae8c <__kernel_sin+0x174>)
 800adae:	e9d3 2300 	ldrd	r2, r3, [r3]
 800adb2:	f7f5 fa63 	bl	800027c <__adddf3>
 800adb6:	9b01      	ldr	r3, [sp, #4]
 800adb8:	4606      	mov	r6, r0
 800adba:	460f      	mov	r7, r1
 800adbc:	b9eb      	cbnz	r3, 800adfa <__kernel_sin+0xe2>
 800adbe:	4602      	mov	r2, r0
 800adc0:	460b      	mov	r3, r1
 800adc2:	4650      	mov	r0, sl
 800adc4:	4659      	mov	r1, fp
 800adc6:	f7f5 fc0f 	bl	80005e8 <__aeabi_dmul>
 800adca:	a325      	add	r3, pc, #148	; (adr r3, 800ae60 <__kernel_sin+0x148>)
 800adcc:	e9d3 2300 	ldrd	r2, r3, [r3]
 800add0:	f7f5 fa52 	bl	8000278 <__aeabi_dsub>
 800add4:	4642      	mov	r2, r8
 800add6:	464b      	mov	r3, r9
 800add8:	f7f5 fc06 	bl	80005e8 <__aeabi_dmul>
 800addc:	4602      	mov	r2, r0
 800adde:	460b      	mov	r3, r1
 800ade0:	4620      	mov	r0, r4
 800ade2:	4629      	mov	r1, r5
 800ade4:	f7f5 fa4a 	bl	800027c <__adddf3>
 800ade8:	4604      	mov	r4, r0
 800adea:	460d      	mov	r5, r1
 800adec:	ec45 4b10 	vmov	d0, r4, r5
 800adf0:	b003      	add	sp, #12
 800adf2:	ecbd 8b04 	vpop	{d8-d9}
 800adf6:	e8bd 8ff0 	ldmia.w	sp!, {r4, r5, r6, r7, r8, r9, sl, fp, pc}
 800adfa:	4b1b      	ldr	r3, [pc, #108]	; (800ae68 <__kernel_sin+0x150>)
 800adfc:	ec51 0b18 	vmov	r0, r1, d8
 800ae00:	2200      	movs	r2, #0
 800ae02:	f7f5 fbf1 	bl	80005e8 <__aeabi_dmul>
 800ae06:	4632      	mov	r2, r6
 800ae08:	ec41 0b19 	vmov	d9, r0, r1
 800ae0c:	463b      	mov	r3, r7
 800ae0e:	4640      	mov	r0, r8
 800ae10:	4649      	mov	r1, r9
 800ae12:	f7f5 fbe9 	bl	80005e8 <__aeabi_dmul>
 800ae16:	4602      	mov	r2, r0
 800ae18:	460b      	mov	r3, r1
 800ae1a:	ec51 0b19 	vmov	r0, r1, d9
 800ae1e:	f7f5 fa2b 	bl	8000278 <__aeabi_dsub>
 800ae22:	4652      	mov	r2, sl
 800ae24:	465b      	mov	r3, fp
 800ae26:	f7f5 fbdf 	bl	80005e8 <__aeabi_dmul>
 800ae2a:	ec53 2b18 	vmov	r2, r3, d8
 800ae2e:	f7f5 fa23 	bl	8000278 <__aeabi_dsub>
 800ae32:	a30b      	add	r3, pc, #44	; (adr r3, 800ae60 <__kernel_sin+0x148>)
 800ae34:	e9d3 2300 	ldrd	r2, r3, [r3]
 800ae38:	4606      	mov	r6, r0
 800ae3a:	460f      	mov	r7, r1
 800ae3c:	4640      	mov	r0, r8
 800ae3e:	4649      	mov	r1, r9
 800ae40:	f7f5 fbd2 	bl	80005e8 <__aeabi_dmul>
 800ae44:	4602      	mov	r2, r0
 800ae46:	460b      	mov	r3, r1
 800ae48:	4630      	mov	r0, r6
 800ae4a:	4639      	mov	r1, r7
 800ae4c:	f7f5 fa16 	bl	800027c <__adddf3>
 800ae50:	4602      	mov	r2, r0
 800ae52:	460b      	mov	r3, r1
 800ae54:	4620      	mov	r0, r4
 800ae56:	4629      	mov	r1, r5
 800ae58:	f7f5 fa0e 	bl	8000278 <__aeabi_dsub>
 800ae5c:	e7c4      	b.n	800ade8 <__kernel_sin+0xd0>
 800ae5e:	bf00      	nop
 800ae60:	55555549 	.word	0x55555549
 800ae64:	3fc55555 	.word	0x3fc55555
 800ae68:	3fe00000 	.word	0x3fe00000
 800ae6c:	5acfd57c 	.word	0x5acfd57c
 800ae70:	3de5d93a 	.word	0x3de5d93a
 800ae74:	8a2b9ceb 	.word	0x8a2b9ceb
 800ae78:	3e5ae5e6 	.word	0x3e5ae5e6
 800ae7c:	57b1fe7d 	.word	0x57b1fe7d
 800ae80:	3ec71de3 	.word	0x3ec71de3
 800ae84:	19c161d5 	.word	0x19c161d5
 800ae88:	3f2a01a0 	.word	0x3f2a01a0
 800ae8c:	1110f8a6 	.word	0x1110f8a6
 800ae90:	3f811111 	.word	0x3f811111
 800ae94:	00000000 	.word	0x00000000

0800ae98 <atan>:
 800ae98:	e92d 4ff8 	stmdb	sp!, {r3, r4, r5, r6, r7, r8, r9, sl, fp, lr}
 800ae9c:	ec55 4b10 	vmov	r4, r5, d0
 800aea0:	4bc3      	ldr	r3, [pc, #780]	; (800b1b0 <atan+0x318>)
 800aea2:	f025 4600 	bic.w	r6, r5, #2147483648	; 0x80000000
 800aea6:	429e      	cmp	r6, r3
 800aea8:	46ab      	mov	fp, r5
 800aeaa:	dd18      	ble.n	800aede <atan+0x46>
 800aeac:	4bc1      	ldr	r3, [pc, #772]	; (800b1b4 <atan+0x31c>)
 800aeae:	429e      	cmp	r6, r3
 800aeb0:	dc01      	bgt.n	800aeb6 <atan+0x1e>
 800aeb2:	d109      	bne.n	800aec8 <atan+0x30>
 800aeb4:	b144      	cbz	r4, 800aec8 <atan+0x30>
 800aeb6:	4622      	mov	r2, r4
 800aeb8:	462b      	mov	r3, r5
 800aeba:	4620      	mov	r0, r4
 800aebc:	4629      	mov	r1, r5
 800aebe:	f7f5 f9dd 	bl	800027c <__adddf3>
 800aec2:	4604      	mov	r4, r0
 800aec4:	460d      	mov	r5, r1
 800aec6:	e006      	b.n	800aed6 <atan+0x3e>
 800aec8:	f1bb 0f00 	cmp.w	fp, #0
 800aecc:	f300 8131 	bgt.w	800b132 <atan+0x29a>
 800aed0:	a59b      	add	r5, pc, #620	; (adr r5, 800b140 <atan+0x2a8>)
 800aed2:	e9d5 4500 	ldrd	r4, r5, [r5]
 800aed6:	ec45 4b10 	vmov	d0, r4, r5
 800aeda:	e8bd 8ff8 	ldmia.w	sp!, {r3, r4, r5, r6, r7, r8, r9, sl, fp, pc}
 800aede:	4bb6      	ldr	r3, [pc, #728]	; (800b1b8 <atan+0x320>)
 800aee0:	429e      	cmp	r6, r3
 800aee2:	dc14      	bgt.n	800af0e <atan+0x76>
 800aee4:	f1a3 73de 	sub.w	r3, r3, #29097984	; 0x1bc0000
 800aee8:	429e      	cmp	r6, r3
 800aeea:	dc0d      	bgt.n	800af08 <atan+0x70>
 800aeec:	a396      	add	r3, pc, #600	; (adr r3, 800b148 <atan+0x2b0>)
 800aeee:	e9d3 2300 	ldrd	r2, r3, [r3]
 800aef2:	ee10 0a10 	vmov	r0, s0
 800aef6:	4629      	mov	r1, r5
 800aef8:	f7f5 f9c0 	bl	800027c <__adddf3>
 800aefc:	4baf      	ldr	r3, [pc, #700]	; (800b1bc <atan+0x324>)
 800aefe:	2200      	movs	r2, #0
 800af00:	f7f5 fe02 	bl	8000b08 <__aeabi_dcmpgt>
 800af04:	2800      	cmp	r0, #0
 800af06:	d1e6      	bne.n	800aed6 <atan+0x3e>
 800af08:	f04f 3aff 	mov.w	sl, #4294967295	; 0xffffffff
 800af0c:	e02b      	b.n	800af66 <atan+0xce>
 800af0e:	f000 f963 	bl	800b1d8 <fabs>
 800af12:	4bab      	ldr	r3, [pc, #684]	; (800b1c0 <atan+0x328>)
 800af14:	429e      	cmp	r6, r3
 800af16:	ec55 4b10 	vmov	r4, r5, d0
 800af1a:	f300 80bf 	bgt.w	800b09c <atan+0x204>
 800af1e:	f5a3 2350 	sub.w	r3, r3, #851968	; 0xd0000
 800af22:	429e      	cmp	r6, r3
 800af24:	f300 80a0 	bgt.w	800b068 <atan+0x1d0>
 800af28:	ee10 2a10 	vmov	r2, s0
 800af2c:	ee10 0a10 	vmov	r0, s0
 800af30:	462b      	mov	r3, r5
 800af32:	4629      	mov	r1, r5
 800af34:	f7f5 f9a2 	bl	800027c <__adddf3>
 800af38:	4ba0      	ldr	r3, [pc, #640]	; (800b1bc <atan+0x324>)
 800af3a:	2200      	movs	r2, #0
 800af3c:	f7f5 f99c 	bl	8000278 <__aeabi_dsub>
 800af40:	2200      	movs	r2, #0
 800af42:	4606      	mov	r6, r0
 800af44:	460f      	mov	r7, r1
 800af46:	f04f 4380 	mov.w	r3, #1073741824	; 0x40000000
 800af4a:	4620      	mov	r0, r4
 800af4c:	4629      	mov	r1, r5
 800af4e:	f7f5 f995 	bl	800027c <__adddf3>
 800af52:	4602      	mov	r2, r0
 800af54:	460b      	mov	r3, r1
 800af56:	4630      	mov	r0, r6
 800af58:	4639      	mov	r1, r7
 800af5a:	f7f5 fc6f 	bl	800083c <__aeabi_ddiv>
 800af5e:	f04f 0a00 	mov.w	sl, #0
 800af62:	4604      	mov	r4, r0
 800af64:	460d      	mov	r5, r1
 800af66:	4622      	mov	r2, r4
 800af68:	462b      	mov	r3, r5
 800af6a:	4620      	mov	r0, r4
 800af6c:	4629      	mov	r1, r5
 800af6e:	f7f5 fb3b 	bl	80005e8 <__aeabi_dmul>
 800af72:	4602      	mov	r2, r0
 800af74:	460b      	mov	r3, r1
 800af76:	4680      	mov	r8, r0
 800af78:	4689      	mov	r9, r1
 800af7a:	f7f5 fb35 	bl	80005e8 <__aeabi_dmul>
 800af7e:	a374      	add	r3, pc, #464	; (adr r3, 800b150 <atan+0x2b8>)
 800af80:	e9d3 2300 	ldrd	r2, r3, [r3]
 800af84:	4606      	mov	r6, r0
 800af86:	460f      	mov	r7, r1
 800af88:	f7f5 fb2e 	bl	80005e8 <__aeabi_dmul>
 800af8c:	a372      	add	r3, pc, #456	; (adr r3, 800b158 <atan+0x2c0>)
 800af8e:	e9d3 2300 	ldrd	r2, r3, [r3]
 800af92:	f7f5 f973 	bl	800027c <__adddf3>
 800af96:	4632      	mov	r2, r6
 800af98:	463b      	mov	r3, r7
 800af9a:	f7f5 fb25 	bl	80005e8 <__aeabi_dmul>
 800af9e:	a370      	add	r3, pc, #448	; (adr r3, 800b160 <atan+0x2c8>)
 800afa0:	e9d3 2300 	ldrd	r2, r3, [r3]
 800afa4:	f7f5 f96a 	bl	800027c <__adddf3>
 800afa8:	4632      	mov	r2, r6
 800afaa:	463b      	mov	r3, r7
 800afac:	f7f5 fb1c 	bl	80005e8 <__aeabi_dmul>
 800afb0:	a36d      	add	r3, pc, #436	; (adr r3, 800b168 <atan+0x2d0>)
 800afb2:	e9d3 2300 	ldrd	r2, r3, [r3]
 800afb6:	f7f5 f961 	bl	800027c <__adddf3>
 800afba:	4632      	mov	r2, r6
 800afbc:	463b      	mov	r3, r7
 800afbe:	f7f5 fb13 	bl	80005e8 <__aeabi_dmul>
 800afc2:	a36b      	add	r3, pc, #428	; (adr r3, 800b170 <atan+0x2d8>)
 800afc4:	e9d3 2300 	ldrd	r2, r3, [r3]
 800afc8:	f7f5 f958 	bl	800027c <__adddf3>
 800afcc:	4632      	mov	r2, r6
 800afce:	463b      	mov	r3, r7
 800afd0:	f7f5 fb0a 	bl	80005e8 <__aeabi_dmul>
 800afd4:	a368      	add	r3, pc, #416	; (adr r3, 800b178 <atan+0x2e0>)
 800afd6:	e9d3 2300 	ldrd	r2, r3, [r3]
 800afda:	f7f5 f94f 	bl	800027c <__adddf3>
 800afde:	4642      	mov	r2, r8
 800afe0:	464b      	mov	r3, r9
 800afe2:	f7f5 fb01 	bl	80005e8 <__aeabi_dmul>
 800afe6:	a366      	add	r3, pc, #408	; (adr r3, 800b180 <atan+0x2e8>)
 800afe8:	e9d3 2300 	ldrd	r2, r3, [r3]
 800afec:	4680      	mov	r8, r0
 800afee:	4689      	mov	r9, r1
 800aff0:	4630      	mov	r0, r6
 800aff2:	4639      	mov	r1, r7
 800aff4:	f7f5 faf8 	bl	80005e8 <__aeabi_dmul>
 800aff8:	a363      	add	r3, pc, #396	; (adr r3, 800b188 <atan+0x2f0>)
 800affa:	e9d3 2300 	ldrd	r2, r3, [r3]
 800affe:	f7f5 f93b 	bl	8000278 <__aeabi_dsub>
 800b002:	4632      	mov	r2, r6
 800b004:	463b      	mov	r3, r7
 800b006:	f7f5 faef 	bl	80005e8 <__aeabi_dmul>
 800b00a:	a361      	add	r3, pc, #388	; (adr r3, 800b190 <atan+0x2f8>)
 800b00c:	e9d3 2300 	ldrd	r2, r3, [r3]
 800b010:	f7f5 f932 	bl	8000278 <__aeabi_dsub>
 800b014:	4632      	mov	r2, r6
 800b016:	463b      	mov	r3, r7
 800b018:	f7f5 fae6 	bl	80005e8 <__aeabi_dmul>
 800b01c:	a35e      	add	r3, pc, #376	; (adr r3, 800b198 <atan+0x300>)
 800b01e:	e9d3 2300 	ldrd	r2, r3, [r3]
 800b022:	f7f5 f929 	bl	8000278 <__aeabi_dsub>
 800b026:	4632      	mov	r2, r6
 800b028:	463b      	mov	r3, r7
 800b02a:	f7f5 fadd 	bl	80005e8 <__aeabi_dmul>
 800b02e:	a35c      	add	r3, pc, #368	; (adr r3, 800b1a0 <atan+0x308>)
 800b030:	e9d3 2300 	ldrd	r2, r3, [r3]
 800b034:	f7f5 f920 	bl	8000278 <__aeabi_dsub>
 800b038:	4632      	mov	r2, r6
 800b03a:	463b      	mov	r3, r7
 800b03c:	f7f5 fad4 	bl	80005e8 <__aeabi_dmul>
 800b040:	4602      	mov	r2, r0
 800b042:	460b      	mov	r3, r1
 800b044:	4640      	mov	r0, r8
 800b046:	4649      	mov	r1, r9
 800b048:	f7f5 f918 	bl	800027c <__adddf3>
 800b04c:	4622      	mov	r2, r4
 800b04e:	462b      	mov	r3, r5
 800b050:	f7f5 faca 	bl	80005e8 <__aeabi_dmul>
 800b054:	f1ba 3fff 	cmp.w	sl, #4294967295	; 0xffffffff
 800b058:	4602      	mov	r2, r0
 800b05a:	460b      	mov	r3, r1
 800b05c:	d14b      	bne.n	800b0f6 <atan+0x25e>
 800b05e:	4620      	mov	r0, r4
 800b060:	4629      	mov	r1, r5
 800b062:	f7f5 f909 	bl	8000278 <__aeabi_dsub>
 800b066:	e72c      	b.n	800aec2 <atan+0x2a>
 800b068:	ee10 0a10 	vmov	r0, s0
 800b06c:	4b53      	ldr	r3, [pc, #332]	; (800b1bc <atan+0x324>)
 800b06e:	2200      	movs	r2, #0
 800b070:	4629      	mov	r1, r5
 800b072:	f7f5 f901 	bl	8000278 <__aeabi_dsub>
 800b076:	4b51      	ldr	r3, [pc, #324]	; (800b1bc <atan+0x324>)
 800b078:	4606      	mov	r6, r0
 800b07a:	460f      	mov	r7, r1
 800b07c:	2200      	movs	r2, #0
 800b07e:	4620      	mov	r0, r4
 800b080:	4629      	mov	r1, r5
 800b082:	f7f5 f8fb 	bl	800027c <__adddf3>
 800b086:	4602      	mov	r2, r0
 800b088:	460b      	mov	r3, r1
 800b08a:	4630      	mov	r0, r6
 800b08c:	4639      	mov	r1, r7
 800b08e:	f7f5 fbd5 	bl	800083c <__aeabi_ddiv>
 800b092:	f04f 0a01 	mov.w	sl, #1
 800b096:	4604      	mov	r4, r0
 800b098:	460d      	mov	r5, r1
 800b09a:	e764      	b.n	800af66 <atan+0xce>
 800b09c:	4b49      	ldr	r3, [pc, #292]	; (800b1c4 <atan+0x32c>)
 800b09e:	429e      	cmp	r6, r3
 800b0a0:	da1d      	bge.n	800b0de <atan+0x246>
 800b0a2:	ee10 0a10 	vmov	r0, s0
 800b0a6:	4b48      	ldr	r3, [pc, #288]	; (800b1c8 <atan+0x330>)
 800b0a8:	2200      	movs	r2, #0
 800b0aa:	4629      	mov	r1, r5
 800b0ac:	f7f5 f8e4 	bl	8000278 <__aeabi_dsub>
 800b0b0:	4b45      	ldr	r3, [pc, #276]	; (800b1c8 <atan+0x330>)
 800b0b2:	4606      	mov	r6, r0
 800b0b4:	460f      	mov	r7, r1
 800b0b6:	2200      	movs	r2, #0
 800b0b8:	4620      	mov	r0, r4
 800b0ba:	4629      	mov	r1, r5
 800b0bc:	f7f5 fa94 	bl	80005e8 <__aeabi_dmul>
 800b0c0:	4b3e      	ldr	r3, [pc, #248]	; (800b1bc <atan+0x324>)
 800b0c2:	2200      	movs	r2, #0
 800b0c4:	f7f5 f8da 	bl	800027c <__adddf3>
 800b0c8:	4602      	mov	r2, r0
 800b0ca:	460b      	mov	r3, r1
 800b0cc:	4630      	mov	r0, r6
 800b0ce:	4639      	mov	r1, r7
 800b0d0:	f7f5 fbb4 	bl	800083c <__aeabi_ddiv>
 800b0d4:	f04f 0a02 	mov.w	sl, #2
 800b0d8:	4604      	mov	r4, r0
 800b0da:	460d      	mov	r5, r1
 800b0dc:	e743      	b.n	800af66 <atan+0xce>
 800b0de:	462b      	mov	r3, r5
 800b0e0:	ee10 2a10 	vmov	r2, s0
 800b0e4:	4939      	ldr	r1, [pc, #228]	; (800b1cc <atan+0x334>)
 800b0e6:	2000      	movs	r0, #0
 800b0e8:	f7f5 fba8 	bl	800083c <__aeabi_ddiv>
 800b0ec:	f04f 0a03 	mov.w	sl, #3
 800b0f0:	4604      	mov	r4, r0
 800b0f2:	460d      	mov	r5, r1
 800b0f4:	e737      	b.n	800af66 <atan+0xce>
 800b0f6:	4b36      	ldr	r3, [pc, #216]	; (800b1d0 <atan+0x338>)
 800b0f8:	4e36      	ldr	r6, [pc, #216]	; (800b1d4 <atan+0x33c>)
 800b0fa:	eb06 06ca 	add.w	r6, r6, sl, lsl #3
 800b0fe:	eb03 0aca 	add.w	sl, r3, sl, lsl #3
 800b102:	e9da 2300 	ldrd	r2, r3, [sl]
 800b106:	f7f5 f8b7 	bl	8000278 <__aeabi_dsub>
 800b10a:	4622      	mov	r2, r4
 800b10c:	462b      	mov	r3, r5
 800b10e:	f7f5 f8b3 	bl	8000278 <__aeabi_dsub>
 800b112:	4602      	mov	r2, r0
 800b114:	460b      	mov	r3, r1
 800b116:	e9d6 0100 	ldrd	r0, r1, [r6]
 800b11a:	f7f5 f8ad 	bl	8000278 <__aeabi_dsub>
 800b11e:	f1bb 0f00 	cmp.w	fp, #0
 800b122:	4604      	mov	r4, r0
 800b124:	460d      	mov	r5, r1
 800b126:	f6bf aed6 	bge.w	800aed6 <atan+0x3e>
 800b12a:	f101 4300 	add.w	r3, r1, #2147483648	; 0x80000000
 800b12e:	461d      	mov	r5, r3
 800b130:	e6d1      	b.n	800aed6 <atan+0x3e>
 800b132:	a51d      	add	r5, pc, #116	; (adr r5, 800b1a8 <atan+0x310>)
 800b134:	e9d5 4500 	ldrd	r4, r5, [r5]
 800b138:	e6cd      	b.n	800aed6 <atan+0x3e>
 800b13a:	bf00      	nop
 800b13c:	f3af 8000 	nop.w
 800b140:	54442d18 	.word	0x54442d18
 800b144:	bff921fb 	.word	0xbff921fb
 800b148:	8800759c 	.word	0x8800759c
 800b14c:	7e37e43c 	.word	0x7e37e43c
 800b150:	e322da11 	.word	0xe322da11
 800b154:	3f90ad3a 	.word	0x3f90ad3a
 800b158:	24760deb 	.word	0x24760deb
 800b15c:	3fa97b4b 	.word	0x3fa97b4b
 800b160:	a0d03d51 	.word	0xa0d03d51
 800b164:	3fb10d66 	.word	0x3fb10d66
 800b168:	c54c206e 	.word	0xc54c206e
 800b16c:	3fb745cd 	.word	0x3fb745cd
 800b170:	920083ff 	.word	0x920083ff
 800b174:	3fc24924 	.word	0x3fc24924
 800b178:	5555550d 	.word	0x5555550d
 800b17c:	3fd55555 	.word	0x3fd55555
 800b180:	2c6a6c2f 	.word	0x2c6a6c2f
 800b184:	bfa2b444 	.word	0xbfa2b444
 800b188:	52defd9a 	.word	0x52defd9a
 800b18c:	3fadde2d 	.word	0x3fadde2d
 800b190:	af749a6d 	.word	0xaf749a6d
 800b194:	3fb3b0f2 	.word	0x3fb3b0f2
 800b198:	fe231671 	.word	0xfe231671
 800b19c:	3fbc71c6 	.word	0x3fbc71c6
 800b1a0:	9998ebc4 	.word	0x9998ebc4
 800b1a4:	3fc99999 	.word	0x3fc99999
 800b1a8:	54442d18 	.word	0x54442d18
 800b1ac:	3ff921fb 	.word	0x3ff921fb
 800b1b0:	440fffff 	.word	0x440fffff
 800b1b4:	7ff00000 	.word	0x7ff00000
 800b1b8:	3fdbffff 	.word	0x3fdbffff
 800b1bc:	3ff00000 	.word	0x3ff00000
 800b1c0:	3ff2ffff 	.word	0x3ff2ffff
 800b1c4:	40038000 	.word	0x40038000
 800b1c8:	3ff80000 	.word	0x3ff80000
 800b1cc:	bff00000 	.word	0xbff00000
 800b1d0:	0800b840 	.word	0x0800b840
 800b1d4:	0800b820 	.word	0x0800b820

0800b1d8 <fabs>:
 800b1d8:	ec51 0b10 	vmov	r0, r1, d0
 800b1dc:	ee10 2a10 	vmov	r2, s0
 800b1e0:	f021 4300 	bic.w	r3, r1, #2147483648	; 0x80000000
 800b1e4:	ec43 2b10 	vmov	d0, r2, r3
 800b1e8:	4770      	bx	lr
 800b1ea:	0000      	movs	r0, r0
 800b1ec:	0000      	movs	r0, r0
	...

0800b1f0 <floor>:
 800b1f0:	ec51 0b10 	vmov	r0, r1, d0
 800b1f4:	e92d 41f0 	stmdb	sp!, {r4, r5, r6, r7, r8, lr}
 800b1f8:	f3c1 570a 	ubfx	r7, r1, #20, #11
 800b1fc:	f2a7 36ff 	subw	r6, r7, #1023	; 0x3ff
 800b200:	2e13      	cmp	r6, #19
 800b202:	ee10 5a10 	vmov	r5, s0
 800b206:	ee10 8a10 	vmov	r8, s0
 800b20a:	460c      	mov	r4, r1
 800b20c:	dc32      	bgt.n	800b274 <floor+0x84>
 800b20e:	2e00      	cmp	r6, #0
 800b210:	da14      	bge.n	800b23c <floor+0x4c>
 800b212:	a333      	add	r3, pc, #204	; (adr r3, 800b2e0 <floor+0xf0>)
 800b214:	e9d3 2300 	ldrd	r2, r3, [r3]
 800b218:	f7f5 f830 	bl	800027c <__adddf3>
 800b21c:	2200      	movs	r2, #0
 800b21e:	2300      	movs	r3, #0
 800b220:	f7f5 fc72 	bl	8000b08 <__aeabi_dcmpgt>
 800b224:	b138      	cbz	r0, 800b236 <floor+0x46>
 800b226:	2c00      	cmp	r4, #0
 800b228:	da57      	bge.n	800b2da <floor+0xea>
 800b22a:	f024 4300 	bic.w	r3, r4, #2147483648	; 0x80000000
 800b22e:	431d      	orrs	r5, r3
 800b230:	d001      	beq.n	800b236 <floor+0x46>
 800b232:	4c2d      	ldr	r4, [pc, #180]	; (800b2e8 <floor+0xf8>)
 800b234:	2500      	movs	r5, #0
 800b236:	4621      	mov	r1, r4
 800b238:	4628      	mov	r0, r5
 800b23a:	e025      	b.n	800b288 <floor+0x98>
 800b23c:	4f2b      	ldr	r7, [pc, #172]	; (800b2ec <floor+0xfc>)
 800b23e:	4137      	asrs	r7, r6
 800b240:	ea01 0307 	and.w	r3, r1, r7
 800b244:	4303      	orrs	r3, r0
 800b246:	d01f      	beq.n	800b288 <floor+0x98>
 800b248:	a325      	add	r3, pc, #148	; (adr r3, 800b2e0 <floor+0xf0>)
 800b24a:	e9d3 2300 	ldrd	r2, r3, [r3]
 800b24e:	f7f5 f815 	bl	800027c <__adddf3>
 800b252:	2200      	movs	r2, #0
 800b254:	2300      	movs	r3, #0
 800b256:	f7f5 fc57 	bl	8000b08 <__aeabi_dcmpgt>
 800b25a:	2800      	cmp	r0, #0
 800b25c:	d0eb      	beq.n	800b236 <floor+0x46>
 800b25e:	2c00      	cmp	r4, #0
 800b260:	bfbe      	ittt	lt
 800b262:	f44f 1380 	movlt.w	r3, #1048576	; 0x100000
 800b266:	fa43 f606 	asrlt.w	r6, r3, r6
 800b26a:	19a4      	addlt	r4, r4, r6
 800b26c:	ea24 0407 	bic.w	r4, r4, r7
 800b270:	2500      	movs	r5, #0
 800b272:	e7e0      	b.n	800b236 <floor+0x46>
 800b274:	2e33      	cmp	r6, #51	; 0x33
 800b276:	dd0b      	ble.n	800b290 <floor+0xa0>
 800b278:	f5b6 6f80 	cmp.w	r6, #1024	; 0x400
 800b27c:	d104      	bne.n	800b288 <floor+0x98>
 800b27e:	ee10 2a10 	vmov	r2, s0
 800b282:	460b      	mov	r3, r1
 800b284:	f7f4 fffa 	bl	800027c <__adddf3>
 800b288:	ec41 0b10 	vmov	d0, r0, r1
 800b28c:	e8bd 81f0 	ldmia.w	sp!, {r4, r5, r6, r7, r8, pc}
 800b290:	f2a7 4713 	subw	r7, r7, #1043	; 0x413
 800b294:	f04f 33ff 	mov.w	r3, #4294967295	; 0xffffffff
 800b298:	fa23 f707 	lsr.w	r7, r3, r7
 800b29c:	4207      	tst	r7, r0
 800b29e:	d0f3      	beq.n	800b288 <floor+0x98>
 800b2a0:	a30f      	add	r3, pc, #60	; (adr r3, 800b2e0 <floor+0xf0>)
 800b2a2:	e9d3 2300 	ldrd	r2, r3, [r3]
 800b2a6:	f7f4 ffe9 	bl	800027c <__adddf3>
 800b2aa:	2200      	movs	r2, #0
 800b2ac:	2300      	movs	r3, #0
 800b2ae:	f7f5 fc2b 	bl	8000b08 <__aeabi_dcmpgt>
 800b2b2:	2800      	cmp	r0, #0
 800b2b4:	d0bf      	beq.n	800b236 <floor+0x46>
 800b2b6:	2c00      	cmp	r4, #0
 800b2b8:	da02      	bge.n	800b2c0 <floor+0xd0>
 800b2ba:	2e14      	cmp	r6, #20
 800b2bc:	d103      	bne.n	800b2c6 <floor+0xd6>
 800b2be:	3401      	adds	r4, #1
 800b2c0:	ea25 0507 	bic.w	r5, r5, r7
 800b2c4:	e7b7      	b.n	800b236 <floor+0x46>
 800b2c6:	2301      	movs	r3, #1
 800b2c8:	f1c6 0634 	rsb	r6, r6, #52	; 0x34
 800b2cc:	fa03 f606 	lsl.w	r6, r3, r6
 800b2d0:	4435      	add	r5, r6
 800b2d2:	4545      	cmp	r5, r8
 800b2d4:	bf38      	it	cc
 800b2d6:	18e4      	addcc	r4, r4, r3
 800b2d8:	e7f2      	b.n	800b2c0 <floor+0xd0>
 800b2da:	2500      	movs	r5, #0
 800b2dc:	462c      	mov	r4, r5
 800b2de:	e7aa      	b.n	800b236 <floor+0x46>
 800b2e0:	8800759c 	.word	0x8800759c
 800b2e4:	7e37e43c 	.word	0x7e37e43c
 800b2e8:	bff00000 	.word	0xbff00000
 800b2ec:	000fffff 	.word	0x000fffff

0800b2f0 <nan>:
 800b2f0:	ed9f 0b01 	vldr	d0, [pc, #4]	; 800b2f8 <nan+0x8>
 800b2f4:	4770      	bx	lr
 800b2f6:	bf00      	nop
 800b2f8:	00000000 	.word	0x00000000
 800b2fc:	7ff80000 	.word	0x7ff80000

0800b300 <scalbn>:
 800b300:	b570      	push	{r4, r5, r6, lr}
 800b302:	ec55 4b10 	vmov	r4, r5, d0
 800b306:	f3c5 520a 	ubfx	r2, r5, #20, #11
 800b30a:	4606      	mov	r6, r0
 800b30c:	462b      	mov	r3, r5
 800b30e:	b99a      	cbnz	r2, 800b338 <scalbn+0x38>
 800b310:	f025 4300 	bic.w	r3, r5, #2147483648	; 0x80000000
 800b314:	4323      	orrs	r3, r4
 800b316:	d036      	beq.n	800b386 <scalbn+0x86>
 800b318:	4b39      	ldr	r3, [pc, #228]	; (800b400 <scalbn+0x100>)
 800b31a:	4629      	mov	r1, r5
 800b31c:	ee10 0a10 	vmov	r0, s0
 800b320:	2200      	movs	r2, #0
 800b322:	f7f5 f961 	bl	80005e8 <__aeabi_dmul>
 800b326:	4b37      	ldr	r3, [pc, #220]	; (800b404 <scalbn+0x104>)
 800b328:	429e      	cmp	r6, r3
 800b32a:	4604      	mov	r4, r0
 800b32c:	460d      	mov	r5, r1
 800b32e:	da10      	bge.n	800b352 <scalbn+0x52>
 800b330:	a32b      	add	r3, pc, #172	; (adr r3, 800b3e0 <scalbn+0xe0>)
 800b332:	e9d3 2300 	ldrd	r2, r3, [r3]
 800b336:	e03a      	b.n	800b3ae <scalbn+0xae>
 800b338:	f240 71ff 	movw	r1, #2047	; 0x7ff
 800b33c:	428a      	cmp	r2, r1
 800b33e:	d10c      	bne.n	800b35a <scalbn+0x5a>
 800b340:	ee10 2a10 	vmov	r2, s0
 800b344:	4620      	mov	r0, r4
 800b346:	4629      	mov	r1, r5
 800b348:	f7f4 ff98 	bl	800027c <__adddf3>
 800b34c:	4604      	mov	r4, r0
 800b34e:	460d      	mov	r5, r1
 800b350:	e019      	b.n	800b386 <scalbn+0x86>
 800b352:	f3c1 520a 	ubfx	r2, r1, #20, #11
 800b356:	460b      	mov	r3, r1
 800b358:	3a36      	subs	r2, #54	; 0x36
 800b35a:	4432      	add	r2, r6
 800b35c:	f240 71fe 	movw	r1, #2046	; 0x7fe
 800b360:	428a      	cmp	r2, r1
 800b362:	dd08      	ble.n	800b376 <scalbn+0x76>
 800b364:	2d00      	cmp	r5, #0
 800b366:	a120      	add	r1, pc, #128	; (adr r1, 800b3e8 <scalbn+0xe8>)
 800b368:	e9d1 0100 	ldrd	r0, r1, [r1]
 800b36c:	da1c      	bge.n	800b3a8 <scalbn+0xa8>
 800b36e:	a120      	add	r1, pc, #128	; (adr r1, 800b3f0 <scalbn+0xf0>)
 800b370:	e9d1 0100 	ldrd	r0, r1, [r1]
 800b374:	e018      	b.n	800b3a8 <scalbn+0xa8>
 800b376:	2a00      	cmp	r2, #0
 800b378:	dd08      	ble.n	800b38c <scalbn+0x8c>
 800b37a:	f023 43ff 	bic.w	r3, r3, #2139095040	; 0x7f800000
 800b37e:	f423 03e0 	bic.w	r3, r3, #7340032	; 0x700000
 800b382:	ea43 5502 	orr.w	r5, r3, r2, lsl #20
 800b386:	ec45 4b10 	vmov	d0, r4, r5
 800b38a:	bd70      	pop	{r4, r5, r6, pc}
 800b38c:	f112 0f35 	cmn.w	r2, #53	; 0x35
 800b390:	da19      	bge.n	800b3c6 <scalbn+0xc6>
 800b392:	f24c 3350 	movw	r3, #50000	; 0xc350
 800b396:	429e      	cmp	r6, r3
 800b398:	f005 4300 	and.w	r3, r5, #2147483648	; 0x80000000
 800b39c:	dd0a      	ble.n	800b3b4 <scalbn+0xb4>
 800b39e:	a112      	add	r1, pc, #72	; (adr r1, 800b3e8 <scalbn+0xe8>)
 800b3a0:	e9d1 0100 	ldrd	r0, r1, [r1]
 800b3a4:	2b00      	cmp	r3, #0
 800b3a6:	d1e2      	bne.n	800b36e <scalbn+0x6e>
 800b3a8:	a30f      	add	r3, pc, #60	; (adr r3, 800b3e8 <scalbn+0xe8>)
 800b3aa:	e9d3 2300 	ldrd	r2, r3, [r3]
 800b3ae:	f7f5 f91b 	bl	80005e8 <__aeabi_dmul>
 800b3b2:	e7cb      	b.n	800b34c <scalbn+0x4c>
 800b3b4:	a10a      	add	r1, pc, #40	; (adr r1, 800b3e0 <scalbn+0xe0>)
 800b3b6:	e9d1 0100 	ldrd	r0, r1, [r1]
 800b3ba:	2b00      	cmp	r3, #0
 800b3bc:	d0b8      	beq.n	800b330 <scalbn+0x30>
 800b3be:	a10e      	add	r1, pc, #56	; (adr r1, 800b3f8 <scalbn+0xf8>)
 800b3c0:	e9d1 0100 	ldrd	r0, r1, [r1]
 800b3c4:	e7b4      	b.n	800b330 <scalbn+0x30>
 800b3c6:	f023 43ff 	bic.w	r3, r3, #2139095040	; 0x7f800000
 800b3ca:	3236      	adds	r2, #54	; 0x36
 800b3cc:	f423 03e0 	bic.w	r3, r3, #7340032	; 0x700000
 800b3d0:	ea43 5102 	orr.w	r1, r3, r2, lsl #20
 800b3d4:	4620      	mov	r0, r4
 800b3d6:	4b0c      	ldr	r3, [pc, #48]	; (800b408 <scalbn+0x108>)
 800b3d8:	2200      	movs	r2, #0
 800b3da:	e7e8      	b.n	800b3ae <scalbn+0xae>
 800b3dc:	f3af 8000 	nop.w
 800b3e0:	c2f8f359 	.word	0xc2f8f359
 800b3e4:	01a56e1f 	.word	0x01a56e1f
 800b3e8:	8800759c 	.word	0x8800759c
 800b3ec:	7e37e43c 	.word	0x7e37e43c
 800b3f0:	8800759c 	.word	0x8800759c
 800b3f4:	fe37e43c 	.word	0xfe37e43c
 800b3f8:	c2f8f359 	.word	0xc2f8f359
 800b3fc:	81a56e1f 	.word	0x81a56e1f
 800b400:	43500000 	.word	0x43500000
 800b404:	ffff3cb0 	.word	0xffff3cb0
 800b408:	3c900000 	.word	0x3c900000

0800b40c <_init>:
 800b40c:	b5f8      	push	{r3, r4, r5, r6, r7, lr}
 800b40e:	bf00      	nop
 800b410:	bcf8      	pop	{r3, r4, r5, r6, r7}
 800b412:	bc08      	pop	{r3}
 800b414:	469e      	mov	lr, r3
 800b416:	4770      	bx	lr

0800b418 <_fini>:
 800b418:	b5f8      	push	{r3, r4, r5, r6, r7, lr}
 800b41a:	bf00      	nop
 800b41c:	bcf8      	pop	{r3, r4, r5, r6, r7}
 800b41e:	bc08      	pop	{r3}
 800b420:	469e      	mov	lr, r3
 800b422:	4770      	bx	lr
